******************************************************************************
            TI ARM Clang Linker PC v3.2.2                      
******************************************************************************
>> Linked Wed Jul 24 20:11:37 2024

OUTPUT FILE NAME:   <collector_LP_EM_CC1314R10_tirtos7_ticlang.out>
ENTRY POINT SYMBOL: "ResetISR"  address: 0001acff


MEMORY CONFIGURATION

         name            origin    length      used     unused   attr    fill
----------------------  --------  ---------  --------  --------  ----  --------
  FLASH                 00000000   00100000  00024c58  000db3a8  R  X
  SRAM                  20000000   00040000  00003e15  0003c1eb  RW X
  CCFG                  50000000   00000800  0000007c  00000784  R  X


SEGMENT ALLOCATION MAP

run origin  load origin   length   init length attrs members
----------  ----------- ---------- ----------- ----- -------
00000000    00000000    0001c894   0001c894    r-x
  00000000    00000000    0000003c   0000003c    r-- .resetVecs
  0000003c    0000003c    0001ad34   0001ad34    r-x .text
  0001ad70    0001ad70    00001b24   00001b24    r-- .rodata
0001c894    0001c894    00000008   00000008    rw-
  0001c894    0001c894    00000008   00000008    rw- .args
0001c89c    0001c89c    000003bc   000003bc    r--
  0001c89c    0001c89c    000003bc   000003bc    r-- .cinit
0004e000    0004e000    00008000   00000000    rw-
  0004e000    0004e000    00008000   00000000    rw- .TI.bound:flashBuf0
20000000    20000000    00000450   00000000    rw-
  20000000    20000000    00000450   00000000    rw- .bss.1
20000450    20000450    00000020   00000000    rw-
  20000450    20000450    00000010   00000000    rw- .TI.bound:dmaUart1RxControlTableEntry
  20000460    20000460    00000010   00000000    rw- .TI.bound:dmaUart1TxControlTableEntry
20000470    20000470    000025a9   00000000    rw-
  20000470    20000470    000025a9   00000000    rw- .bss.2
20002b00    20002b00    00000d20   00000000    rw-
  20002b00    20002b00    00000d20   00000000    rw- .data
20003900    20003900    000001fc   00000000    rw-
  20003900    20003900    000001fc   00000000    rw- .ramVecs
2003fc00    2003fc00    00000400   00000000    rw-
  2003fc00    2003fc00    00000400   00000000    rw- .stack
50000000    50000000    0000007c   0000007c    r--
  50000000    50000000    0000007c   0000007c    r-- .ccfg


SECTION ALLOCATION MAP

 output                                  attributes/
section   page    origin      length       input sections
--------  ----  ----------  ----------   ----------------
.resetVecs 
*          0    00000000    0000003c     
                  00000000    0000003c     ti_sysbios_config.o (.resetVecs)

.rodata    0    0001ad70    00001b24     
                  0001ad70    00000628     rf_multiMode_cc13x4.a : rf_patch_cpe_multi_protocol.c.cc13x4.ticlang.o (.rodata.patchImageMultiProtocol)
                  0001b398    00000008                           : RFCC26X2_multiMode.c.cc13x4.ticlang.o (.rodata..L__const.RF_hwiCpe0Active.activeCmd)
                  0001b3a0    00000101     libc.a : aeabi_ctype.S.obj (.rodata:__aeabi_ctype_table_)
                  0001b4a1    00000100     crc.o (.rodata.crc_table)
                  0001b5a1    000000f8     mac_cfg.o (.rodata.macPibTbl)
                  0001b699    0000008a     ti_sysbios_config.o (.rodata.ti_sysbios_family_arm_v8m_Hwi_Instance_init.err.1)
                  0001b723    00000089     ti_sysbios_config.o (.rodata.ti_sysbios_runtime_Memory_alloc.err)
                  0001b7ac    00000088     mac_cfg.o (.rodata.macPibDefaults)
                  0001b834    00000087     ti_sysbios_config.o (.rodata.ti_sysbios_family_arm_v8m_Hwi_Instance_init.err)
                  0001b8bb    00000072     maclib_secure_cc13x4_tirtos7.a : hmac_global.c.o (.rodata.macIdleSt)
                  0001b92d    00000072                                    : hmac_global.c.o (.rodata.macScanningSt)
                  0001b99f    00000072                                    : hmac_global.c.o (.rodata.macStartingSt)
                  0001ba11    00000003     cui.o (.rodata.str1.121313193644129924021)
                  0001ba14    0000006c     mac_user_config.o (.rodata.macRfDriverTable)
                  0001ba80    00000068     drivers_cc13x4.a : PowerCC26X2.c.obj (.rodata.resourceDB)
                  0001bae8    00000058     mac_cfg.o (.rodata.macSecurityPibTbl)
                  0001bb40    00000058     ti_drivers_config.o (.rodata.uart2CC26X2HWAttrs)
                  0001bb98    00000050     mac_cfg.o (.rodata.macMRFSKStdPhyTable)
                  0001bbe8    0000004c     csf.o (.rodata.str1.178915038779097033511)
                  0001bc34    00000044     cui.o (.rodata.str1.176089279445811056701)
                  0001bc78    00000044     cui.o (.rodata.str1.6004256998686781801)
                  0001bcbc    00000040     mac_user_config.o (.rodata.macCryptoDriverTable)
                  0001bcfc    00000040     maclib_secure_cc13x4_tirtos7.a : hmac_global.c.o (.rodata.macTimerRolloverValue)
                  0001bd3c    00000040     cui.o (.rodata.str1.125847112539965130001)
                  0001bd7c    0000003e     csf.o (.rodata.str1.178818034730380951421)
                  0001bdba    0000003e     csf.o (.rodata.str1.96613114071626166531)
                  0001bdf8    00000038     maclib_secure_cc13x4_tirtos7.a : hmac_global.c.o (.rodata.macCmdIncludeFHIe)
                  0001be30    00000037     csf.o (.rodata.str1.63724737458367038391)
                  0001be67    00000034     csf.o (.rodata.str1.40677741281798239751)
                  0001be9b    00000032     csf.o (.rodata.str1.106250627936872466771)
                  0001becd    00000003     cui.o (.rodata.str1.152011256022316809081)
                  0001bed0    00000030     ti_radio_config.o (.rodata.RF_cmdPropRxAdv_2gfsk50kbps154g)
                  0001bf00    0000002c     csf.o (.rodata..Lswitch.table.Csf_deviceSensorDeviceTypeResponseUpdate)
                  0001bf2c    00000028     drivers_cc13x4.a : NVSCC26XX.c.obj (.rodata.NVSCC26XX_fxnTable)
                  0001bf54    00000028     ti_radio_config.o (.rodata.RF_cmdPropRadioDivSetup_2gfsk50kbps154g)
                  0001bf7c    00000028     maclib_secure_cc13x4_tirtos7.a : mac_radio.c.o (.rodata.activityObject)
                  0001bfa4    00000028     csf.o (.rodata.str1.15549284563158556671)
                  0001bfcc    00000027     csf.o (.rodata.str1.45534130091950402931)
                  0001bff3    00000001     ti_drivers_config.o (.rodata.Button_count)
                  0001bff4    00000024     drivers_cc13x4.a : UART2.c.obj (.rodata.UART2_defaultParams)
                  0001c018    00000024     csf.o (.rodata.str1.170941311290227383711)
                  0001c03c    00000024     ti_sysbios_config.o (.rodata.ti_sysbios_knl_Task_Params_default)
                  0001c060    00000022     csf.o (.rodata.str1.46197225104169499861)
                  0001c082    00000002     cllc.o (.rodata.keyUsageList)
                  0001c084    00000020     mac_user_config.o (.rodata..L__const.rfSelect.RfCfg)
                  0001c0a4    00000020     ti_radio_config.o (.rodata.RF_cmdPropTxAdv_2gfsk50kbps154g)
                  0001c0c4    00000020     rf_multiMode_cc13x4.a : RFCC26X2_multiMode.c.cc13x4.ticlang.o (.rodata.cst32)
                  0001c0e4    00000020     cllc.o (.rodata.keyDeviceList)
                  0001c104    0000001d     ti_sysbios_config.o (.rodata.str1.114093530142707899381)
                  0001c121    00000003     cui.o (.rodata.str1.182957484754093614381)
                  0001c124    0000001c     ti_radio_config.o (.rodata.RF_cmdPropCs_2gfsk50kbps154g)
                  0001c140    0000001c     driverlib.lib : prcm.c.obj (.rodata.g_pui32DCGCRegs)
                  0001c15c    0000001c                   : prcm.c.obj (.rodata.g_pui32RCGCRegs)
                  0001c178    0000001c                   : prcm.c.obj (.rodata.g_pui32SCGCRegs)
                  0001c194    0000001c     ti_sysbios_config.o (.rodata.str1.54136785629011067091)
                  0001c1b0    0000001c     ti_sysbios_config.o (.rodata.ti_sysbios_family_arm_v8m_cc26x4_Timer_Params_default)
                  0001c1cc    00000019     csf.o (.rodata.str1.20162699807190349971)
                  0001c1e5    00000003     csf.o (.rodata.str1.54068738771618345811)
                  0001c1e8    00000018     drivers_cc13x4.a : PWM.c.obj (.rodata.PWM_defaultParams)
                  0001c200    00000018     ti_radio_config.o (.rodata.RF_cmdFs_2gfsk50kbps154g)
                  0001c218    00000018     maclib_secure_cc13x4_tirtos7.a : hmac_global.c.o (.rodata.macSendMsgBufSize)
                  0001c230    00000018     csf.o (.rodata.str1.103563185246793813871)
                  0001c248    00000018     csf.o (.rodata.str1.115505352805392863471)
                  0001c260    00000018     csf.o (.rodata.str1.126150245121671774721)
                  0001c278    00000018     csf.o (.rodata.str1.137851154750745100131)
                  0001c290    00000018     csf.o (.rodata.str1.149850476731867901271)
                  0001c2a8    00000018     csf.o (.rodata.str1.182464985938197977241)
                  0001c2c0    00000018     csf.o (.rodata.str1.184265599001276642891)
                  0001c2d8    00000018     csf.o (.rodata.str1.22361742490726946741)
                  0001c2f0    00000018     csf.o (.rodata.str1.25773371771153959161)
                  0001c308    00000018     csf.o (.rodata.str1.36339905120136252361)
                  0001c320    00000018     csf.o (.rodata.str1.5832205062843288231)
                  0001c338    00000018     csf.o (.rodata.str1.76024708182592150401)
                  0001c350    00000018     csf.o (.rodata.str1.87280737788605557191)
                  0001c368    00000018     csf.o (.rodata.str1.96788236959878339841)
                  0001c380    00000018     ti_sysbios_config.o (.rodata.ti_sysbios_family_arm_v8m_Hwi_Params_default)
                  0001c398    00000017     cui.o (.rodata.str1.11435887617902884661)
                  0001c3af    00000017     cui.o (.rodata.str1.167230167816892053031)
                  0001c3c6    00000017     csf.o (.rodata.str1.183667691627460569851)
                  0001c3dd    00000016     csf.o (.rodata.str1.125316739571623442581)
                  0001c3f3    00000015     cui.o (.rodata.str1.112185342344867825341)
                  0001c408    00000015     csf.o (.rodata.str1.93632005572170303861)
                  0001c41d    00000003     csf.o (.rodata.str1.60540477314694163681)
                  0001c420    00000014     drivers_cc13x4.a : Button.c.obj (.rodata.Button_defaultParams)
                  0001c434    00000014     ti_drivers_config.o (.rodata.PowerCC26X2_config)
                  0001c448    00000014     drivers_cc13x4.a : TRNG.c.obj (.rodata.TRNG_defaultParams)
                  0001c45c    00000014     csf.o (.rodata.str1.179224765082858134481)
                  0001c470    00000014     ti_sysbios_config.o (.rodata.ti_sysbios_knl_Swi_Params_default)
                  0001c484    00000013     macTask.o (.rodata.msacbackSizeTable)
                  0001c497    00000013     cui.o (.rodata.str1.167498238720240915741)
                  0001c4aa    00000013     csf.o (.rodata.str1.17531958896901508051)
                  0001c4bd    00000013     csf.o (.rodata.str1.21006474654840782551)
                  0001c4d0    00000013     csf.o (.rodata.str1.43370141943669440301)
                  0001c4e3    00000013     cui.o (.rodata.str1.84853593989780433251)
                  0001c4f6    00000012     cui.o (.rodata.str1.178645811001086867261)
                  0001c508    00000012     csf.o (.rodata.str1.52921570234593557511)
                  0001c51a    00000012     csf.o (.rodata.str1.87062605817571824581)
                  0001c52c    00000011     ti_sysbios_config.o (.rodata.str1.111528116657238352481)
                  0001c53d    00000011     csf.o (.rodata.str1.1355314368575610141)
                  0001c54e    00000011     collector.o (.rodata.str1.164293585144433962661)
                  0001c55f    00000011     csf.o (.rodata.str1.55193927482214827121)
                  0001c570    00000011     csf.o (.rodata.str1.9293567835336996151)
                  0001c581    00000011     csf.o (.rodata.validChannelMask)
                  0001c592    00000002     drivers_cc13x4.a : UART2CC26X2.c.obj (.rodata.stopBits)
                  0001c594    00000010                      : AESCCM.c.obj (.rodata.AESCCM_defaultParams)
                  0001c5a4    00000010     ti_drivers_config.o (.rodata.ButtonHWAttrs)
                  0001c5b4    00000010     ti_drivers_config.o (.rodata.Button_config)
                  0001c5c4    00000010     ti_drivers_config.o (.rodata.GPIO_config)
                  0001c5d4    00000010     ti_drivers_config.o (.rodata.LED_config)
                  0001c5e4    00000010     maclib_secure_cc13x4_tirtos7.a : mac_duty_cycle.c.o (.rodata.cst16)
                  0001c5f4    00000010                                    : hmac_global.c.o (.rodata.macIEEEPhyTable)
                  0001c604    00000010     ti_sysbios_config.o (.rodata.str1.67815635884313329291)
                  0001c614    0000000f     csf.o (.rodata.str1.102714528432333443191)
                  0001c623    0000000f     ti_sysbios_config.o (.rodata.str1.123815885180704396101)
                  0001c632    00000002     csf.o (.rodata.str1.129394991951256138141)
                  0001c634    0000000f     cui.o (.rodata.str1.124667393637135320244)
                  0001c643    0000000f     csf.o (.rodata.str1.86547735285071130461)
                  0001c652    0000000e     maclib_secure_cc13x4_tirtos7.a : hmac_global.c.o (.rodata.macCmdBufSize)
                  0001c660    0000000e                                    : hmac_global.c.o (.rodata.macTxFrameFailed)
                  0001c66e    0000000e                                    : hmac_global.c.o (.rodata.macTxFrameSuccess)
                  0001c67c    0000000e     csf.o (.rodata.str1.15804542294462915141)
                  0001c68a    00000002     ti_sysbios_config.o (.rodata.str1.71102027280925491351)
                  0001c68c    0000000e     csf.o (.rodata.str1.174310371412754149384)
                  0001c69a    00000001     ti_drivers_config.o (.rodata.GPIO_pinLowerBound)
                  0001c69b    00000001     ti_drivers_config.o (.rodata.GPIO_pinUpperBound)
                  0001c69c    0000000c     drivers_cc13x4.a : Random.c.obj (.rodata..L__const.Random_seedAutomatic.hwAttrs)
                  0001c6a8    0000000c     ti_drivers_config.o (.rodata.NVS_config)
                  0001c6b4    0000000c     ti_drivers_config.o (.rodata.RFCC26XX_hwAttrs)
                  0001c6c0    0000000c     ti_sysbios_config.o (.rodata.defAttrs)
                  0001c6cc    0000000c     maclib_secure_cc13x4_tirtos7.a : hmac_global.c.o (.rodata.macCbackEventTbl)
                  0001c6d8    0000000c                                    : hmac_global.c.o (.rodata.macSendMsgDataSize)
                  0001c6e4    0000000c     csf.o (.rodata.str1.153115378585583183781)
                  0001c6f0    0000000c     csf.o (.rodata.str1.93118916566586387051)
                  0001c6fc    0000000c     ti_sysbios_config.o (.rodata.ti_sysbios_knl_Clock_Params_default)
                  0001c708    0000000c     ti_sysbios_config.o (.rodata.ti_sysbios_knl_Semaphore_Params_default)
                  0001c714    0000000b     csf.o (.rodata.str1.24577280123665098811)
                  0001c71f    0000000a     drivers_cc13x4.a : Button.c.obj (.rodata..Lswitch.table.Button_gpioCallbackFxn)
                  0001c729    00000001     ti_drivers_config.o (.rodata.LED_count)
                  0001c72a    00000001     ti_drivers_config.o (.rodata.NVS_count)
                  0001c72b    00000001     ti_drivers_config.o (.rodata.UART2_count)
                  0001c72c    0000000a     cllc.o (.rodata.keyIdLookupList)
                  0001c736    0000000a     csf.o (.rodata.str1.137236182673578629571)
                  0001c740    00000009     maclib_secure_cc13x4_tirtos7.a : hmac_global.c.o (.rodata.macCmdLen)
                  0001c749    00000009     csf.o (.rodata.str1.108977084720892283531)
                  0001c752    00000009     csf.o (.rodata.str1.111246201651489845121)
                  0001c75b    00000009     csf.o (.rodata.str1.118395453113255295701)
                  0001c764    00000009     csf.o (.rodata.str1.124987723612347636271)
                  0001c76d    00000009     csf.o (.rodata.str1.27918431875110308641)
                  0001c776    00000009     csf.o (.rodata.str1.47925841142117693321)
                  0001c77f    00000009     csf.o (.rodata.str1.55911026302536679351)
                  0001c788    00000009     csf.o (.rodata.str1.67534460717976508631)
                  0001c791    00000009     csf.o (.rodata.str1.6795788905793462481)
                  0001c79a    00000001     ti_drivers_config.o (.rodata.aesccmCC26X4HWAttrs)
                  0001c79b    00000001     csf.o (.rodata.str1.112018244258079133771)
                  0001c79c    00000008     ti_drivers_config.o (.rodata.AESCCM_config)
                  0001c7a4    00000008     cllc.o (.rodata.Cllc_keySource)
                  0001c7ac    00000008     drivers_cc13x4.a : LED.c.obj (.rodata.LED_defaultParams)
                  0001c7b4    00000008     ti_drivers_config.o (.rodata.UART2_config)
                  0001c7bc    00000008     ti_drivers_config.o (.rodata.UDMACC26XX_config)
                  0001c7c4    00000008     driverlib.lib : aux_sysif.c.obj (.rodata.cst4)
                  0001c7cc    00000008     maclib_secure_cc13x4_tirtos7.a : mac_rx.c.o (.rodata.cst4)
                  0001c7d4    00000008     main.o (.rodata.cst8)
                  0001c7dc    00000008     maclib_secure_cc13x4_tirtos7.a : hmac_global.c.o (.rodata.macAuthTagLen)
                  0001c7e4    00000008     ti_drivers_config.o (.rodata.nvsCC26XXHWAttrs)
                  0001c7ec    00000008     ti_sysbios_config.o (.rodata.prefixStrings)
                  0001c7f4    00000008     csf.o (.rodata.str1.14702975577923442701)
                  0001c7fc    00000008     csf.o (.rodata.str1.59809890532796948791)
                  0001c804    00000008     ti_sysbios_config.o (.rodata.ti_sysbios_knl_Idle_funcList)
                  0001c80c    00000008     ti_drivers_config.o (.rodata.udmaCC26XXHWAttrs)
                  0001c814    00000007     csf.o (.rodata.str1.136056668019434897851)
                  0001c81b    00000007     csf.o (.rodata.str1.173788956737380623011)
                  0001c822    00000007     ti_sysbios_config.o (.rodata.str1.174580395633770214331)
                  0001c829    00000007     csf.o (.rodata.str1.60923433695207190001)
                  0001c830    00000007     csf.o (.rodata.str1.85397541183324350081)
                  0001c837    00000006     cui.o (.rodata..L.str.8)
                  0001c83d    00000005     drivers_cc13x4.a : UART2CC26X2.c.obj (.rodata.parityType)
                  0001c842    00000005                      : UART2CC26X2.c.obj (.rodata.rxFifoThreshold)
                  0001c847    00000005     cllc.o (.rodata.securityLevelEntry)
                  0001c84c    00000005     csf.o (.rodata.str1.68163130233111801431)
                  0001c851    00000005     cui.o (.rodata.str1.99407344921947314081)
                  0001c856    00000005     drivers_cc13x4.a : UART2CC26X2.c.obj (.rodata.txFifoThreshold)
                  0001c85b    00000004     ti_drivers_config.o (.rodata.LEDHWAttrs)
                  0001c85f    00000001     --HOLE-- [fill = 0]
                  0001c860    00000004     drivers_cc13x4.a : NVS.c.obj (.rodata.NVS_defaultParams)
                  0001c864    00000004     ti_sysbios_config.o (.rodata.TimestampP_nativeFormat32)
                  0001c868    00000004     ti_sysbios_config.o (.rodata.TimestampP_nativeFormat64)
                  0001c86c    00000004     cui.o (.rodata.cst4)
                  0001c870    00000004     drivers_cc13x4.a : UART2CC26X2.c.obj (.rodata.cst4)
                  0001c874    00000004     maclib_secure_cc13x4_tirtos7.a : hmac_global.c.o (.rodata.macKeySourceLen)
                  0001c878    00000004     cui.o (.rodata.str1.100123802100164033731)
                  0001c87c    00000004     cui.o (.rodata.str1.110860409259610766421)
                  0001c880    00000004     cui.o (.rodata.str1.115887726394309060251)
                  0001c884    00000004     cui.o (.rodata.str1.41251438157842117841)
                  0001c888    00000004     cui.o (.rodata.str1.65301294562509084411)
                  0001c88c    00000004     csf.o (.rodata.str1.9569291090731918301)
                  0001c890    00000004     ti_sysbios_config.o (.rodata.ti_sysbios_family_arm_v8m_Hwi_swiTaskKeyAddress)

.cinit     0    0001c89c    000003bc     
                  0001c89c    00000355     (.cinit..data.load) [load image, compression = lzss]
                  0001cbf1    00000003     --HOLE-- [fill = 0]
                  0001cbf4    0000000c     (__TI_handler_table)
                  0001cc00    00000008     (.cinit..TI.bound:dmaUart1RxControlTableEntry.load) [load image, compression = zero_init]
                  0001cc08    00000008     (.cinit..TI.bound:dmaUart1TxControlTableEntry.load) [load image, compression = zero_init]
                  0001cc10    00000008     (.cinit..bss.1.load) [load image, compression = zero_init]
                  0001cc18    00000008     (.cinit..bss.2.load) [load image, compression = zero_init]
                  0001cc20    00000008     (.cinit..ramVecs.load) [load image, compression = zero_init]
                  0001cc28    00000030     (__TI_cinit_table)

.init_array 
*          0    00000000    00000000     UNINITIALIZED

.TI.bound:flashBuf0 
*          0    0004e000    00008000     UNINITIALIZED
                  0004e000    00008000     ti_drivers_config.o (.TI.bound:flashBuf0)

.data      0    20002b00    00000d20     UNINITIALIZED
                  20002b00    00000178     drivers_cc13x4.a : PowerCC26X2.c.obj (.data.PowerCC26X2_module)
                  20002c78    000000c0     ti_drivers_config.o (.data.gpioPinConfigs)
                  20002d38    000000a0     mac_cfg.o (.data.macMRFSKGenPhyTable)
                  20002dd8    0000006c     csf.o (.data..L_MergedGlobals)
                  20002e44    0000006c     maclib_secure_cc13x4_tirtos7.a : hmac_global.c.o (.data.fhObject)
                  20002eb0    00000068     rf_multiMode_cc13x4.a : RFCC26X2_multiMode.c.cc13x4.ticlang.o (.data..L_MergedGlobals.1)
                  20002f18    00000068     cui.o (.data..L_MergedGlobals.22)
                  20002f80    00000068     ti_sysbios_config.o (.data..L_MergedGlobals.72)
                  20002fe8    00000068     ti_sysbios_config.o (.data..L_MergedGlobals)
                  20003050    00000068     ti_sysbios_config.o (.data.ti_sysbios_knl_Clock_Module_state)
                  200030b8    00000064     rf_multiMode_cc13x4.a : RFCC26X2_multiMode.c.cc13x4.ticlang.o (.data..L_MergedGlobals.3)
                  2000311c    00000064     ti_radio_config.o (.data.txPowerTable_868_pa13)
                  20003180    00000060     collector.o (.data..L_MergedGlobals)
                  200031e0    0000005c     main.o (.data.Main_user1Cfg)
                  2000323c    00000058     rf_multiMode_cc13x4.a : RFCC26X2_multiMode.c.cc13x4.ticlang.o (.data..L_MergedGlobals.2)
                  20003294    00000058     cllc.o (.data..L_MergedGlobals)
                  200032ec    00000058     csf.o (.data.appSubMenu)
                  20003344    00000050     nvocmp.o (.data..L_MergedGlobals.1)
                  20003394    00000048     cllc.o (.data.macCallbacksCopy)
                  200033dc    00000044     csf.o (.data..L_MergedGlobals.68)
                  20003420    00000040     csf.o (.data.commissionSubMenu)
                  20003460    00000040     csf.o (.data.configureSubMenu)
                  200034a0    0000003c     ti_sysbios_config.o (.data.ti_sysbios_knl_Task_Module_state)
                  200034dc    00000038     drivers_cc13x4.a : TRNGCC26XX.c.obj (.data..L_MergedGlobals.1)
                  20003514    00000035     cui.o (.data..L_MergedGlobals)
                  20003549    00000034     maclib_secure_cc13x4_tirtos7.a : hmac_global.c.o (.data.macBeaconPayload)
                  2000357d    00000003                                    : mac_tx.c.o (.data..L_MergedGlobals.1)
                  20003580    00000030     drivers_cc13x4.a : TRNGCC26XX.c.obj (.data..L_MergedGlobals)
                  200035b0    0000002c     ti_radio_config.o (.data.pOverrides_2gfsk50kbps154g)
                  200035dc    00000024     maclib_secure_cc13x4_tirtos7.a : hmac_global.c.o (.data.macActionSet)
                  20003600    00000020                                    : mac.c.o (.data..L_MergedGlobals)
                  20003620    00000020     mac_cfg.o (.data.macBeaconMargin)
                  20003640    00000018     maclib_secure_cc13x4_tirtos7.a : mac_duty_cycle.c.o (.data..L_MergedGlobals)
                  20003658    00000015                                    : mac_rx.c.o (.data..L_MergedGlobals)
                  2000366d    00000003     api_mac.o (.data..L_MergedGlobals)
                  20003670    00000014     ti_sysbios_config.o (.data.defaultPthreadAttrs)
                  20003684    00000014     maclib_secure_cc13x4_tirtos7.a : hmac_global.c.o (.data.macStateTbl)
                  20003698    00000014     main.o (.data.macUser0Cfg)
                  200036ac    00000010     driverlib.lib : osc.c.obj (.data..L_MergedGlobals)
                  200036bc    00000010     macTask.o (.data..L_MergedGlobals)
                  200036cc    00000010     mac_settings.o (.data.RF_cmdNop)
                  200036dc    00000010     mac_settings.o (.data.RF_cmdNopFg)
                  200036ec    00000010     ti_radio_config.o (.data.RF_prop_2gfsk50kbps154g)
                  200036fc    00000010     driverlib.lib : osc.c.obj (.data._hposcCoeffs)
                  2000370c    00000010     mac_cfg.o (.data.macCfg)
                  2000371c    0000000c     maclib_osal_tirtos7_cc13x4_26x4.a : osal_port.c.o (.data..L_MergedGlobals.1)
                  20003728    0000000c     maclib_secure_cc13x4_tirtos7.a : mac.c.o (.data..L_MergedGlobals.1)
                  20003734    0000000c     drivers_cc13x4.a : NVSCC26XX.c.obj (.data..L_MergedGlobals)
                  20003740    0000000c     maclib_osal_tirtos7_cc13x4_26x4.a : osal_port.c.o (.data..L_MergedGlobals)
                  2000374c    00000008                                       : osal_port_timers.c.o (.data..L_MergedGlobals.1)
                  20003754    00000008     maclib_secure_cc13x4_tirtos7.a : mac_radio.c.o (.data..L_MergedGlobals.1)
                  2000375c    00000008     maclib_osal_tirtos7_cc13x4_26x4.a : osal_port_timers.c.o (.data..L_MergedGlobals)
                  20003764    00000008     maclib_secure_cc13x4_tirtos7.a : mac_radio.c.o (.data..L_MergedGlobals)
                  2000376c    00000008                                    : mac_radio_tx.c.o (.data..L_MergedGlobals)
                  20003774    00000008                                    : mac_tx.c.o (.data..L_MergedGlobals)
                  2000377c    00000008     rf_multiMode_cc13x4.a : RFCC26X2_multiMode.c.cc13x4.ticlang.o (.data..L_MergedGlobals)
                  20003784    00000008                           : RFCC26X2_multiMode.c.cc13x4.ticlang.o (.data.RFCC26XX_schedulerPolicy)
                  2000378c    00000008     ti_sysbios_config.o (.data.ti_sysbios_gates_GateMutexPri_Module_state)
                  20003794    00000008     ti_sysbios_config.o (.data.ti_sysbios_heaps_HeapCallback_Module_state)
                  2000379c    00000008     ti_sysbios_config.o (.data.ti_sysbios_knl_Semaphore_Module_state)
                  200037a4    00000004     maclib_secure_cc13x4_tirtos7.a : mac_hl_patch.c.o (.data..L_MergedGlobals)
                  200037a8    00000004     drivers_cc13x4.a : PowerCC26X2.c.obj (.data.PowerCC26X2_rtcSubSecInc)
                  200037ac    00000004     rf_multiMode_cc13x4.a : RFCC26X2_multiMode.c.cc13x4.ticlang.o (.data.RF_fsmActiveState.lfClockSourceLast)
                  200037b0    00000004     libc.a : aeabi_portable.c.obj (.data.__aeabi_errno)
                  200037b4    00000004            : _lock.c.obj (.data._lock)
                  200037b8    00000004            : _lock.c.obj (.data._unlock)
                  200037bc    00000004     api_mac.o (.data.appEvents)
                  200037c0    00000004     maclib_secure_cc13x4_tirtos7.a : hmac_global.c.o (.data.macDataBeaconRequeue)
                  200037c4    00000004                                    : hmac_global.c.o (.data.macDataCheckSched)
                  200037c8    00000004                                    : hmac_global.c.o (.data.macDataCheckTxTime)
                  200037cc    00000004                                    : hmac_global.c.o (.data.macDataRequeueIndirect)
                  200037d0    00000004                                    : hmac_global.c.o (.data.macDataRxBeaconCritical)
                  200037d4    00000004                                    : hmac_global.c.o (.data.macDataSetSched)
                  200037d8    00000004                                    : hmac_global.c.o (.data.macDataTxBeaconComplete)
                  200037dc    00000004                                    : hmac_global.c.o (.data.macDataTxIndirect)
                  200037e0    00000004                                    : mac_symbol_timer.c.o (.data.macSymbolWakeupClock)
                  200037e4    00000004     macTask.o (.data.macTaskEvents)
                  200037e8    00000004     maclib_secure_cc13x4_tirtos7.a : hmac_global.c.o (.data.macTimerNewRollover)
                  200037ec    00000004                                    : hmac_global.c.o (.data.macTimerRollover)
                  200037f0    00000004                                    : mac.c.o (.data.minTxOffTime)
                  200037f4    00000004     api_mac.o (.data.pMacCallbacks)
                  200037f8    00000004     maclib_secure_cc13x4_tirtos7.a : hmac_global.c.o (.data.pMacDataTx)
                  200037fc    00000004                                    : mac_radio_tx.c.o (.data.pMacEnhancedAck)
                  20003800    00000004                                    : mac_mcu.c.o (.data.pRandomSeedCB)
                  20003804    00000002                                    : mac_autopend.c.o (.data..L_MergedGlobals)
                  20003806    00000002     cllc.o (.data.Cllc_numOfDevices)
                  20003808    00000002     maclib_secure_cc13x4_tirtos7.a : mac_hl_patch.c.o (.data.assoc_resp_no_ack_cnt)
                  2000380a    00000001     cui.o (.data.CUI_statusLinePrintf.refreshCharIdx)
                  2000380b    00000001     main.o (.data.Main_assertReason)
                  2000380c    00000001     nvocmp.o (.data.NVOCMP_failF)
                  2000380d    00000001     maclib_secure_cc13x4_tirtos7.a : lmac_global.c.o (.data.bInSwi)
                  2000380e    00000001     rf_multiMode_cc13x4.a : rf_patch_cpe_multi_protocol.c.cc13x4.ticlang.o (.data.bMultiProtocolPatchEntered)
                  2000380f    00000001     maclib_secure_cc13x4_tirtos7.a : hmac_global.c.o (.data.csmPhy)
                  20003810    00000001                                    : mac.c.o (.data.customMinTxOffEnabled)
                  20003811    00000001                                    : mac_duty_cycle.c.o (.data.dcEnabled)
                  20003812    00000001     drivers_cc13x4.a : GPIOCC26X4.c.obj (.data.initCalled)
                  20003813    00000001                      : AESCCMCC26X4.c.obj (.data.isInitialized)
                  20003814    00000001                      : CryptoResourceCC26XX.c.obj (.data.isInitialized)
                  20003815    00000001                      : NVS.c.obj (.data.isInitialized)
                  20003816    00000001                      : PWM.c.obj (.data.isInitialized)
                  20003817    00000001     maclib_secure_cc13x4_tirtos7.a : lmac_global.c.o (.data.macRadioYielded)
                  20003818    00000001                                    : lmac_global.c.o (.data.macSrcMatchIsEnabled)
                  20003819    00000001                                    : mac_autopend.c.o (.data.macSrcMatchManualAddressTracking)
                  2000381a    00000001                                    : mac.c.o (.data.macTxCmdActive)
                  2000381b    00000001                                    : lmac_global.c.o (.data.macTxSlottedDelay)
                  2000381c    00000001                                    : mac_tx.c.o (.data.macTxSlottedDelayFactor)
                  2000381d    00000001                                    : mac_tx.c.o (.data.npdb)
                  2000381e    00000001                                    : mac_tx.c.o (.data.numTx)
                  2000381f    00000001                                    : mac.c.o (.data.reqAccessAlloc)

.ramVecs   0    20003900    000001fc     UNINITIALIZED
                  20003900    000000fc     driverlib.lib : interrupt.c.obj (.ramVecs)
                  200039fc    00000004     --HOLE--
                  20003a00    000000fc     ti_sysbios_config.o (.ramVecs)

.sysmem    0    20003afc    00000000     UNINITIALIZED

.nonretenvar 
*          0    20003afc    00000000     UNINITIALIZED

.stack     0    2003fc00    00000400     UNINITIALIZED
                  2003fc00    00000004     sysbios.a : boot_cortex_m.c.obj (.stack)
                  2003fc04    000003fc     --HOLE--

.ccfg      0    50000000    0000007c     
                  50000000    0000007c     ti_devices_config.o (.ccfg)

.text      0    0000003c    0001ad34     
                  0000003c    00000744     maclib_secure_cc13x4_tirtos7.a : mac_rx.c.o (.text.macRxFrameIsr)
                  00000780    00000594                                    : mac_radio_tx.c.o (.text.macRadioTxGo)
                  00000d14    00000538     nvocmp.o (.text.NVOCMP_compactPage)
                  0000124c    00000538     nvocmp.o (.text.NVOCMP_initNvApi)
                  00001784    00000480     rf_multiMode_cc13x4.a : RFCC26X2_multiMode.c.cc13x4.ticlang.o (.text.RF_fsmActiveState)
                  00001c04    000003dc     collector.o (.text.dataIndCB)
                  00001fe0    000003b8     api_mac.o (.text.ApiMac_processIncoming)
                  00002398    00000358     maclib_secure_cc13x4_tirtos7.a : mac_rx.c.o (.text.rxPayloadIsr)
                  000026f0    0000031c                                    : mac_hl_patch.c.o (.text.macWrapperAddDevice)
                  00002a0c    000002f4                                    : mac.c.o (.text.macRxCb)
                  00002d00    000002ec                                    : mac_mgmt.c.o (.text.macBuildHeader)
                  00002fec    000002e8                                    : mac_radio_tx.c.o (.text.macRadioCsmaTxCb)
                  000032d4    000002d4     cui.o (.text.CUI_processMenuUpdate)
                  000035a8    000002c0     collector.o (.text.Collector_process)
                  00003868    00000290     ti_sysbios_config.o (.text.ti_sysbios_runtime_System_doPrint)
                  00003af8    00000268     maclib_secure_cc13x4_tirtos7.a : mac_radio.c.o (.text.macRadioInitSubG)
                  00003d60    0000024c     rf_multiMode_cc13x4.a : RFCC26X2_multiMode.c.cc13x4.ticlang.o (.text.RF_open)
                  00003fac    00000240     macTask.o (.text.macTaskFxn)
                  000041ec    00000228     maclib_secure_cc13x4_tirtos7.a : mac_security_pib.c.o (.text.MAC_MlmeSetSecurityReq)
                  00004414    0000021c                                    : mac_radio_tx.c.o (.text.macRadioTxRequestTxAck)
                  00004630    00000214     csf.o (.text.setChMaskAction)
                  00004844    00000210     maclib_secure_cc13x4_tirtos7.a : mac.c.o (.text.macSendReceiveCmdSubG)
                  00004a54    000001fc     drivers_cc13x4.a : AESCCMCC26X4.c.obj (.text.AESCCM_addAADInternal)
                  00004c50    000001f4     nvocmp.o (.text.NVOCMP_addItem)
                  00004e44    000001f0     drivers_cc13x4.a : UART2CC26X2.c.obj (.text.UART2CC26X2_hwiIntFxn)
                  00005034    000001ec     maclib_secure_cc13x4_tirtos7.a : mac_hl_patch.c.o (.text.macTxCompleteCallback)
                  00005220    000001e8     rf_multiMode_cc13x4.a : RFCC26X2_multiMode.c.cc13x4.ticlang.o (.text.RF_scheduleCmd)
                  00005408    000001dc                           : RFCC26X2_multiMode.c.cc13x4.ticlang.o (.text.RF_dispatchNextCmd)
                  000055e4    000001d8     maclib_secure_cc13x4_tirtos7.a : mac_security_pib.c.o (.text.macSecurityPibReset)
                  000057bc    000001d4     drivers_cc13x4.a : UART2.c.obj (.text.UART2_readTimeout)
                  00005990    000001d4     mac_settings.o (.text.rfSetConfigSubG)
                  00005b64    000001d0     maclib_secure_cc13x4_tirtos7.a : mac.c.o (.text.macSendReceiveCmdIeee)
                  00005d34    000001bc                                    : mac_pib.c.o (.text.MAC_MlmeSetReq)
                  00005ef0    000001b4     csf.o (.text.setNwkKeyAction)
                  000060a4    000001ac     maclib_secure_cc13x4_tirtos7.a : mac_tx.c.o (.text.macTxFrame)
                  00006250    000001a0     cui.o (.text.CUI_registerMenu)
                  000063f0    00000198     nvocmp.o (.text.NVOCMP_findItem)
                  00006588    00000194     drivers_cc13x4.a : PowerCC26X2_calibrateRCOSC.c.obj (.text.PowerCC26X2_auxISR)
                  0000671c    00000194     maclib_secure_cc13x4_tirtos7.a : mac_hl_patch.c.o (.text.macWrapperAddKeyInitFCtr)
                  000068b0    00000188                                    : mac_security_pib.c.o (.text.MAC_MlmeGetSecurityReq)
                  00006a38    00000184     drivers_cc13x4.a : UART2CC26X2.c.obj (.text.UART2_open)
                  00006bbc    00000184     maclib_secure_cc13x4_tirtos7.a : mac_hl_patch.c.o (.text.macIncomingFrameSecurityMaterialRetrieval)
                  00006d40    00000174     drivers_cc13x4.a : UART2.c.obj (.text.UART2_writeTimeoutBlocking)
                  00006eb4    00000168     maclib_secure_cc13x4_tirtos7.a : mac_mgmt.c.o (.text.macBuildCommonReq)
                  0000701c    00000160                                    : mac_hl_patch.c.o (.text.MAC_McpsDataReq)
                  0000717c    00000160                                    : mac_scan.c.o (.text.macApiScanReq)
                  000072dc    00000160                                    : mac_tx.c.o (.text.txCsmaDelay)
                  0000743c    0000014c     rf_multiMode_cc13x4.a : RFCC26X2_multiMode.c.cc13x4.ticlang.o (.text.RF_radioOpDoneCb)
                  00007588    0000014c     collector.o (.text.dataCnfCB)
                  000076d4    0000014c     csf.o (.text.setPanIdAction)
                  00007820    00000148     drivers_cc13x4.a : PowerCC26X2.c.obj (.text.Power_sleep)
                  00007968    00000148     maclib_secure_cc13x4_tirtos7.a : mac_data.c.o (.text.macDataTxSend)
                  00007ab0    00000144     rf_multiMode_cc13x4.a : RFCC26X2_multiMode.c.cc13x4.ticlang.o (.text.RF_updatePaConfiguration)
                  00007bf4    00000144     maclib_secure_cc13x4_tirtos7.a : mac_hl_patch.c.o (.text.macIncomingFrameSecurity)
                  00007d38    00000140                                    : mac_radio_tx.c.o (.text.macRadioLbtTxCb)
                  00007e78    0000013c     cui.o (.text.CUI_init)
                  00007fb4    0000013c     rf_multiMode_cc13x4.a : RFCC26X2_multiMode.c.cc13x4.ticlang.o (.text.RF_abortCmd)
                  000080f0    00000138     libc.a : strtol.c.obj (.text.strtol)
                  00008228    00000134     rf_multiMode_cc13x4.a : RFCC26X2_multiMode.c.cc13x4.ticlang.o (.text.RF_ratSetupChannel)
                  0000835c    00000130     drivers_cc13x4.a : AESCCMCC26X4.c.obj (.text.AESCCM_addDataInternal)
                  0000848c    00000130     csf.o (.text.Csf_processEvents)
                  000085bc    0000012c     rf_multiMode_cc13x4.a : RFCC26X2_multiMode.c.cc13x4.ticlang.o (.text.RF_close)
                  000086e8    0000012c     maclib_secure_cc13x4_tirtos7.a : mac_hl_patch.c.o (.text.macRxBeaconCritical)
                  00008814    0000012c     ti_sysbios_config.o (.text.ti_sysbios_family_arm_v8m_cc26x4_Timer_construct)
                  00008940    00000128     drivers_cc13x4.a : Button.c.obj (.text.Button_clockTimeoutHandler)
                  00008a68    00000128     cui.o (.text.CUI_statusLinePrintf)
                  00008b90    00000128     maclib_secure_cc13x4_tirtos7.a : mac_data.c.o (.text.macAllocTxBuffer)
                  00008cb8    00000128                                    : mac_coord.c.o (.text.macBuildBeacon)
                  00008de0    00000128                                    : mac_hl_patch.c.o (.text.macWrapperDeleteDevice)
                  00008f08    00000124     cui.o (.text.CUI_dispMenu)
                  0000902c    00000124     rf_multiMode_cc13x4.a : RFCC26X2_multiMode.c.cc13x4.ticlang.o (.text.RF_fsmSetupState)
                  00009150    00000124     drivers_cc13x4.a : TRNGCC26XX.c.obj (.text.TRNGCC26XX_hwiFxn)
                  00009274    00000124     maclib_secure_cc13x4_tirtos7.a : mac_radio.c.o (.text.macRadioInitIeee)
                  00009398    00000120     csf.o (.text.sensorSelectAction)
                  000094b8    0000011c     drivers_cc13x4.a : NVSCC26XX.c.obj (.text.NVSCC26XX_write)
                  000095d4    00000118                      : PowerCC26X2.c.obj (.text.Power_init)
                  000096ec    00000118     rf_multiMode_cc13x4.a : RFCC26X2_multiMode.c.cc13x4.ticlang.o (.text.RF_decodeOverridePointers)
                  00009804    00000118     drivers_cc13x4.a : UART2.c.obj (.text.UART2_writeTimeoutNonblocking)
                  0000991c    00000114     driverlib.lib : setup_rom.c.obj (.text.NOROM_SetupAfterColdResetWakeupFromShutDownCfg3)
                  00009a30    00000114     csf.o (.text.sensorSetReportInterval)
                  00009b44    00000114     maclib_secure_cc13x4_tirtos7.a : mac_tx.c.o (.text.txComplete)
                  00009c58    00000110     csf.o (.text.Csf_init)
                  00009d68    00000110     drivers_cc13x4.a : GPIOCC26X4.c.obj (.text.GPIO_init)
                  00009e78    00000110                      : LED.c.obj (.text.LED_open)
                  00009f88    00000110     maclib_secure_cc13x4_tirtos7.a : mac_ie_build.c.o (.text.macBuildPayloadIes)
                  0000a098    0000010c     cllc.o (.text.Cllc_process)
                  0000a1a4    0000010c     driverlib.lib : setup_rom.c.obj (.text.NOROM_SetupAfterColdResetWakeupFromShutDownCfg2)
                  0000a2b0    0000010c     drivers_cc13x4.a : PowerCC26X2_calibrateRCOSC.c.obj (.text.PowerCC26X2_calibrate)
                  0000a3bc    00000108                      : AESCCMCC26X4.c.obj (.text.AESCCM_getResult)
                  0000a4c4    00000108     nvocmp.o (.text.NVOCMP_cleanPage)
                  0000a5cc    00000108     maclib_secure_cc13x4_tirtos7.a : mac_coord.c.o (.text.macBuildAssociateRsp)
                  0000a6d4    00000108                                    : mac_hl_patch.c.o (.text.macBuildDataFrame)
                  0000a7dc    00000104     macTask.o (.text.MAC_CbackEvent)
                  0000a8e0    00000104     sysbios.a : Hwi_asm_gcc.s.obj (.text.ti_sysbios_family_arm_v8m_Hwi_dispatch)
                  0000a9e4    00000100     driverlib.lib : setup.c.obj (.text.NOROM_SetupTrimDevice)
                  0000aae4    00000100     rf_multiMode_cc13x4.a : RFCC26X2_multiMode.c.cc13x4.ticlang.o (.text.RF_fsmPowerUpState)
                  0000abe4    00000100     maclib_secure_cc13x4_tirtos7.a : mac_duty_cycle.c.o (.text.macDutyCycleInit)
                  0000ace4    00000100                                    : mac_data.c.o (.text.macRxCompleteCallback)
                  0000ade4    00000100                                    : mac_hl_patch.c.o (.text.macScanNextChan)
                  0000aee4    000000fc     rf_multiMode_cc13x4.a : RFCC26X2_multiMode.c.cc13x4.ticlang.o (.text.RF_hwiCpe0Active)
                  0000afe0    000000f4     cui.o (.text.CUI_statusLineResourceRequest)
                  0000b0d4    000000f4     drivers_cc13x4.a : TRNGCC26XX.c.obj (.text.TRNG_getRandom)
                  0000b1c8    000000f4     maclib_secure_cc13x4_tirtos7.a : mac_mgmt.c.o (.text.macSetDefaultsByPhyID)
                  0000b2bc    000000f4                                    : mac_coord.c.o (.text.macStartBegin)
                  0000b3b0    000000f0     drivers_cc13x4.a : UART2CC26X2.c.obj (.text.UART2Support_dmaStartRx)
                  0000b4a0    000000ec     maclib_secure_cc13x4_tirtos7.a : mac.c.o (.text.macSetupRATChanCompare)
                  0000b58c    000000e8     ti_sysbios_config.o (.text.ti_sysbios_knl_Semaphore_pend)
                  0000b674    000000e4     drivers_cc13x4.a : AESCCMCC26X4.c.obj (.text.AESCCM_startOperation)
                  0000b758    000000e4                      : Button.c.obj (.text.Button_open)
                  0000b83c    000000e4     maclib_secure_cc13x4_tirtos7.a : mac_tx.c.o (.text.macTxChannelBusyCallback)
                  0000b920    000000e0     driverlib.lib : sys_ctrl.c.obj (.text.NOROM_SysCtrlStandby)
                  0000ba00    000000e0     drivers_cc13x4.a : UART2CC26X2.c.obj (.text.UART2CC26X2_initHw)
                  0000bae0    000000e0     maclib_secure_cc13x4_tirtos7.a : mac_coord.c.o (.text.macIndirectExpire)
                  0000bbc0    000000e0                                    : mac_hl_patch.c.o (.text.macOutgoingFrameKeyDescRetrieval)
                  0000bca0    000000e0                                    : mac_tx.c.o (.text.txCsmaPrep)
                  0000bd80    000000dc     rf_multiMode_cc13x4.a : RFCC26X2_multiMode.c.cc13x4.ticlang.o (.text.RF_control)
                  0000be5c    000000dc     maclib_secure_cc13x4_tirtos7.a : mac_mgmt.c.o (.text.macBuildDisassociateReq)
                  0000bf38    000000dc     ti_sysbios_config.o (.text.pthread_create)
                  0000c014    000000d8     maclib_secure_cc13x4_tirtos7.a : mac_hl_patch.c.o (.text.macCcmStarTransform)
                  0000c0ec    000000d8                                    : mac_scan.c.o (.text.macScanRxBeacon)
                  0000c1c4    000000d4     csf.o (.text.Csf_deviceUpdate)
                  0000c298    000000d4     maclib_secure_cc13x4_tirtos7.a : mac_data.c.o (.text.MAC_McpsDataAlloc)
                  0000c36c    000000d0     drivers_cc13x4.a : PowerCC26X2.c.obj (.text.configureXOSCHF)
                  0000c43c    000000d0     maclib_secure_cc13x4_tirtos7.a : mac_hl_patch.c.o (.text.macEdScanISR)
                  0000c50c    000000d0                                    : mac_radio_tx.c.o (.text.macRadioTxAckCb)
                  0000c5dc    000000d0                                    : mac_radio_tx.c.o (.text.macRadioTxPrepCsmaSlottedSubG)
                  0000c6ac    000000d0                                    : mac_symbol_timer.c.o (.text.macSymbolTimerUpdateWakeup)
                  0000c77c    000000cc     cllc.o (.text.Cllc_restoreNetwork)
                  0000c848    000000cc     collector.o (.text.Collector_sendConfigRequest)
                  0000c914    000000cc     maclib_secure_cc13x4_tirtos7.a : mac_mgmt.c.o (.text.macCommStatusInd)
                  0000c9e0    000000cc     collector.o (.text.sendMsg)
                  0000caac    000000c8     maclib_secure_cc13x4_tirtos7.a : mac_hl_patch.c.o (.text.macOutgoingFrameSecurity)
                  0000cb74    000000c8                                    : mac_main.c.o (.text.macSendDataMsg)
                  0000cc3c    000000c4                                    : mac_hl_patch.c.o (.text.macBuildHeaderIes)
                  0000cd00    000000c4                                    : mac_duty_cycle.c.o (.text.macDutyCycleNotify)
                  0000cdc4    000000c0     drivers_cc13x4.a : GPIOCC26XX.c.obj (.text.GPIO_setConfigAndMux)
                  0000ce84    000000c0     driverlib.lib : aes.c.obj (.text.NOROM_AESWriteToKeyStore)
                  0000cf44    000000c0     maclib_secure_cc13x4_tirtos7.a : mac_tx.c.o (.text.macTxRequestCsmaRtcDelay)
                  0000d004    000000c0                                    : mac_radio.c.o (.text.scheduleNopWakeupCmd)
                  0000d0c4    000000c0     csf.o (.text.updateCollectorStatusLine)
                  0000d184    000000bc     api_mac.o (.text.ApiMac_mlmeSetReqArray)
                  0000d240    000000bc     collector.o (.text.Collector_init)
                  0000d2fc    000000bc     drivers_cc13x4.a : PowerCC26X2.c.obj (.text.Power_setDependency)
                  0000d3b8    000000bc     rf_multiMode_cc13x4.a : RFCC26X2_multiMode.c.cc13x4.ticlang.o (.text.RF_swiHw)
                  0000d474    000000bc     drivers_cc13x4.a : UART2CC26X2.c.obj (.text.UART2Support_dmaStartTx)
                  0000d530    000000b8     maclib_secure_cc13x4_tirtos7.a : mac_mgmt.c.o (.text.MAC_MlmeResetReq)
                  0000d5e8    000000b8     cllc.o (.text.assocIndCb)
                  0000d6a0    000000b8     maclib_secure_cc13x4_tirtos7.a : mac_coord.c.o (.text.macStartSetParams)
                  0000d758    000000b8                                    : mac_tx.c.o (.text.macTxRequestCsmaDelay)
                  0000d810    000000b8     ti_sysbios_config.o (.text.ti_sysbios_knl_Task_Instance_finalize)
                  0000d8c8    000000b4     drivers_cc13x4.a : PowerCC26X2.c.obj (.text.Power_releaseDependency)
                  0000d97c    000000b4     maclib_secure_cc13x4_tirtos7.a : mac.c.o (.text.macGetRFCmdDuration)
                  0000da30    000000b4     ti_sysbios_config.o (.text.ti_sysbios_knl_Task_setPri)
                  0000dae4    000000b2     api_mac.o (.text.copyDataInd)
                  0000db96    00000002     ti_sysbios_config.o (.text.BIOS_nullFunc)
                  0000db98    000000b0     maclib_secure_cc13x4_tirtos7.a : mac_data.c.o (.text.macApiDataReq)
                  0000dc48    000000b0                                    : mac_mgmt.c.o (.text.macBuildBeaconNotifyInd)
                  0000dcf8    000000b0                                    : mac_ie_build.c.o (.text.macBuildPayloadCoexistIe)
                  0000dda8    000000b0     libclang_rt.builtins.a : udivmoddi4.S.obj (.text)
                  0000de58    000000ac     csf.o (.text.Csf_deviceSensorDataUpdate)
                  0000df04    000000ac     ti_sysbios_config.o (.text.PowerCC26XX_standbyPolicy)
                  0000dfb0    000000ac     rf_multiMode_cc13x4.a : RFCC26X2_multiMode.c.cc13x4.ticlang.o (.text.RF_pendCmd)
                  0000e05c    000000ac     maclib_secure_cc13x4_tirtos7.a : mac_hl_patch.c.o (.text.macAutoPendMaintainSrcMatchTable)
                  0000e108    000000ac                                    : mac_data.c.o (.text.macDataTxEnqueue)
                  0000e1b4    000000a8     drivers_cc13x4.a : AESCCMCC26X4.c.obj (.text.AESCCM_hwiFxn)
                  0000e25c    000000a8     maclib_secure_cc13x4_tirtos7.a : mac_hl_patch.c.o (.text.macApiStartReq)
                  0000e304    000000a8                                    : mac_coord.c.o (.text.macCoordReset)
                  0000e3ac    000000a8                                    : mac_rx.c.o (.text.macRxInit)
                  0000e454    000000a8                                    : mac_tx.c.o (.text.macTxStartQueuedFrame)
                  0000e4fc    000000a4                                    : mac_autopend.c.o (.text.MAC_SrcMatchAddEntry)
                  0000e5a0    000000a4     maclib_osal_tirtos7_cc13x4_26x4.a : osal_port.c.o (.text.OsalPort_heapMalloc)
                  0000e644    000000a4     rf_multiMode_cc13x4.a : RFCC26X2_multiMode.c.cc13x4.ticlang.o (.text.RF_initRadioSetup)
                  0000e6e8    000000a4     maclib_secure_cc13x4_tirtos7.a : mac_hl_patch.c.o (.text.macDataTxComplete)
                  0000e78c    000000a4                                    : mac_hl_patch.c.o (.text.macMgmtReset)
                  0000e830    000000a4     ti_sysbios_config.o (.text.ti_sysbios_knl_Task_Instance_init)
                  0000e8d4    000000a0     nvocmp.o (.text.NVOCMP_readContItemApi)
                  0000e974    000000a0     rf_multiMode_cc13x4.a : RFCC26X2_multiMode.c.cc13x4.ticlang.o (.text.RF_calculateDispatchTime)
                  0000ea14    000000a0                           : RFCC26X2_multiMode.c.cc13x4.ticlang.o (.text.RF_requestAccess)
                  0000eab4    000000a0     maclib_secure_cc13x4_tirtos7.a : mac_hl_patch.c.o (.text.macAutoPendAddSrcMatchTableEntry)
                  0000eb54    000000a0                                    : mac_coord.c.o (.text.macBuildPendAddr)
                  0000ebf4    000000a0                                    : mac_hl_patch.c.o (.text.macCbackForEvent)
                  0000ec94    0000009c     driverlib.lib : setup.c.obj (.text.TrimAfterColdResetWakeupFromShutDown)
                  0000ed30    0000009c     maclib_secure_cc13x4_tirtos7.a : mac_mgmt.c.o (.text.macBuildWSAsyncReq)
                  0000edcc    0000009c                                    : mac_symbol_timer.c.o (.text.macSymbolTimerInit)
                  0000ee68    0000009c     ti_sysbios_config.o (.text.ti_sysbios_knl_Clock_workFuncDynamic)
                  0000ef04    0000009a     drivers_cc13x4.a : UART2.c.obj (.text.UART2_writeCancel)
                  0000ef9e    00000002     ti_drivers_config.o (.text.Board_initHook)
                  0000efa0    00000098     nvocmp.o (.text.NVOCMP_erase)
                  0000f038    00000098     rf_multiMode_cc13x4.a : RFCC26X2_multiMode.c.cc13x4.ticlang.o (.text.RF_defaultSubmitPolicy)
                  0000f0d0    00000098     maclib_secure_cc13x4_tirtos7.a : mac_hl_patch.c.o (.text.macIncomingSecurityLevelChecking)
                  0000f168    00000098                                    : mac_mgmt.c.o (.text.macRxBeacon)
                  0000f200    00000098                                    : mac_timer.c.o (.text.macSymbolTimerTriggerCallback)
                  0000f298    00000096     rf_multiMode_cc13x4.a : RFCC26X2_multiMode.c.cc13x4.ticlang.o (.text.RF_verifyGap)
                  0000f32e    00000002     csf.o (.text.Csf_toggleResponseReceived)
                  0000f330    00000094     maclib_secure_cc13x4_tirtos7.a : mac_hl_patch.c.o (.text.MAC_MlmeScanReq)
                  0000f3c4    00000094     rf_multiMode_cc13x4.a : RFCC26X2_multiMode.c.cc13x4.ticlang.o (.text.RF_ratRestartChannels)
                  0000f458    00000094     maclib_secure_cc13x4_tirtos7.a : mac_coord.c.o (.text.macApiPurgeReq)
                  0000f4ec    00000094                                    : mac_coord.c.o (.text.macBuildRealign)
                  0000f580    00000090     nvocmp.o (.text.NVOCMP_getDstPage)
                  0000f610    00000090     rf_multiMode_cc13x4.a : RFCC26X2_multiMode.c.cc13x4.ticlang.o (.text.RF_getTxPower)
                  0000f6a0    00000090     drivers_cc13x4.a : UART2CC26X2.c.obj (.text.UART2_close)
                  0000f730    00000090     maclib_secure_cc13x4_tirtos7.a : mac_coord.c.o (.text.macIndirectSend)
                  0000f7c0    00000090                                    : mac_autopend.c.o (.text.macSrcMatchCheckSrcAddr)
                  0000f850    00000090                                    : mac.c.o (.text.macStopCmd)
                  0000f8e0    00000090     cllc.o (.text.scanCnfCb)
                  0000f970    0000008c     nvocmp.o (.text.NVOCMP_updateItemApi)
                  0000f9fc    0000008c     drivers_cc13x4.a : TRNGCC26XX.c.obj (.text.TRNG_construct)
                  0000fa88    0000008c                      : NVSCC26XX.c.obj (.text.doErase)
                  0000fb14    0000008c     maclib_secure_cc13x4_tirtos7.a : mac_radio_tx.c.o (.text.macRadioFHEncryptFrame)
                  0000fba0    0000008c     ti_sysbios_config.o (.text.ti_sysbios_knl_Clock_init)
                  0000fc2c    00000088     cllc.o (.text.Cllc_init)
                  0000fcb4    00000088     csf.o (.text.Csf_getDeviceItem)
                  0000fd3c    00000088     nvocmp.o (.text.NVOCMP_deleteItemApi)
                  0000fdc4    00000088     rf_multiMode_cc13x4.a : RFCC26X2_multiMode.c.cc13x4.ticlang.o (.text.RF_cmdDispatchTime)
                  0000fe4c    00000088                           : RFCC26X2_multiMode.c.cc13x4.ticlang.o (.text.RF_discardPendCmd)
                  0000fed4    00000088     maclib_secure_cc13x4_tirtos7.a : mac_hl_patch.c.o (.text.macCcmDecrypt)
                  0000ff5c    00000088                                    : mac_hl_patch.c.o (.text.macCcmStarInverseTransform)
                  0000ffe4    00000088                                    : mac_radio_tx.c.o (.text.macRadioSendImmAck)
                  0001006c    00000088                                    : mac_radio.c.o (.text.macRadioUpdateChannel)
                  000100f4    00000084     cui.o (.text.CUI_clientOpen)
                  00010178    00000084     maclib_secure_cc13x4_tirtos7.a : mac_coord.c.o (.text.MAC_InitCoord)
                  000101fc    00000084     rf_multiMode_cc13x4.a : RFCC26X2_multiMode.c.cc13x4.ticlang.o (.text.RF_getInfo)
                  00010280    00000084                           : RFCC26X2_multiMode.c.cc13x4.ticlang.o (.text.RF_yield)
                  00010304    00000084     maclib_secure_cc13x4_tirtos7.a : mac_hl_patch.c.o (.text.macBlacklistChecking)
                  00010388    00000084                                    : mac_hl_patch.c.o (.text.macCcmEncrypt)
                  0001040c    00000084     macTask.o (.text.macTaskInit)
                  00010490    00000084     main.o (.text.main)
                  00010514    00000084     ti_sysbios_config.o (.text.ti_sysbios_family_arm_v8m_Hwi_initNVIC)
                  00010598    00000080     drivers_cc13x4.a : GPIOCC26X4.c.obj (.text.GPIO_hwiIntFxn)
                  00010618    00000080     nvocmp.o (.text.NVOCMP_createItemApi)
                  00010698    00000080     nvocmp.o (.text.NVOCMP_getFreeNvApi)
                  00010718    00000080     maclib_osal_tirtos7_cc13x4_26x4.a : osal_port.c.o (.text.OsalPort_setTimer)
                  00010798    00000080     maclib_secure_cc13x4_tirtos7.a : mac_data.c.o (.text.macFrameDurationSubG)
                  00010818    00000080                                    : mac_coord.c.o (.text.macRxDataReq)
                  00010898    00000080                                    : mac_tx.c.o (.text.macTxDoneCallback)
                  00010918    00000080     ti_sysbios_config.o (.text.ti_sysbios_family_arm_v8m_Hwi_postInit)
                  00010998    00000080     ti_sysbios_config.o (.text.ti_sysbios_gates_GateMutexPri_enter)
                  00010a18    0000007e     nvocmp.o (.text.NVOCMP_readHeader)
                  00010a96    00000002     rf_multiMode_cc13x4.a : rfc.c.cc13x4.ticlang.o (.text.NOROM_RFCCpePatchReset)
                  00010a98    0000007c     cllc.o (.text.Cllc_securityInit)
                  00010b14    0000007c     driverlib.lib : setup_rom.c.obj (.text.NOROM_SetupStepVddrTrimTo)
                  00010b90    0000007c     rf_multiMode_cc13x4.a : RFCC26X2_multiMode.c.cc13x4.ticlang.o (.text.RF_ratDisableChannel)
                  00010c0c    0000007c     maclib_secure_cc13x4_tirtos7.a : mac_mcu.c.o (.text.macMcuOverflowSetPeriod)
                  00010c88    0000007c                                    : mac_pwr.c.o (.text.macPwrVote)
                  00010d04    0000007c                                    : mac.c.o (.text.macSetupReceiveCmd)
                  00010d80    0000007c     cllc.o (.text.maintainAssocTable)
                  00010dfc    00000078     csf.o (.text.Csf_getDeviceExtAdd)
                  00010e74    00000078     driverlib.lib : chipinfo.c.obj (.text.NOROM_ChipInfo_GetChipType)
                  00010eec    00000078     nvocmp.o (.text.NVOCMP_checkItem)
                  00010f64    00000078     nvocmp.o (.text.NVOCMP_loadApiPtrs)
                  00010fdc    00000078     drivers_cc13x4.a : NVSCC26XX.c.obj (.text.NVSCC26XX_open)
                  00011054    00000078     rf_multiMode_cc13x4.a : RFCC26X2_multiMode.c.cc13x4.ticlang.o (.text.RF_ratFreeChannel)
                  000110cc    00000078     ti_sysbios_config.o (.text._pthread_removeThreadKeys)
                  00011144    00000078     maclib_secure_cc13x4_tirtos7.a : mac.c.o (.text.macRequestBackoff)
                  000111bc    00000078     cllc.o (.text.sendScanReq)
                  00011234    00000078     ti_sysbios_config.o (.text.ti_sysbios_knl_Task_postInit)
                  000112ac    00000076     drivers_cc13x4.a : UART2CC26X2.c.obj (.text.UART2Support_dmaStopTx)
                  00011322    00000002     rf_multiMode_cc13x4.a : RFCC26X2_multiMode.c.cc13x4.ticlang.o (.text.RF_defaultCallback)
                  00011324    00000074     csf.o (.text.Csf_sendDisassociateMsg)
                  00011398    00000074     maclib_osal_tirtos7_cc13x4_26x4.a : osal_port.c.o (.text.OsalPort_heapInit)
                  0001140c    00000074     rf_multiMode_cc13x4.a : RFCC26X2_multiMode.c.cc13x4.ticlang.o (.text.RF_hwiHw)
                  00011480    00000074     ti_sysbios_config.o (.text.acquireMutex)
                  000114f4    00000074     maclib_secure_cc13x4_tirtos7.a : mac_hl_patch.c.o (.text.macKeyDescriptorLookup)
                  00011568    00000074                                    : mac_mcu.c.o (.text.macMcuOverflowSetCompare)
                  000115dc    00000074                                    : mac_radio_tx.c.o (.text.macRadioTxEnhAckCb)
                  00011650    00000074                                    : mac_ie_parse.c.o (.text.macUpdateHeaderIEPtr)
                  000116c4    00000074     ti_sysbios_config.o (.text.ti_sysbios_family_arm_v8m_Hwi_Instance_init)
                  00011738    00000074     ti_sysbios_config.o (.text.ti_sysbios_knl_Swi_restoreHwi)
                  000117ac    00000072     drivers_cc13x4.a : LED.c.obj (.text.LED_startBlinking)
                  0001181e    00000002                      : UART2CC26X2.c.obj (.text.UART2CC26X2_eventCallback)
                  00011820    00000070                      : AESCCMCC26X4.c.obj (.text.AESCCM_waitForResult)
                  00011890    00000070     api_mac.o (.text.ApiMac_init)
                  00011900    00000070     csf.o (.text.Csf_updateFrameCounter)
                  00011970    00000070     driverlib.lib : interrupt.c.obj (.text.NOROM_IntDisable)
                  000119e0    00000070     nvocmp.o (.text.NVOCMP_readItemApi)
                  00011a50    00000070     maclib_osal_tirtos7_cc13x4_26x4.a : osal_port.c.o (.text.OsalPort_pwrmgrTaskState)
                  00011ac0    00000070     maclib_secure_cc13x4_tirtos7.a : mac_duty_cycle.c.o (.text.macDutyCycleTimerCB)
                  00011b30    00000070                                    : mac_radio.c.o (.text.macRadioStartScan)
                  00011ba0    00000070                                    : mac_timer.c.o (.text.macTimerUpdateSymbolTimer)
                  00011c10    00000070     ti_sysbios_config.o (.text.ti_sysbios_knl_Task_startup)
                  00011c80    00000070     ti_sysbios_config.o (.text.ti_sysbios_runtime_System_formatNum)
                  00011cf0    00000070     libc.a : copy_decompress_lzss.c.obj (.text:decompress:lzss)
                  00011d60    0000006c     drivers_cc13x4.a : AESCCMCC26X4.c.obj (.text.AESCCM_construct)
                  00011dcc    0000006c     csf.o (.text.Csf_clearAllNVItems)
                  00011e38    0000006c     csf.o (.text.Csf_getDevice)
                  00011ea4    0000006c     driverlib.lib : interrupt.c.obj (.text.NOROM_IntEnable)
                  00011f10    0000006c                   : sys_ctrl.c.obj (.text.NOROM_SysCtrl_DCDC_VoltageConditionalControl)
                  00011f7c    0000006c     nvocmp.o (.text.NVOCMP_eraseNvApi)
                  00011fe8    0000006c     nvocmp.o (.text.NVOCMP_writeItemApi)
                  00012054    0000006c     rf_multiMode_cc13x4.a : RFCC26X2_multiMode.c.cc13x4.ticlang.o (.text.RF_issueRadioFreeCb)
                  000120c0    0000006c     drivers_cc13x4.a : Random.c.obj (.text.Random_seedAutomatic)
                  0001212c    0000006c     cllc.o (.text.beaconNotifyIndCb)
                  00012198    0000006c     rf_multiMode_cc13x4.a : rf_patch_cpe_multi_protocol.c.cc13x4.ticlang.o (.text.configureMultiProtocolPatch)
                  00012204    0000006c     maclib_secure_cc13x4_tirtos7.a : mac_mgmt.c.o (.text.macApiDisassociateReq)
                  00012270    0000006c                                    : mac_rx_onoff.c.o (.text.macRxOffRequest)
                  000122dc    0000006c                                    : mac.c.o (.text.macSetupFsCmd)
                  00012348    0000006c     cllc.o (.text.orphanIndCb)
                  000123b4    0000006c     drivers_cc13x4.a : PowerCC26X2.c.obj (.text.oscillatorISR)
                  00012420    0000006c     ti_sysbios_config.o (.text.ti_sysbios_family_arm_v8m_Hwi_dispatchC)
                  0001248c    0000006c     ti_sysbios_config.o (.text.ti_sysbios_knl_TaskSupport_buildTaskStack)
                  000124f8    00000068     drivers_cc13x4.a : PowerCC26X2_calibrateRCOSC_helpers.c.obj (.text.PowerCC26X2_updateSubSecInc)
                  00012560    00000068     rf_multiMode_cc13x4.a : RFCC26X2_multiMode.c.cc13x4.ticlang.o (.text.RF_detachOverrides)
                  000125c8    00000068     main.o (.text.appTaskFxn)
                  00012630    00000068     maclib_secure_cc13x4_tirtos7.a : mac_mgmt.c.o (.text.macDisassocComplete)
                  00012698    00000068                                    : mac_radio.c.o (.text.macRadioPowerDown)
                  00012700    00000068                                    : mac_scan.c.o (.text.macScanStartTimer)
                  00012768    00000068                                    : mac_timer.c.o (.text.macTimerSetRollover)
                  000127d0    00000068                                    : mac_tx.c.o (.text.macTxGetDefaultMinTxOffTime)
                  00012838    00000068     ti_sysbios_config.o (.text.ti_sysbios_knl_Clock_startI)
                  000128a0    00000068     ti_sysbios_config.o (.text.ti_sysbios_knl_Swi_run)
                  00012908    00000064     maclib_secure_cc13x4_tirtos7.a : mac_mgmt.c.o (.text.MAC_Init)
                  0001296c    00000064     maclib_osal_tirtos7_cc13x4_26x4.a : osal_port.c.o (.text.OsalPort_clearEvent)
                  000129d0    00000064     drivers_cc13x4.a : PowerCC26X2_calibrateRCOSC.c.obj (.text.PowerCC26X2_initiateCalibration)
                  00012a34    00000064     rf_multiMode_cc13x4.a : RFCC26X2_multiMode.c.cc13x4.ticlang.o (.text.RF_attachOverrides)
                  00012a98    00000064                           : RFCC26X2_multiMode.c.cc13x4.ticlang.o (.text.RF_dispatchNextEvent)
                  00012afc    00000064                           : RFCC26X2_multiMode.c.cc13x4.ticlang.o (.text.RF_hwiCpe0PowerFsm)
                  00012b60    00000064     drivers_cc13x4.a : UDMACC26XX.c.obj (.text.UDMACC26XX_open)
                  00012bc4    00000064     maclib_secure_cc13x4_tirtos7.a : mac_low_level.c.o (.text.macLowLevelInit)
                  00012c28    00000064                                    : mac_mcu.c.o (.text.macMcuInit)
                  00012c8c    00000064                                    : mac_radio_tx.c.o (.text.macRadioTxPrepLbt)
                  00012cf0    00000064                                    : mac_rx.c.o (.text.macRxHaltCleanup)
                  00012d54    00000064                                    : mac_timer.c.o (.text.macTimerRealign)
                  00012db8    00000064     ti_sysbios_config.o (.text.ti_sysbios_gates_GateMutexPri_leave)
                  00012e1c    00000064     ti_sysbios_config.o (.text.ti_sysbios_knl_Idle_init)
                  00012e80    00000062     rf_multiMode_cc13x4.a : RFCC26X2_multiMode.c.cc13x4.ticlang.o (.text.RF_syncCb)
                  00012ee2    00000002     libclang_rt.builtins.a : aeabi_div0.c.obj (.text.__aeabi_ldiv0)
                  00012ee4    00000060     drivers_cc13x4.a : CryptoResourceCC26XX.c.obj (.text.CryptoResourceCC26XX_constructRTOSObjects)
                  00012f44    00000060     driverlib.lib : setup_rom.c.obj (.text.NOROM_SetupAfterColdResetWakeupFromShutDownCfg1)
                  00012fa4    00000060     nvocmp.o (.text.NVOCMP_verifyCRC)
                  00013004    00000060     maclib_osal_tirtos7_cc13x4_26x4.a : osal_port.c.o (.text.OsalPort_setEvent)
                  00013064    00000060     csf.o (.text.findDeviceListIndex)
                  000130c4    00000060     maclib_secure_cc13x4_tirtos7.a : mac_beacon_device.c.o (.text.macBeaconSyncLoss)
                  00013124    00000060                                    : mac_data.c.o (.text.macDataReset)
                  00013184    00000060                                    : mac_main.c.o (.text.macExecute)
                  000131e4    00000060                                    : mac_scan.c.o (.text.macScanComplete)
                  00013244    00000060                                    : mac_main.c.o (.text.macSendMsg)
                  000132a4    00000060                                    : mac_symbol_timer.c.o (.text.macSymbolTimerPeriodIsr)
                  00013304    00000060                                    : mac_hl_patch.c.o (.text.macTrackPeriodCallback)
                  00013364    00000060     ti_sysbios_config.o (.text.pthread_exit)
                  000133c4    00000060     ti_sysbios_config.o (.text.ti_sysbios_knl_Clock_walkQueueDynamic)
                  00013424    00000060     ti_sysbios_config.o (.text.ti_sysbios_knl_Semaphore_post)
                  00013484    00000060     ti_sysbios_config.o (.text.ti_sysbios_knl_Swi_schedule)
                  000134e4    0000005e     rf_multiMode_cc13x4.a : rfc.c.cc13x4.ticlang.o (.text.NOROM_RFCAnaDivTxOverride)
                  00013542    0000005e     drivers_cc13x4.a : UART2CC26X2.c.obj (.text.UART2Support_dmaStopRx)
                  000135a0    0000005c     maclib_secure_cc13x4_tirtos7.a : mac_hl_patch.c.o (.text.MAC_ResumeReq)
                  000135fc    0000005c     driverlib.lib : setup_rom.c.obj (.text.NOROM_SetupGetTrimForAmpcompCtrl)
                  00013658    0000005c     maclib_osal_tirtos7_cc13x4_26x4.a : osal_port.c.o (.text.OsalPort_msgReceive)
                  000136b4    0000005c     maclib_secure_cc13x4_tirtos7.a : mac_mgmt.c.o (.text.macBuildWSAsyncMsg)
                  00013710    0000005c                                    : mac_sleep.c.o (.text.macCanSleep)
                  0001376c    0000005c                                    : mac_coord.c.o (.text.macIndirectTxFrame)
                  000137c8    0000005c                                    : mac_mgmt.c.o (.text.macRxDisassoc)
                  00013824    0000005c                                    : mac_ie_parse.c.o (.text.macUpdatePayloadIEPtr)
                  00013880    0000005c     collector.o (.text.processDataRetry)
                  000138dc    0000005c     sysbios.a : Hwi_asm_switch_gcc.s.obj (.text.ti_sysbios_family_arm_v8m_Hwi_initStacks)
                  00013938    00000058     drivers_cc13x4.a : Button.c.obj (.text.Button_gpioCallbackFxn)
                  00013990    00000058     cui.o (.text.CUI_writeString)
                  000139e8    00000058     cllc.o (.text.Cllc_removeDevice)
                  00013a40    00000058     csf.o (.text.Csf_getFrameCounter)
                  00013a98    00000058     maclib_osal_tirtos7_cc13x4_26x4.a : osal_port.c.o (.text.HEAPMGR_GETLARGESTFREEBUF)
                  00013af0    00000058     driverlib.lib : osc.c.obj (.text.NOROM_OSCHF_AttemptToSwitchToXosc)
                  00013b48    00000058                   : setup_rom.c.obj (.text.NOROM_SetupGetTrimForAnabypassValue1)
                  00013ba0    00000058     maclib_osal_tirtos7_cc13x4_26x4.a : osal_port.c.o (.text.OsalPort_msgSend)
                  00013bf8    00000058     rf_multiMode_cc13x4.a : RFCC26X2_multiMode.c.cc13x4.ticlang.o (.text.RF_applyRfCorePatch)
                  00013c50    00000058     drivers_cc13x4.a : TRNGCC26XX.c.obj (.text.TRNG_init)
                  00013ca8    00000058     csf.o (.text.formNwkAndUpdateUser)
                  00013d00    00000058     maclib_secure_cc13x4_tirtos7.a : mac_coord.c.o (.text.macApiOrphanRsp)
                  00013d58    00000058                                    : mac_radio_tx.c.o (.text.macRadioTxBackoffBoundary)
                  00013db0    00000058                                    : mac_radio_tx.c.o (.text.macRadioTxGoLbt)
                  00013e08    00000058                                    : mac_rx_onoff.c.o (.text.macRxOn)
                  00013e60    00000058     ti_sysbios_config.o (.text.ti_sysbios_family_arm_v8m_cc26x4_Timer_dynamicMultiStub)
                  00013eb8    00000056     drivers_cc13x4.a : StructRingBuf.c.obj (.text.StructRingBuf_put)
                  00013f0e    00000056                      : UART2.c.obj (.text.UART2_readCancel)
                  00013f64    00000056     maclib_osal_tirtos7_cc13x4_26x4.a : util_timer.c.o (.text.UtilTimer_construct)
                  00013fba    00000002     libc.a : _lock.c.obj (.text._nop)
                  00013fbc    00000054     maclib_secure_cc13x4_tirtos7.a : mac_autopend.c.o (.text.MAC_SrcMatchEnable)
                  00014010    00000054     nvocmp.o (.text.NVOCMP_compactNvApi)
                  00014064    00000054     nvocmp.o (.text.NVOCMP_getItemLenApi)
                  000140b8    00000054     drivers_cc13x4.a : TRNGCC26XX.c.obj (.text.TRNGCC26XX_startTrng)
                  0001410c    00000054     maclib_secure_cc13x4_tirtos7.a : mac_beacon.c.o (.text.macBeaconSetupCap)
                  00014160    00000054                                    : mac_hl_patch.c.o (.text.macIncomingKeyUsagePolicyChecking)
                  000141b4    00000054                                    : mac_coord.c.o (.text.macIndirectRequeueFrame)
                  00014208    00000054                                    : mac_radio_tx.c.o (.text.macRadioTxPrepSlotted)
                  0001425c    00000054                                    : mac.c.o (.text.macRequestSFDTimeout)
                  000142b0    00000054                                    : mac_timer.c.o (.text.macTimerAddTimer)
                  00014304    00000054                                    : mac_timer.c.o (.text.macTimerCancel)
                  00014358    00000054                                    : mac_tx.c.o (.text.macTxAckReceivedCallback)
                  000143ac    00000054     cllc.o (.text.sendStartReq)
                  00014400    00000050     drivers_cc13x4.a : AESCCMCC26X4.c.obj (.text.AESCCM_setNonce)
                  00014450    00000050     ti_drivers_config.o (.text.Board_shutDownExtFlash)
                  000144a0    00000050     rf_multiMode_cc13x4.a : RFCC26X2_multiMode.c.cc13x4.ticlang.o (.text.RF_wakeupNotification)
                  000144f0    00000050     maclib_secure_cc13x4_tirtos7.a : mac_data.c.o (.text.macCheckIndPacket)
                  00014540    00000050                                    : mac_radio.c.o (.text.macRadioSetChannel)
                  00014590    00000050                                    : mac_radio_tx.c.o (.text.macRadioTxPrepCsmaSlottedIeee)
                  000145e0    00000050                                    : mac_radio.c.o (.text.macRadioUpdateTxPower)
                  00014630    00000050                                    : mac_timer.c.o (.text.macTimerGetNextTimer)
                  00014680    00000050                                    : mac_rx.c.o (.text.rxPostRxUpdates)
                  000146d0    00000050     collector.o (.text.sendTrackingRequest)
                  00014720    00000050     ti_sysbios_config.o (.text.ti_sysbios_knl_Swi_Instance_init)
                  00014770    00000050     ti_sysbios_config.o (.text.ti_sysbios_knl_Swi_post)
                  000147c0    00000050     ti_sysbios_config.o (.text.ti_sysbios_knl_Swi_runLoop)
                  00014810    0000004e     ti_drivers_config.o (.text.Board_sendExtFlashByte)
                  0001485e    0000004e     nvocmp.o (.text.NVOCMP_readItem)
                  000148ac    0000004c     ti_sysbios_config.o (.text.BIOS_startFunc)
                  000148f8    0000004c     csf.o (.text.Csf_networkUpdate)
                  00014944    0000004c     maclib_secure_cc13x4_tirtos7.a : mac_autopend.c.o (.text.MAC_SrcMatchAckAllPending)
                  00014990    0000004c     driverlib.lib : interrupt.c.obj (.text.NOROM_IntPendClear)
                  000149dc    0000004c                   : setup_rom.c.obj (.text.NOROM_SetupSetCacheModeAccordingToCcfgSetting)
                  00014a28    0000004c     nvocmp.o (.text.NVOCMP_setItemInactive)
                  00014a74    0000004c     drivers_cc13x4.a : NVSCC26XX.c.obj (.text.NVSCC26XX_read)
                  00014ac0    0000004c     rf_multiMode_cc13x4.a : RFCC26X2_multiMode.c.cc13x4.ticlang.o (.text.RF_fsmXOSCState)
                  00014b0c    0000004c                           : RFCC26X2_multiMode.c.cc13x4.ticlang.o (.text.RF_getCurrentTime)
                  00014b58    0000004c     drivers_cc13x4.a : StructRingBuf.c.obj (.text.StructRingBuf_get)
                  00014ba4    0000004c     maclib_secure_cc13x4_tirtos7.a : mac_duty_cycle.c.o (.text.macDutyCycleByteToUSec)
                  00014bf0    0000004c                                    : mac_radio.c.o (.text.macGetRadioTxPowerReg)
                  00014c3c    0000004c                                    : mac_coord.c.o (.text.macIndirectMark)
                  00014c88    0000004c                                    : mac_radio_tx.c.o (.text.macRadioSendEnhAck)
                  00014cd4    0000004c                                    : mac_radio_tx.c.o (.text.macRadioTxHandleAck)
                  00014d20    0000004c                                    : mac_radio.c.o (.text.macRadioWakeupCb)
                  00014d6c    0000004c                                    : mac_symbol_timer.c.o (.text.macSymbolTimerEventHandler)
                  00014db8    0000004c                                    : mac_timer.c.o (.text.macSymbolTimerRolloverCallback)
                  00014e04    0000004c     drivers_cc13x4.a : PowerCC26X2.c.obj (.text.switchXOSCHF)
                  00014e50    00000048     maclib_secure_cc13x4_tirtos7.a : mac_autopend.c.o (.text.MAC_SrcMatchSetDefaultPend)
                  00014e98    00000048     driverlib.lib : chipinfo.c.obj (.text.NOROM_ChipInfo_GetHwRevision)
                  00014ee0    00000048     rf_multiMode_cc13x4.a : rfc.c.cc13x4.ticlang.o (.text.NOROM_RFCSynthPowerDown)
                  00014f28    00000048     drivers_cc13x4.a : NVS.c.obj (.text.NVS_open)
                  00014f70    00000048     maclib_osal_tirtos7_cc13x4_26x4.a : osal_port.c.o (.text.OsalPort_heapFree)
                  00014fb8    00000048     drivers_cc13x4.a : PowerCC26X2.c.obj (.text.PowerCC26XX_switchXOSC_HF)
                  00015000    00000048                      : UART2.c.obj (.text.UART2_readFull)
                  00015048    00000048     maclib_secure_cc13x4_tirtos7.a : mac_main.c.o (.text.macMainReset)
                  00015090    00000048     ti_sysbios_config.o (.text.ti_sysbios_knl_Task_schedule)
                  000150d8    00000046     drivers_cc13x4.a : RingBuf.c.obj (.text.RingBuf_put)
                  0001511e    00000002                      : PowerCC26X2.c.obj (.text.emptyClockFunc)
                  00015120    00000044     ti_sysbios_config.o (.text.BIOS_atExitFunc)
                  00015164    00000044     cui.o (.text.CUI_menuActionHelp)
                  000151a8    00000044     cllc.o (.text.Cllc_addSecDevice)
                  000151ec    00000044     collector.o (.text.Collector_sendDeviceTypeRequest)
                  00015230    00000044     collector.o (.text.Collector_sendToggleLedRequest)
                  00015274    00000044     csf.o (.text.Csf_stateChangeUpdate)
                  000152b8    00000044     driverlib.lib : prcm.c.obj (.text.NOROM_PRCMPowerDomainsAllOff)
                  000152fc    00000044                   : prcm.c.obj (.text.NOROM_PRCMPowerDomainsAllOn)
                  00015340    00000044     drivers_cc13x4.a : NVSCC26XX.c.obj (.text.NVSCC26XX_init)
                  00015384    00000044                      : PWM.c.obj (.text.PWM_init)
                  000153c8    00000044     rf_multiMode_cc13x4.a : RFCC26X2_multiMode.c.cc13x4.ticlang.o (.text.RF_TxPowerTable_findValue)
                  0001540c    00000044                           : RFCC26X2_multiMode.c.cc13x4.ticlang.o (.text.RF_cmdGet)
                  00015450    00000044     api_mac.o (.text.convertTxOptions)
                  00015494    00000044     maclib_secure_cc13x4_tirtos7.a : mac_radio_tx.c.o (.text.macRadioTxPrepCsmaUnslottedSubG)
                  000154d8    00000044                                    : mac.c.o (.text.macRatDisableChannels)
                  0001551c    00000044                                    : mac_rx.c.o (.text.macRxNokIsr)
                  00015560    00000044                                    : mac.c.o (.text.macSendFsCmd)
                  000155a4    00000044                                    : mac_coord.c.o (.text.macStartContinue)
                  000155e8    00000044     ti_sysbios_config.o (.text.ti_sysbios_family_arm_v8m_Hwi_Instance_finalize)
                  0001562c    00000044     ti_sysbios_config.o (.text.ti_sysbios_family_arm_v8m_Hwi_construct2)
                  00015670    00000044     ti_sysbios_config.o (.text.ti_sysbios_family_arm_v8m_Hwi_disableInterrupt)
                  000156b4    00000044     ti_sysbios_config.o (.text.ti_sysbios_family_arm_v8m_Hwi_enableInterrupt)
                  000156f8    00000044     ti_sysbios_config.o (.text.ti_sysbios_knl_Swi_restore)
                  0001573c    00000044     ti_sysbios_config.o (.text.ti_sysbios_knl_Task_create)
                  00015780    00000042     maclib_secure_cc13x4_tirtos7.a : mac_mgmt.c.o (.text.macDestSAddrCmp)
                  000157c2    00000002     drivers_cc13x4.a : CryptoResourceCC26XX.c.obj (.text.errorSpin)
                  000157c4    00000040     cllc.o (.text.Cllc_sendDisassociationRequest)
                  00015804    00000040     csf.o (.text.Csf_IndicateOrphanReJoin)
                  00015844    00000040     csf.o (.text.Csf_deviceConfigUpdate)
                  00015884    00000040     csf.o (.text.Csf_deviceDisassocUpdate)
                  000158c4    00000040     csf.o (.text.Csf_deviceSensorDeviceTypeResponseUpdate)
                  00015904    00000040     csf.o (.text.Csf_removeDeviceListItem)
                  00015944    00000040     maclib_secure_cc13x4_tirtos7.a : mac_pib.c.o (.text.MAC_MlmeGetReq)
                  00015984    00000040     maclib_osal_tirtos7_cc13x4_26x4.a : osal_port.c.o (.text.OsalPort_deleteTimer)
                  000159c4    00000040                                       : osal_port.c.o (.text.OsalPort_msgEnqueueMax)
                  00015a04    00000040     drivers_cc13x4.a : PWM.c.obj (.text.PWM_open)
                  00015a44    00000040                      : PowerCC26X2_calibrateRCOSC.c.obj (.text.PowerCC26X2_RCOSC_clockFunc)
                  00015a84    00000040     libc.a : atoi.c.obj (.text.atoi)
                  00015ac4    00000040     drivers_cc13x4.a : LED.c.obj (.text.clockTimeoutHandler)
                  00015b04    00000040     api_mac.o (.text.copyMacPanDescToApiMacPanDesc)
                  00015b44    00000040     maclib_secure_cc13x4_tirtos7.a : mac_coord.c.o (.text.macRxAssociateReq)
                  00015b84    00000040                                    : mac_hl_patch.c.o (.text.macSetDefaultsByPatch)
                  00015bc4    00000040                                    : mac_symbol_timer.c.o (.text.macSymbolTimerRealignIeee)
                  00015c04    00000040                                    : mac_symbol_timer.c.o (.text.macSymbolTimerRealignSubG)
                  00015c44    00000040                                    : mac_timer.c.o (.text.macTimerUpdActive)
                  00015c84    00000040                                    : mac_tx.c.o (.text.macTxFrameIsr)
                  00015cc4    00000040                                    : mac_tx.c.o (.text.macTxTimestampCallback)
                  00015d04    00000040     ti_sysbios_config.o (.text.ti_sysbios_family_arm_v8m_cc26x4_Timer_start)
                  00015d44    00000040     ti_sysbios_config.o (.text.ti_sysbios_knl_Task_exit)
                  00015d84    00000040     ti_sysbios_config.o (.text.ti_sysbios_runtime_Startup_exec)
                  00015dc4    00000040     maclib_secure_cc13x4_tirtos7.a : mac_tx.c.o (.text.txGo)
                  00015e04    0000003e     drivers_cc13x4.a : LED.c.obj (.text.LED_setBrightnessLevel)
                  00015e42    0000003e                      : LED.c.obj (.text.LED_setOff)
                  00015e80    0000003e     maclib_secure_cc13x4_tirtos7.a : mac_mgmt.c.o (.text.macDestAddrCmp)
                  00015ebe    0000003c     api_mac.o (.text.ApiMac_buildMsgCapInfo)
                  00015efa    00000002     maclib_secure_cc13x4_tirtos7.a : mac_pwr.c.o (.text.macApiPwrOnReq)
                  00015efc    0000003c     cui.o (.text.CUI_updateCursor)
                  00015f38    0000003c     ti_sysbios_config.o (.text.ClockP_create)
                  00015f74    0000003c     drivers_cc13x4.a : GPIO.c.obj (.text.GPIO_resetConfig)
                  00015fb0    0000003c     ti_sysbios_config.o (.text.HwiP_construct)
                  00015fec    0000003c     maclib_secure_cc13x4_tirtos7.a : mac_autopend.c.o (.text.MAC_SrcMatchCheckResult)
                  00016028    0000003c     driverlib.lib : osc.c.obj (.text.NOROM_OSC_HPOSCRelativeFrequencyOffsetGet)
                  00016064    0000003c     rf_multiMode_cc13x4.a : RFCC26X2_multiMode.c.cc13x4.ticlang.o (.text.RF_updatePowerupDuration)
                  000160a0    0000003c     collector.o (.text.cllcDeviceJoiningCB)
                  000160dc    0000003c     maclib_secure_cc13x4_tirtos7.a : mac_pib.c.o (.text.macMRFSKGetPhyDesc)
                  00016118    0000003c                                    : mac_radio.c.o (.text.macRadioSetPanCoordinator)
                  00016154    0000003c                                    : mac_radio.c.o (.text.macRadioSetPanID)
                  00016190    0000003c                                    : mac_rx_onoff.c.o (.text.macRxDisable)
                  000161cc    0000003c                                    : mac_tx.c.o (.text.macTxDecrypt)
                  00016208    0000003c                                    : mac_main.c.o (.text.mac_msg_deallocate)
                  00016244    0000003c     csf.o (.text.sendToggleAndUpdateUser)
                  00016280    0000003c     ti_sysbios_config.o (.text.ti_sysbios_family_arm_v8m_cc26x4_Timer_setThreshold)
                  000162bc    0000003c     ti_sysbios_config.o (.text.ti_sysbios_heaps_HeapCallback_construct)
                  000162f8    0000003c     sysbios.a : TaskSupport_asm_gcc.s.obj (.text.ti_sysbios_knl_TaskSupport_swap)
                  00016334    0000003c     ti_sysbios_config.o (.text.ti_sysbios_knl_Task_blockI)
                  00016370    0000003c     ti_sysbios_config.o (.text.ti_sysbios_knl_Task_restore)
                  000163ac    0000003c     ti_sysbios_config.o (.text.ti_sysbios_runtime_Memory_alloc)
                  000163e8    0000003a     maclib_secure_cc13x4_tirtos7.a : mac_hl_patch.c.o (.text.macCheckPhyRate)
                  00016422    00000038     cllc.o (.text.Cllc_setJoinPermit)
                  0001645a    00000002     maclib_secure_cc13x4_tirtos7.a : mac_mcu.c.o (.text.macMcuBitReverse)
                  0001645c    00000038     csf.o (.text.Csf_getNumDeviceListEntries)
                  00016494    00000038     drivers_cc13x4.a : LED.c.obj (.text.LED_setOn)
                  000164cc    00000038     maclib_secure_cc13x4_tirtos7.a : mac_autopend.c.o (.text.MAC_SrcMatchDeleteEntry)
                  00016504    00000038     ti_sysbios_config.o (.text.MemAlloc_alloc)
                  0001653c    00000038     driverlib.lib : aux_sysif.c.obj (.text.NOROM_AUXSYSIFOpModeChange)
                  00016574    00000038                   : osc.c.obj (.text.NOROM_OSCClockSourceSet)
                  000165ac    00000038     nvocmp.o (.text.NVOCMP_write)
                  000165e4    00000038     driverlib.lib : osc.c.obj (.text.OSCHfSourceSwitch)
                  0001661c    00000038     maclib_osal_tirtos7_cc13x4_26x4.a : osal_port.c.o (.text.OsalPort_waitEvent)
                  00016654    00000038     drivers_cc13x4.a : Random.c.obj (.text.Random_getNumber)
                  0001668c    00000038                      : RingBuf.c.obj (.text.RingBuf_putAdvance)
                  000166c4    00000038                      : UART2.c.obj (.text.UART2_rxEnable)
                  000166fc    00000038                      : UDMACC26XX.c.obj (.text.UDMACC26XX_close)
                  00016734    00000038     collector.o (.text.commStatusIndCB)
                  0001676c    00000038     collector.o (.text.findDevice)
                  000167a4    00000038     collector.o (.text.getMsduHandle)
                  000167dc    00000038     maclib_secure_cc13x4_tirtos7.a : mac_beacon_device.c.o (.text.macBeaconStopTrack)
                  00016814    00000038                                    : mac_data.c.o (.text.macDataRxInd)
                  0001684c    00000038                                    : mac_beacon_device.c.o (.text.macIncomingNonSlottedTx)
                  00016884    00000038                                    : mac_radio.c.o (.text.macRadioNeedAdjustPower)
                  000168bc    00000038                                    : mac_radio.c.o (.text.macRadioSetIEEEAddr)
                  000168f4    00000038                                    : mac_data.c.o (.text.macRxCheckMACPendingCallback)
                  0001692c    00000038                                    : mac_symbol_timer.c.o (.text.macSymbolTimerCount)
                  00016964    00000038                                    : mac_tx.c.o (.text.macTxAckNotReceivedCallback)
                  0001699c    00000038                                    : mac_tx.c.o (.text.macTxFrameRetransmit)
                  000169d4    00000038                                    : mac_tx.c.o (.text.macTxUpdateIE)
                  00016a0c    00000038     ti_sysbios_config.o (.text.pthread_mutex_init)
                  00016a44    00000038     sysbios.a : Hwi_asm_gcc.s.obj (.text.ti_sysbios_family_arm_v8m_Hwi_excHandlerAsm)
                  00016a7c    00000038     ti_sysbios_config.o (.text.ti_sysbios_knl_ClockSupport_init)
                  00016ab4    00000038     ti_sysbios_config.o (.text.ti_sysbios_knl_Task_processVitalTaskFlag)
                  00016aec    00000038     ti_sysbios_config.o (.text.ti_sysbios_runtime_Error_print)
                  00016b24    00000038     libc.a : autoinit.c.obj (.text:__TI_auto_init_nobinit_nopinit)
                  00016b5c    00000036     drivers_cc13x4.a : CryptoUtils.c.obj (.text.CryptoUtils_buffersMatch)
                  00016b92    00000036     ti_sysbios_config.o (.text.SwiP_construct)
                  00016bc8    00000034     drivers_cc13x4.a : AESCCMCC26X4.c.obj (.text.AESCCM_cleanup)
                  00016bfc    00000034                      : AESCCMCC26X4.c.obj (.text.AESGetDefaultCCMCtrlValue)
                  00016c30    00000034     csf.o (.text.Csf_identifyLED)
                  00016c64    00000034     csf.o (.text.Csf_setBroadcastClock)
                  00016c98    00000034     csf.o (.text.Csf_setConfigClock)
                  00016ccc    00000034     csf.o (.text.Csf_setJoinPermitClock)
                  00016d00    00000034     csf.o (.text.Csf_setTrackingClock)
                  00016d34    00000034     driverlib.lib : prcm.c.obj (.text.NOROM_PRCMPowerDomainOff)
                  00016d68    00000034                   : trng.c.obj (.text.NOROM_TRNGConfigure)
                  00016d9c    00000034     nvocmp.o (.text.NVOCMP_changePageState)
                  00016dd0    00000034     nvocmp.o (.text.NVOCMP_findPage)
                  00016e04    00000034     maclib_osal_tirtos7_cc13x4_26x4.a : osal_port_timers.c.o (.text.OsalPortTimers_cleanUpTimers)
                  00016e38    00000034                                       : osal_port.c.o (.text.OsalPort_registerTask)
                  00016e6c    00000034     drivers_cc13x4.a : PowerCC26X2_calibrateRCOSC_helpers.c.obj (.text.PowerCC26X2_setAclkRefSrc)
                  00016ea0    00000034                      : PowerCC26X2.c.obj (.text.Power_releaseConstraint)
                  00016ed4    00000034     rf_multiMode_cc13x4.a : RFCC26X2_multiMode.c.cc13x4.ticlang.o (.text.RF_powerConstraintRelease)
                  00016f08    00000034                           : RFCC26X2_multiMode.c.cc13x4.ticlang.o (.text.RF_runDirectImmediateCmd)
                  00016f3c    00000034     drivers_cc13x4.a : UART2.c.obj (.text.UART2_rxDisable)
                  00016f70    00000034     ti_sysbios_config.o (.text._pthread_cleanupFxn)
                  00016fa4    00000034     drivers_cc13x4.a : NVSCC26XX.c.obj (.text.disableFlashCache)
                  00016fd8    00000034     maclib_secure_cc13x4_tirtos7.a : mac_mgmt.c.o (.text.macApiWSAsyncReq)
                  0001700c    00000034                                    : mac_duty_cycle.c.o (.text.macDutyCycleUpdateTransmission)
                  00017040    00000034                                    : mac_radio.c.o (.text.macRadioPowerUp)
                  00017074    00000034                                    : mac_radio.c.o (.text.macRadioStopScan)
                  000170a8    00000034                                    : mac_radio_tx.c.o (.text.macRadioTxGoSlottedCsma)
                  000170dc    00000034                                    : mac_radio_tx.c.o (.text.macRadioTxPrepGreenPower)
                  00017110    00000034                                    : mac_coord.c.o (.text.macRxBeaconReq)
                  00017144    00000034                                    : mac_scan.c.o (.text.macScanCnfInit)
                  00017178    00000034                                    : mac_autopend.c.o (.text.macSrcMatchSetEnableBit)
                  000171ac    00000034                                    : mac_autopend.c.o (.text.macSrcMatchSetPendEnBit)
                  000171e0    00000034                                    : mac_symbol_timer.c.o (.text.macSymbolTimerSetTrigger)
                  00017214    00000034                                    : mac_tx.c.o (.text.macTxAbortIsr)
                  00017248    00000034     ti_sysbios_config.o (.text.pthread_mutex_unlock)
                  0001727c    00000034     ti_sysbios_config.o (.text.ti_sysbios_family_arm_v8m_Hwi_getStackInfo)
                  000172b0    00000034     ti_sysbios_config.o (.text.ti_sysbios_family_arm_v8m_Hwi_init)
                  000172e4    00000034     ti_sysbios_config.o (.text.ti_sysbios_knl_Clock_Instance_init)
                  00017318    00000034     ti_sysbios_config.o (.text.ti_sysbios_knl_Task_unblockI)
                  0001734c    00000034     ti_sysbios_config.o (.text.ti_sysbios_runtime_Error_raiseX)
                  00017380    00000034     ti_sysbios_config.o (.text.ti_sysbios_runtime_System_atexit)
                  000173b4    00000034     sysbios.a : boot_cortex_m.c.obj (.text:_c_int00)
                  000173e8    00000032     maclib_secure_cc13x4_tirtos7.a : mac_autopend.c.o (.text.MAC_SrcMatchSetPend)
                  0001741a    00000002                                    : mac_mgmt.c.o (.text.macNoAction)
                  0001741c    00000030     drivers_cc13x4.a : AESCCMCC26X4.c.obj (.text.AESCCM_generateIntermediateDigest)
                  0001744c    00000030     ti_sysbios_config.o (.text.BIOS_init)
                  0001747c    00000030     ti_drivers_config.o (.text.Board_wakeUpExtFlash)
                  000174ac    00000030     ti_sysbios_config.o (.text.ClockP_construct)
                  000174dc    00000030     drivers_cc13x4.a : GPIOCC26XX.c.obj (.text.GPIO_setInterruptConfig)
                  0001750c    00000030     driverlib.lib : aes.c.obj (.text.NOROM_AESStartDMAOperation)
                  0001753c    00000030                   : prcm.c.obj (.text.NOROM_PRCMPowerDomainOn)
                  0001756c    00000030                   : sys_ctrl.c.obj (.text.NOROM_SysCtrlIdle)
                  0001759c    00000030     drivers_cc13x4.a : NVSCC26XX.c.obj (.text.NVSCC26XX_erase)
                  000175cc    00000030     maclib_osal_tirtos7_cc13x4_26x4.a : osal_port.c.o (.text.OsalPort_msgExtract)
                  000175fc    00000030     drivers_cc13x4.a : PowerCC26X2_helpers.c.obj (.text.PowerCC26X2_oscDisableQualifiers)
                  0001762c    00000030                      : PowerCC26X2_calibrateRCOSC_helpers.c.obj (.text.PowerCC26X2_setTdcClkSrc24M)
                  0001765c    00000030                      : PowerCC26X2.c.obj (.text.Power_setConstraint)
                  0001768c    00000030     rf_multiMode_cc13x4.a : RFCC26X2_multiMode.c.cc13x4.ticlang.o (.text.RF_checkCmdFsError)
                  000176bc    00000030     ti_sysbios_config.o (.text.SemaphoreP_construct)
                  000176ec    00000030     cui.o (.text.UartWriteCallback)
                  0001771c    00000030     collector.o (.text.findDeviceStatusBit)
                  0001774c    00000030     csf.o (.text.getNumActiveDevices)
                  0001777c    00000030     maclib_secure_cc13x4_tirtos7.a : mac_hl_patch.c.o (.text.macDeviceDescriptorLookup)
                  000177ac    00000030                                    : mac_data.c.o (.text.macFrameDurationIeee)
                  000177dc    00000030                                    : mac_tx.c.o (.text.macHandleTxAck)
                  0001780c    00000030                                    : mac_radio.c.o (.text.macRadioLimitTxPower)
                  0001783c    00000030                                    : mac_radio_tx.c.o (.text.macRadioTxPrepCsmaUnslottedIeee)
                  0001786c    00000030                                    : mac.c.o (.text.macSetUserConfig)
                  0001789c    00000030                                    : mac_timer.c.o (.text.macTimerInit)
                  000178cc    00000030                                    : mac_timer.c.o (.text.macTimerRecalcUnaligned)
                  000178fc    00000030     drivers_cc13x4.a : PowerCC26X2.c.obj (.text.notify)
                  0001792c    00000030     ti_sysbios_config.o (.text.ti_sysbios_knl_Semaphore_pendTimeout)
                  0001795c    00000030     ti_sysbios_config.o (.text.ti_sysbios_knl_TaskSupport_start)
                  0001798c    00000030     ti_sysbios_config.o (.text.ti_sysbios_runtime_System_processAtExit)
                  000179bc    0000002e     rf_multiMode_cc13x4.a : RFCC26X2_multiMode.c.cc13x4.ticlang.o (.text.RF_calculateDeltaTimeUs)
                  000179ea    0000002e     drivers_cc13x4.a : RingBuf.c.obj (.text.RingBuf_getConsume)
                  00017a18    0000002e                      : RingBuf.c.obj (.text.RingBuf_putPointer)
                  00017a46    0000002e     maclib_secure_cc13x4_tirtos7.a : mac_coord.c.o (.text.macRxOrphan)
                  00017a74    0000002c     cllc.o (.text.Cllc_findDevice)
                  00017aa0    0000002c     cllc.o (.text.Cllc_getFormingPanId)
                  00017acc    0000002c     csf.o (.text.Csf_getDeviceShort)
                  00017af8    0000002c     csf.o (.text.Csf_getNetworkInformation)
                  00017b24    0000002c     driverlib.lib : aes.c.obj (.text.NOROM_AESReadFromKeyStore)
                  00017b50    0000002c                   : aes.c.obj (.text.NOROM_AESReadTag)
                  00017b7c    0000002c                   : osc.c.obj (.text.NOROM_OSCHF_SwitchToRcOscTurnOffXosc)
                  00017ba8    0000002c                   : udma.c.obj (.text.NOROM_uDMAChannelAttributeDisable)
                  00017bd4    0000002c     nvocmp.o (.text.NVOCMP_findDstPage)
                  00017c00    0000002c     nvocmp.o (.text.NVOCMP_setCompactHdr)
                  00017c2c    0000002c     drivers_cc13x4.a : NVS.c.obj (.text.NVS_init)
                  00017c58    0000002c                      : PowerCC26X2_helpers.c.obj (.text.PowerCC26X2_releasePeriphDependency)
                  00017c84    0000002c                      : PowerCC26X2_helpers.c.obj (.text.PowerCC26X2_setPeriphDependency)
                  00017cb0    0000002c                      : PowerCC26X2_helpers.c.obj (.text.PowerCC26X2_setSubSecIncToXoscLf)
                  00017cdc    0000002c     ti_sysbios_config.o (.text.PowerCC26XX_schedulerDisable)
                  00017d08    0000002c     rf_multiMode_cc13x4.a : RFCC26X2_multiMode.c.cc13x4.ticlang.o (.text.RF_executeDirectImmediateCmd)
                  00017d34    0000002c     drivers_cc13x4.a : TRNGCC26XX.c.obj (.text.TRNGCC26XX_stopTrng)
                  00017d60    0000002c                      : UART2CC26X2.c.obj (.text.UART2CC26X2_getRxData)
                  00017d8c    0000002c                      : UART2CC26X2.c.obj (.text.UART2Support_enableInts)
                  00017db8    0000002c     ti_sysbios_config.o (.text._pthread_delete)
                  00017de4    0000002c     maclib_secure_cc13x4_tirtos7.a : mac_coord.c.o (.text.macApiAssociateRsp)
                  00017e10    0000002c                                    : mac_duty_cycle.c.o (.text.macDutyCycleCheck)
                  00017e3c    0000002c                                    : mac_radio.c.o (.text.macRadioPowerUpWait)
                  00017e68    0000002c                                    : mac.c.o (.text.macRatCb_B)
                  00017e94    0000002c                                    : mac.c.o (.text.macRatDisableChannelB)
                  00017ec0    0000002c                                    : mac_rx_onoff.c.o (.text.macRxHardDisable)
                  00017eec    0000002c                                    : mac_mgmt.c.o (.text.macSetDefaultsByRE)
                  00017f18    0000002c                                    : mac_symbol_timer.c.o (.text.macSymbolTimerBCWakeUp)
                  00017f44    0000002c                                    : mac_symbol_timer.c.o (.text.macSymbolTimerICallTimerCback)
                  00017f70    0000002c                                    : mac_timer.c.o (.text.macTimerAligned)
                  00017f9c    0000002c     rf_multiMode_cc13x4.a : rf_patch_cpe_multi_protocol.c.cc13x4.ticlang.o (.text.rf_patch_cpe_multi_protocol)
                  00017fc8    0000002c     ti_sysbios_config.o (.text.ti_sysbios_knl_Clock_getTicksUntilInterrupt)
                  00017ff4    0000002c     ti_sysbios_config.o (.text.ti_sysbios_knl_Clock_getTimeout)
                  00018020    0000002c     ti_sysbios_config.o (.text.ti_sysbios_knl_Swi_setPri)
                  0001804c    0000002c     ti_sysbios_config.o (.text.ti_sysbios_knl_Task_restoreHwi)
                  00018078    0000002a     driverlib.lib : ddi.c.obj (.text.NOROM_DDI16BitfieldWrite)
                  000180a2    00000002     maclib_secure_cc13x4_tirtos7.a : mac_radio.c.o (.text.macRadioSetRE)
                  000180a4    0000002a     maclib_osal_tirtos7_cc13x4_26x4.a : osal_port.c.o (.text.OsalPort_buildUint32)
                  000180ce    0000002a     drivers_cc13x4.a : TRNGCC26XX.c.obj (.text.TRNG_generateKey)
                  000180f8    0000002a                      : UART2CC26X2.c.obj (.text.UART2Support_powerRelConstraint)
                  00018122    0000002a     maclib_secure_cc13x4_tirtos7.a : mac_radio.c.o (.text.macRadioComputeLQI)
                  0001814c    0000002a                                    : mac_radio.c.o (.text.radioComputeED)
                  00018176    0000002a     ti_sysbios_config.o (.text.ti_sysbios_family_arm_v8m_cc26x4_Timer_getCurrentTick)
                  000181a0    0000002a     ti_sysbios_config.o (.text.ti_sysbios_family_arm_v8m_cc26x4_Timer_setNextTick)
                  000181ca    0000002a     ti_sysbios_config.o (.text.ti_sysbios_knl_Task_allBlockedFunction)
                  000181f4    00000028     ti_sysbios_config.o (.text.BIOS_registerRTSLock)
                  0001821c    00000028     cui.o (.text.CUI_publicAPIChecks)
                  00018244    00000028     cllc.o (.text.Cllc_setDefaultKey)
                  0001826c    00000028     csf.o (.text.Csf_displayError)
                  00018294    00000028     csf.o (.text.Csf_initializeBroadcastClock)
                  000182bc    00000028     csf.o (.text.Csf_initializeConfigClock)
                  000182e4    00000028     csf.o (.text.Csf_initializeIdentifyClock)
                  0001830c    00000028     csf.o (.text.Csf_initializeTrackingClock)
                  00018334    00000028     drivers_cc13x4.a : List.c.obj (.text.List_remove)
                  0001835c    00000028     maclib_secure_cc13x4_tirtos7.a : mac_security_pib.c.o (.text.MAC_MlmeGetPointerSecurityReq)
                  00018384    00000028     driverlib.lib : aon_batmon.c.obj (.text.NOROM_AONBatMonTemperatureGetDegC)
                  000183ac    00000028                   : aon_event.c.obj (.text.NOROM_AONEventMcuWakeUpSet)
                  000183d4    00000028                   : osc.c.obj (.text.NOROM_OSCClockSourceGet)
                  000183fc    00000028     maclib_osal_tirtos7_cc13x4_26x4.a : osal_port.c.o (.text.OsalPort_heapGetStats)
                  00018424    00000028                                       : osal_port.c.o (.text.OsalPort_msgEnqueue)
                  0001844c    00000028     drivers_cc13x4.a : PowerCC26X2.c.obj (.text.PowerCC26XX_isStableXOSC_HF)
                  00018474    00000028     rf_multiMode_cc13x4.a : RFCC26X2_multiMode.c.cc13x4.ticlang.o (.text.RF_cmdStoreEvents)
                  0001849c    00000028     ti_sysbios_config.o (.text.calloc)
                  000184c4    00000028     collector.o (.text.cllcStartedCB)
                  000184ec    00000028     maclib_secure_cc13x4_tirtos7.a : mac_pib.c.o (.text.macPibReset)
                  00018514    00000028                                    : mac_rx_onoff.c.o (.text.macRxOff)
                  0001853c    00000028                                    : mac.c.o (.text.macSetTxPowerVal)
                  00018564    00000028                                    : mac_tx.c.o (.text.macTxInit)
                  0001858c    00000028     ti_sysbios_config.o (.text.sem_init)
                  000185b4    00000028     cllc.o (.text.startCnfCb)
                  000185dc    00000028     cui.o (.text.strncpy)
                  00018604    00000028     ti_sysbios_config.o (.text.ti_sysbios_knl_Swi_init)
                  0001862c    00000028     ti_sysbios_config.o (.text.ti_sysbios_knl_Task_construct)
                  00018654    00000028     ti_sysbios_config.o (.text.ti_sysbios_knl_Task_init)
                  0001867c    00000028     csf.o (.text.uintToString)
                  000186a4    00000026     drivers_cc13x4.a : List.c.obj (.text.List_insert)
                  000186ca    00000026     maclib_osal_tirtos7_cc13x4_26x4.a : osal_port.c.o (.text.OsalPort_msgDequeue)
                  000186f0    00000026     drivers_cc13x4.a : UART2CC26X2.c.obj (.text.UART2Support_powerSetConstraint)
                  00018716    00000026     maclib_secure_cc13x4_tirtos7.a : mac_low_level.c.o (.text.macLowLevelDiags)
                  0001873c    00000026                                    : saddr.c.o (.text.sAddrCmp)
                  00018762    00000026     cui.o (.text.strncat)
                  00018788    00000024     drivers_cc13x4.a : AESCCMCC26X4.c.obj (.text.AESCCM_setOperationInProgress)
                  000187ac    00000024     ti_sysbios_config.o (.text.BIOS_removeRTSLock)
                  000187d0    00000024     cui.o (.text.CUI_getClientIndex)
                  000187f4    00000024     drivers_cc13x4.a : List.c.obj (.text.List_put)
                  00018818    00000024                      : List.c.obj (.text.List_putHead)
                  0001883c    00000024     driverlib.lib : aes.c.obj (.text.NOROM_AESWaitForIRQFlags)
                  00018860    00000024                   : prcm.c.obj (.text.NOROM_PRCMPeripheralDeepSleepDisable)
                  00018884    00000024                   : prcm.c.obj (.text.NOROM_PRCMPeripheralRunDisable)
                  000188a8    00000024                   : prcm.c.obj (.text.NOROM_PRCMPeripheralSleepDisable)
                  000188cc    00000024                   : uart.c.obj (.text.NOROM_UARTConfigSetExpClk)
                  000188f0    00000024     maclib_osal_tirtos7_cc13x4_26x4.a : osal_port.c.o (.text.OsalPort_msgAllocate)
                  00018914    00000024     drivers_cc13x4.a : PowerCC26X2.c.obj (.text.Power_registerNotify)
                  00018938    00000024     rf_multiMode_cc13x4.a : RFCC26X2_multiMode.c.cc13x4.ticlang.o (.text.RF_clkPowerUp)
                  0001895c    00000024                           : RFCC26X2_multiMode.c.cc13x4.ticlang.o (.text.RF_hwiCpe0ChangePhy)
                  00018980    00000024                           : RFCC26X2_multiMode.c.cc13x4.ticlang.o (.text.RF_isStateTransitionAllowed)
                  000189a4    00000024                           : RFCC26X2_multiMode.c.cc13x4.ticlang.o (.text.RF_searchAndReplacePAOverride)
                  000189c8    00000024     ti_sysbios_config.o (.text.SemaphoreP_createBinary)
                  000189ec    00000024     cllc.o (.text.disassocCnfCb)
                  00018a10    00000024     cllc.o (.text.disassocIndCb)
                  00018a34    00000024     maclib_secure_cc13x4_tirtos7.a : mac_mgmt.c.o (.text.macApiPending)
                  00018a58    00000024                                    : mac_mgmt.c.o (.text.macCoordAddrCmp)
                  00018a7c    00000024                                    : mac_radio.c.o (.text.macRadioSwInit)
                  00018aa0    00000024                                    : mac.c.o (.text.macRatCb_A)
                  00018ac4    00000024                                    : mac_rx_onoff.c.o (.text.macRxSoftDisable)
                  00018ae8    00000024                                    : mac_rx_onoff.c.o (.text.macRxSoftEnable)
                  00018b0c    00000024                                    : mac.c.o (.text.macSetCurrChan)
                  00018b30    00000024                                    : mac_coord.c.o (.text.macStartComplete)
                  00018b54    00000024                                    : mac_symbol_timer.c.o (.text.macSymbolTimerRestore)
                  00018b78    00000024                                    : mac_symbol_timer.c.o (.text.macSymbolTimerSetRollover)
                  00018b9c    00000024     cui.o (.text.memcmp)
                  00018bc0    00000024     collector.o (.text.processConfigRetry)
                  00018be4    00000024     csf.o (.text.processKeyChangeCallback)
                  00018c08    00000024     csf.o (.text.saveNumDeviceListEntries)
                  00018c2c    00000024     csf.o (.text.strncat)
                  00018c50    00000024     ti_sysbios_config.o (.text.ti_sysbios_family_arm_v8m_Hwi_construct)
                  00018c74    00000024     ti_sysbios_config.o (.text.ti_sysbios_knl_Semaphore_Instance_init)
                  00018c98    00000024     ti_sysbios_config.o (.text.ti_sysbios_knl_Semaphore_destruct)
                  00018cbc    00000024     ti_sysbios_config.o (.text.ti_sysbios_knl_Task_enter)
                  00018ce0    00000022     drivers_cc13x4.a : AESCCMCC26X4.c.obj (.text.AESCCM_setLengths)
                  00018d02    00000022                      : LED.c.obj (.text.LED_stopBlinking)
                  00018d24    00000022                      : List.c.obj (.text.List_get)
                  00018d46    00000022     rf_multiMode_cc13x4.a : RFCC26X2_multiMode.c.cc13x4.ticlang.o (.text.RF_queueEnd)
                  00018d68    00000022     drivers_cc13x4.a : RingBuf.c.obj (.text.RingBuf_getPointer)
                  00018d8a    00000022                      : UART2CC26X2.c.obj (.text.UART2Support_sendData)
                  00018dac    00000022                      : UART2.c.obj (.text.UART2_read)
                  00018dce    00000022                      : Button.c.obj (.text.msToTicks)
                  00018df0    00000022     maclib_secure_cc13x4_tirtos7.a : saddr.c.o (.text.sAddrExtCmp)
                  00018e12    00000022     sysbios.a : Hwi_asm_switch_gcc.s.obj (.text.ti_sysbios_family_arm_v8m_Hwi_switchAndRunFunc)
                  00018e34    00000022     ti_sysbios_config.o (.text.ti_sysbios_gates_GateMutexPri_insertPri)
                  00018e56    00000002     maclib_secure_cc13x4_tirtos7.a : mac_radio_tx.c.o (.text.macRadioTxCancelTxAck)
                  00018e58    00000020     collector.o (.text.Collector_updateStats)
                  00018e78    00000020     csf.o (.text.Csf_closeNwk)
                  00018e98    00000020     csf.o (.text.Csf_openNwk)
                  00018eb8    00000020     maclib_secure_cc13x4_tirtos7.a : mac_hl_patch.c.o (.text.MAC_AbortScan)
                  00018ed8    00000020     driverlib.lib : prcm.c.obj (.text.NOROM_PRCMPeripheralDeepSleepEnable)
                  00018ef8    00000020                   : prcm.c.obj (.text.NOROM_PRCMPeripheralRunEnable)
                  00018f18    00000020                   : prcm.c.obj (.text.NOROM_PRCMPeripheralSleepEnable)
                  00018f38    00000020     rf_multiMode_cc13x4.a : rfc.c.cc13x4.ticlang.o (.text.NOROM_RFCDoorbellSendTo)
                  00018f58    00000020                           : rfc.c.cc13x4.ticlang.o (.text.NOROM_RFCOverrideSearch)
                  00018f78    00000020     driverlib.lib : setup_rom.c.obj (.text.NOROM_SetupGetTrimForXoscHfCtl)
                  00018f98    00000020                   : setup_rom.c.obj (.text.NOROM_SetupSetAonRtcSubSecInc)
                  00018fb8    00000020                   : chipinfo.c.obj (.text.NOROM_ThisLibraryIsFor_CC13x4_CC26x4_HaltIfViolated)
                  00018fd8    00000020     drivers_cc13x4.a : PowerCC26X2_helpers.c.obj (.text.PowerCC26X2_disableTCXOQual)
                  00018ff8    00000020                      : PowerCC26X2_helpers.c.obj (.text.PowerCC26X2_enableTCXOQual)
                  00019018    00000020     ti_sysbios_config.o (.text.PowerCC26XX_schedulerRestore)
                  00019038    00000020     drivers_cc13x4.a : PowerCC26X2.c.obj (.text.Power_unregisterNotify)
                  00019058    00000020     rf_multiMode_cc13x4.a : RFCC26X2_multiMode.c.cc13x4.ticlang.o (.text.RF_cmdAlloc)
                  00019078    00000020                           : RFCC26X2_multiMode.c.cc13x4.ticlang.o (.text.RF_getRssi)
                  00019098    00000020                           : RFCC26X2_multiMode.c.cc13x4.ticlang.o (.text.RF_invokeGlobalCallback)
                  000190b8    00000020                           : RFCC26X2_multiMode.c.cc13x4.ticlang.o (.text.RF_ratIsRunning)
                  000190d8    00000020                           : RFCC26X2_multiMode.c.cc13x4.ticlang.o (.text.RF_setTxPower)
                  000190f8    00000020     ti_sysbios_config.o (.text.SemaphoreP_constructBinary)
                  00019118    00000020     cllc.o (.text.dataIndCb)
                  00019138    00000020     maclib_secure_cc13x4_tirtos7.a : mac_radio.c.o (.text.macGetRadioState)
                  00019158    00000020                                    : mac_mcu.c.o (.text.macMcuTimerCapture)
                  00019178    00000020                                    : mac_hl_patch.c.o (.text.macPibIndex)
                  00019198    00000020                                    : mac_radio.c.o (.text.macRadioSetShortAddr)
                  000191b8    00000020                                    : mac_data.c.o (.text.macRxCheckPendingCallback)
                  000191d8    00000020                                    : mac_rx_onoff.c.o (.text.macRxEnable)
                  000191f8    00000020                                    : mac_rx_onoff.c.o (.text.macRxOnOffInit)
                  00019218    00000020                                    : mac_rx.c.o (.text.macRxSFDTimerExpiry)
                  00019238    00000020                                    : mac_symbol_timer.c.o (.text.macSymbolTimerSetTriggerRollover)
                  00019258    00000020                                    : mac_timer.c.o (.text.macTimer)
                  00019278    00000020     csf.o (.text.openCloseNwkAndUpdateUser)
                  00019298    00000020     collector.o (.text.pollIndCB)
                  000192b8    00000020     csf.o (.text.processBroadcastTimeoutCallback)
                  000192d8    00000020     csf.o (.text.processConfigTimeoutCallback)
                  000192f8    00000020     csf.o (.text.processTrackingTimeoutCallback)
                  00019318    00000020     mac_user_config.o (.text.rfSelect)
                  00019338    00000020     csf.o (.text.sensorDeviceTypeRequestAction)
                  00019358    00000020     csf.o (.text.sensorDisassocAction)
                  00019378    00000020     csf.o (.text.sensorLedToggleAction)
                  00019398    00000020     ti_sysbios_config.o (.text.ti_sysbios_family_arm_v8m_Hwi_initStack)
                  000193b8    00000020     ti_sysbios_config.o (.text.ti_sysbios_gates_GateMutexPri_Instance_init)
                  000193d8    00000020     ti_sysbios_config.o (.text.ti_sysbios_knl_Clock_create)
                  000193f8    00000020     ti_sysbios_config.o (.text.ti_sysbios_knl_Clock_delete)
                  00019418    00000020     ti_sysbios_config.o (.text.ti_sysbios_knl_Semaphore_delete)
                  00019438    00000020     ti_sysbios_config.o (.text.ti_sysbios_knl_Task_delete)
                  00019458    00000020     ti_sysbios_config.o (.text.ti_sysbios_knl_Task_destruct)
                  00019478    0000001e     maclib_osal_tirtos7_cc13x4_26x4.a : osal_port.c.o (.text.OsalPort_msgDeallocate)
                  00019496    0000001e     drivers_cc13x4.a : UART2.c.obj (.text.UART2_writeTimeout)
                  000194b4    0000001e     libclang_rt.builtins.a : ashldi3.S.obj (.text.__ashldi3)
                  000194d2    0000001e     maclib_secure_cc13x4_tirtos7.a : mac_scan.c.o (.text.macScanFailedInProgress)
                  000194f0    0000001e     ti_sysbios_config.o (.text.ti_sysbios_knl_Semaphore_create)
                  0001950e    00000002     ti_sysbios_config.o (.text.ti_sysbios_runtime_System_exitSpin)
                  00019510    0000001c     ti_sysbios_config.o (.text.BIOS_rtsLock)
                  0001952c    0000001c     cui.o (.text.CUI_menuActionBack)
                  00019548    0000001c     csf.o (.text.Csf_deviceNotActiveUpdate)
                  00019564    0000001c     drivers_cc13x4.a : GPIOCC26XX.c.obj (.text.GPIO_read)
                  00019580    0000001c                      : GPIO.c.obj (.text.GPIO_setCallback)
                  0001959c    0000001c     ti_sysbios_config.o (.text.HwiP_setPriority)
                  000195b8    0000001c     driverlib.lib : ddi.c.obj (.text.NOROM_DDI16BitfieldRead)
                  000195d4    0000001c                   : osc.c.obj (.text.NOROM_OSCHF_TurnOnXosc)
                  000195f0    0000001c                   : prcm.c.obj (.text.NOROM_PRCMDeepSleep)
                  0001960c    0000001c                   : sys_ctrl.c.obj (.text.NOROM_SysCtrlResetSourceGet)
                  00019628    0000001c     nvocmp.o (.text.NVOCMP_expectCompApi)
                  00019644    0000001c     nvocmp.o (.text.NVOCMP_writeByte)
                  00019660    0000001c     maclib_osal_tirtos7_cc13x4_26x4.a : osal_port.c.o (.text.OsalPort_memcmp)
                  0001967c    0000001c     drivers_cc13x4.a : PowerCC26X2_helpers.c.obj (.text.PowerCC26X2_getOscHfSourceReady)
                  00019698    0000001c                      : PowerCC26X2_calibrateRCOSC_helpers.c.obj (.text.PowerCC26X2_writeCtrim)
                  000196b4    0000001c                      : PowerCC26X2_calibrateRCOSC_helpers.c.obj (.text.PowerCC26X2_writeCtrimFract)
                  000196d0    0000001c                      : PowerCC26X2_calibrateRCOSC_helpers.c.obj (.text.PowerCC26X2_writeCtrimFractEn)
                  000196ec    0000001c                      : PowerCC26X2_calibrateRCOSC_helpers.c.obj (.text.PowerCC26X2_writeRtrim)
                  00019708    0000001c                      : PowerCC26X2.c.obj (.text.Power_getTransitionLatency)
                  00019724    0000001c     rf_multiMode_cc13x4.a : RFCC26X2_multiMode.c.cc13x4.ticlang.o (.text.RF_clkInactivityCallback)
                  00019740    0000001c                           : RFCC26X2_multiMode.c.cc13x4.ticlang.o (.text.RF_getPAOverrideOffsetAndValue)
                  0001975c    0000001c                           : RFCC26X2_multiMode.c.cc13x4.ticlang.o (.text.RF_powerConstraintSet)
                  00019778    0000001c                           : RFCC26X2_multiMode.c.cc13x4.ticlang.o (.text.RF_swiFsm)
                  00019794    0000001c     drivers_cc13x4.a : RingBuf.c.obj (.text.RingBuf_flush)
                  000197b0    0000001c     crc.o (.text.crc_update)
                  000197cc    0000001c     maclib_secure_cc13x4_tirtos7.a : mac_data.c.o (.text.macDataRxMemAlloc)
                  000197e8    0000001c                                    : mac_mcu.c.o (.text.macMcuOverflowCapture)
                  00019804    0000001c                                    : mac.c.o (.text.macNopBackoffTimerExpiry)
                  00019820    0000001c                                    : mac_radio.c.o (.text.macRadioSelectConfig)
                  0001983c    0000001c                                    : mac_rx.c.o (.text.macRxAckTxDoneCallback)
                  00019858    0000001c                                    : mac_symbol_timer.c.o (.text.macSymbolTimerPowerDown)
                  00019874    0000001c     csf.o (.text.processMenuUpdate)
                  00019890    0000001c     drivers_cc13x4.a : NVSCC26XX.c.obj (.text.restoreFlashCache)
                  000198ac    0000001c     maclib_secure_cc13x4_tirtos7.a : mac_rx.c.o (.text.rxDone)
                  000198c8    0000001c     ti_sysbios_config.o (.text.ti_sysbios_knl_Clock_Instance_finalize)
                  000198e4    0000001c     ti_sysbios_config.o (.text.ti_sysbios_knl_Clock_construct)
                  00019900    0000001c     ti_sysbios_config.o (.text.ti_sysbios_knl_Idle_run)
                  0001991c    0000001c     ti_sysbios_config.o (.text.ti_sysbios_knl_Queue_put)
                  00019938    0000001c     ti_sysbios_config.o (.text.ti_sysbios_knl_Semaphore_construct)
                  00019954    0000001c     ti_sysbios_config.o (.text.ti_sysbios_knl_Swi_construct)
                  00019970    0000001c     ti_sysbios_config.o (.text.ti_sysbios_knl_Swi_destruct)
                  0001998c    0000001a     cui.o (.text.CUI_updateRemLen)
                  000199a6    0000001a     drivers_cc13x4.a : LED.c.obj (.text.LED_toggle)
                  000199c0    0000001a     driverlib.lib : uart.c.obj (.text.NOROM_UARTDisable)
                  000199da    0000001a                   : udma.c.obj (.text.NOROM_uDMAChannelSizeGet)
                  000199f4    0000001a     maclib_osal_tirtos7_cc13x4_26x4.a : osal_port.c.o (.text.OsalPort_msgPush)
                  00019a0e    0000001a     drivers_cc13x4.a : UART2CC26X2.c.obj (.text.UART2Support_disableRx)
                  00019a28    0000001a     api_mac.o (.text.copyApiMacAddrToMacAddr)
                  00019a42    0000001a     maclib_secure_cc13x4_tirtos7.a : mac_hl_patch.c.o (.text.macCheckPhyMode)
                  00019a5c    00000018     driverlib.lib : aes.c.obj (.text.AESReadAuthenticationModeIV)
                  00019a74    00000018                   : aes.c.obj (.text.AESWriteKey3)
                  00019a8c    00000018     ti_sysbios_config.o (.text.BIOS_exitFunc)
                  00019aa4    00000018     ti_sysbios_config.o (.text.BIOS_rtsUnlock)
                  00019abc    00000018     cllc.o (.text.Cllc_setChanMask)
                  00019ad4    00000018     drivers_cc13x4.a : CryptoUtils.c.obj (.text.CryptoUtils_memset)
                  00019aec    00000018                      : GPIOCC26XX.c.obj (.text.GPIO_disableInt)
                  00019b04    00000018     maclib_secure_cc13x4_tirtos7.a : mac_mgmt.c.o (.text.MAC_EnableFH)
                  00019b1c    00000018     driverlib.lib : aes.c.obj (.text.NOROM_AESSetInitializationVector)
                  00019b34    00000018                   : trng.c.obj (.text.NOROM_TRNGNumberGet)
                  00019b4c    00000018     drivers_cc13x4.a : NVSCC26XX.c.obj (.text.NVSCC26XX_getAttrs)
                  00019b64    00000018                      : NVSCC26XX.c.obj (.text.NVSCC26XX_lock)
                  00019b7c    00000018                      : PowerCC26X2.c.obj (.text.PowerCC26XX_calibrate)
                  00019b94    00000018                      : PowerCC26X2.c.obj (.text.Power_idleFunc)
                  00019bac    00000018     rf_multiMode_cc13x4.a : RFCC26X2_multiMode.c.cc13x4.ticlang.o (.text.RF_ScheduleCmdParams_init)
                  00019bc4    00000018                           : RFCC26X2_multiMode.c.cc13x4.ticlang.o (.text.RF_cancelCmd)
                  00019bdc    00000018                           : RFCC26X2_multiMode.c.cc13x4.ticlang.o (.text.RF_restartClockTimeout)
                  00019bf4    00000018     cui.o (.text.UartReadCallback)
                  00019c0c    00000018     maclib_osal_tirtos7_cc13x4_26x4.a : mac_util.c.o (.text.Util_clearEvent)
                  00019c24    00000018                                       : mac_util.c.o (.text.Util_setEvent)
                  00019c3c    00000018     csf.o (.text.closeNwkAction)
                  00019c54    00000018     csf.o (.text.formNwkAction)
                  00019c6c    00000018     maclib_secure_cc13x4_tirtos7.a : mac_beacon.c.o (.text.macBeaconReset)
                  00019c84    00000018                                    : mac_data.c.o (.text.macFrameDuration)
                  00019c9c    00000018                                    : mac_mgmt.c.o (.text.macGetMyAddrMode)
                  00019cb4    00000018                                    : mac_radio.c.o (.text.macRadioInit)
                  00019ccc    00000018                                    : mac_radio_tx.c.o (.text.macRadioTxPrepCsmaSlotted)
                  00019ce4    00000018                                    : mac_radio_tx.c.o (.text.macRadioTxPrepCsmaUnslotted)
                  00019cfc    00000018                                    : mac.c.o (.text.macSendReceiveCmd)
                  00019d14    00000018                                    : mac_symbol_timer.c.o (.text.macSymbolTimerRealign)
                  00019d2c    00000018                                    : mac_hl_patch.c.o (.text.macWrapper8ByteUnused)
                  00019d44    00000018     csf.o (.text.openNwkAction)
                  00019d5c    00000018     collector.o (.text.orphanIndCb)
                  00019d74    00000018     ti_sysbios_config.o (.text.pthread_attr_init)
                  00019d8c    00000018     ti_sysbios_config.o (.text.ti_sysbios_knl_Clock_getTicks)
                  00019da4    00000018     ti_sysbios_config.o (.text.ti_sysbios_knl_Clock_scheduleNextTick)
                  00019dbc    00000018     ti_sysbios_config.o (.text.ti_sysbios_knl_Swi_construct2)
                  00019dd4    00000018     ti_sysbios_config.o (.text.ti_sysbios_knl_Swi_or)
                  00019dec    00000018     sysbios.a : TaskSupport_asm_gcc.s.obj (.text.ti_sysbios_knl_TaskSupport_glue)
                  00019e04    00000018     ti_sysbios_config.o (.text.ti_sysbios_knl_Task_unblock)
                  00019e1c    00000018     ti_sysbios_config.o (.text.ti_sysbios_runtime_System_printf)
                  00019e34    00000018     ti_sysbios_config.o (.text.ti_sysbios_runtime_System_vprintf)
                  00019e4c    00000018     maclib_secure_cc13x4_tirtos7.a : mac_tx.c.o (.text.txCsmaGo)
                  00019e64    00000018     drivers_cc13x4.a : UART2CC26X2.c.obj (.text.uartDmaDisable)
                  00019e7c    00000018                      : UART2CC26X2.c.obj (.text.uartDmaEnable)
                  00019e94    00000016     ti_drivers_config.o (.text.Board_init)
                  00019eaa    00000016     cllc.o (.text.Cllc_securityFill)
                  00019ec0    00000016     ti_sysbios_config.o (.text.HwiP_interruptsEnabled)
                  00019ed6    00000016     ti_sysbios_config.o (.text.HwiP_setFunc)
                  00019eec    00000016     drivers_cc13x4.a : List.c.obj (.text.List_clearList)
                  00019f02    00000016     rf_multiMode_cc13x4.a : RFCC26X2_multiMode.c.cc13x4.ticlang.o (.text.RF_ratCompare)
                  00019f18    00000016     ti_sysbios_config.o (.text.SystemP_snprintf)
                  00019f2e    00000016     drivers_cc13x4.a : TRNGCC26XX.c.obj (.text.TRNGCC26XX_startJob)
                  00019f44    00000016     maclib_secure_cc13x4_tirtos7.a : mac_radio.c.o (.text.macRadioSetTxPower)
                  00019f5a    00000016                                    : mac_timer.c.o (.text.macTimerRemoveTimer)
                  00019f70    00000016     ti_sysbios_config.o (.text.ti_sysbios_knl_Clock_start)
                  00019f86    00000016     ti_sysbios_config.o (.text.ti_sysbios_knl_Task_block)
                  00019f9c    00000014     drivers_cc13x4.a : AESCCMCC26X4.c.obj (.text.AESCCM_init)
                  00019fb0    00000014     maclib_secure_cc13x4_tirtos7.a : mac_autopend.c.o (.text.MAC_SrcMatchCheckAllPending)
                  00019fc4    00000014     driverlib.lib : aon_rtc.c.obj (.text.NOROM_AONRTCCurrent64BitValueGet)
                  00019fd8    00000014                   : setup_rom.c.obj (.text.NOROM_SetupGetTrimForRcOscLfRtuneCtuneTrim)
                  00019fec    00000014     cui.o (.text.OUTLINED_FUNCTION_0)
                  0001a000    00000014     rf_multiMode_cc13x4.a : RFCC26X2_multiMode.c.cc13x4.ticlang.o (.text.RF_dbellSyncOnAck)
                  0001a014    00000014                           : RFCC26X2_multiMode.c.cc13x4.ticlang.o (.text.RF_flushCmd)
                  0001a028    00000014     ti_sysbios_config.o (.text.SwiP_disable)
                  0001a03c    00000014     drivers_cc13x4.a : TRNGCC26XX.c.obj (.text.TRNG_close)
                  0001a050    00000014                      : UART2CC26X2.c.obj (.text.UART2CC26X2_postNotifyFxn)
                  0001a064    00000014     libclang_rt.builtins.a : aeabi_uldivmod.S.obj (.text.__aeabi_uldivmod)
                  0001a078    00000014     libc.a : args_main.c.obj (.text._args_main)
                  0001a08c    00000014     maclib_secure_cc13x4_tirtos7.a : mac_mgmt.c.o (.text.macConflictSyncLossInd)
                  0001a0a0    00000014                                    : mac_data.c.o (.text.macDataSend)
                  0001a0b4    00000014                                    : mac_main.c.o (.text.macMainReserve)
                  0001a0c8    00000014                                    : mac_rx_onoff.c.o (.text.macRxOnRequest)
                  0001a0dc    00000014                                    : mac_main.c.o (.text.macStateIdleOrPolling)
                  0001a0f0    00000014                                    : mac_main.c.o (.text.macStateScanning)
                  0001a104    00000014                                    : mac_symbol_timer.c.o (.text.macSymbolSetupPwrMgmt)
                  0001a118    00000014                                    : mac_mgmt.c.o (.text.macWSAsyncCnf)
                  0001a12c    00000014     ti_sysbios_config.o (.text.pthread_attr_setschedparam)
                  0001a140    00000014     ti_sysbios_config.o (.text.pthread_mutexattr_init)
                  0001a154    00000014     maclib_secure_cc13x4_tirtos7.a : mac_rx.c.o (.text.rxDiscardFrame)
                  0001a168    00000014     ti_sysbios_config.o (.text.ti_sysbios_family_arm_v8m_Hwi_switchFromBootStack)
                  0001a17c    00000014     drivers_cc13x4.a : Button.c.obj (.text.timediff)
                  0001a190    00000014     cllc.o (.text.updateState)
                  0001a1a4    00000012     cllc.o (.text.Cllc_startNetwork)
                  0001a1b6    00000012     driverlib.lib : uart.c.obj (.text.NOROM_UARTCharPutNonBlocking)
                  0001a1c8    00000012     nvocmp.o (.text.NVOCMP_readByte)
                  0001a1da    00000012     drivers_cc13x4.a : NVS.c.obj (.text.NVS_write)
                  0001a1ec    00000012     api_mac.o (.text.OUTLINED_FUNCTION_0)
                  0001a1fe    00000012     rf_multiMode_cc13x4.a : RFCC26X2_multiMode.c.cc13x4.ticlang.o (.text.RF_getCmdOp)
                  0001a210    00000012     drivers_cc13x4.a : StructRingBuf.c.obj (.text.StructRingBuf_construct)
                  0001a222    00000012     ti_sysbios_config.o (.text._pthread_runStub)
                  0001a234    00000012     maclib_secure_cc13x4_tirtos7.a : mac_data.c.o (.text.macCheckSched)
                  0001a246    00000012                                    : mac_symbol_timer.c.o (.text.macSymbolTimerCompareIsr)
                  0001a258    00000012                                    : saddr.c.o (.text.sAddrCpy)
                  0001a26a    00000012                                    : mac_tx.c.o (.text.txLbtPrep)
                  0001a27c    00000012     libc.a : memcpy_t2.S.obj (.text:TI_memcpy_small)
                  0001a28e    00000002     --HOLE-- [fill = 0]
                  0001a290    00000010     drivers_cc13x4.a : AESCCM.c.obj (.text.AESCCM_Params_init)
                  0001a2a0    00000010                      : AESCCM.c.obj (.text.AESCCM_open)
                  0001a2b0    00000010     api_mac.o (.text.ApiMac_mlmeSetReqBool)
                  0001a2c0    00000010     api_mac.o (.text.ApiMac_mlmeSetReqUint16)
                  0001a2d0    00000010     api_mac.o (.text.ApiMac_mlmeSetReqUint8)
                  0001a2e0    00000010     api_mac.o (.text.ApiMac_mlmeSetSecurityReqUint16)
                  0001a2f0    00000010     drivers_cc13x4.a : Button.c.obj (.text.Button_Params_init)
                  0001a300    00000010     cllc.o (.text.Cllc_getChanMask)
                  0001a310    00000010     cllc.o (.text.Cllc_getDefaultKey)
                  0001a320    00000010     cllc.o (.text.Cllc_securityCheck)
                  0001a330    00000010     cllc.o (.text.Cllc_setFormingPanId)
                  0001a340    00000010     ti_sysbios_config.o (.text.ClockP_getCpuFreq)
                  0001a350    00000010     drivers_cc13x4.a : GPIOCC26XX.c.obj (.text.GPIO_write)
                  0001a360    00000010     ti_sysbios_config.o (.text.HwiP_Params_init)
                  0001a370    00000010     ti_sysbios_config.o (.text.HwiP_post)
                  0001a380    00000010     macTask.o (.text.MAC_CbackCheckPending)
                  0001a390    00000010     macTask.o (.text.MAC_CbackQueryRetransmit)
                  0001a3a0    00000010     maclib_secure_cc13x4_tirtos7.a : mac_autopend.c.o (.text.MAC_SrcMatchSetManualAddressTracking)
                  0001a3b0    00000010     main.o (.text.Main_assertHandler)
                  0001a3c0    00000010     driverlib.lib : ioc.c.obj (.text.NOROM_IOCPortConfigureSet)
                  0001a3d0    00000010     rf_multiMode_cc13x4.a : rfc.c.cc13x4.ticlang.o (.text.NOROM_RFCCpeIntGetAndClear)
                  0001a3e0    00000010                           : rfc.c.cc13x4.ticlang.o (.text.NOROM_RFCHwIntGetAndClear)
                  0001a3f0    00000010     driverlib.lib : vims.c.obj (.text.NOROM_VIMSModeGet)
                  0001a400    00000010     nvocmp.o (.text.NVOCMP_read)
                  0001a410    00000010     drivers_cc13x4.a : AESCCMCC26X4.c.obj (.text.OUTLINED_FUNCTION_0)
                  0001a420    00000010                      : GPIOCC26XX.c.obj (.text.OUTLINED_FUNCTION_0)
                  0001a430    00000010     maclib_secure_cc13x4_tirtos7.a : mac_mgmt.c.o (.text.OUTLINED_FUNCTION_0)
                  0001a440    00000010     cui.o (.text.OUTLINED_FUNCTION_1)
                  0001a450    00000010     maclib_secure_cc13x4_tirtos7.a : mac_tx.c.o (.text.OUTLINED_FUNCTION_1)
                  0001a460    00000010                                    : mac_hl_patch.c.o (.text.OUTLINED_FUNCTION_3)
                  0001a470    00000010     rf_multiMode_cc13x4.a : RFCC26X2_multiMode.c.cc13x4.ticlang.o (.text.OUTLINED_FUNCTION_3)
                  0001a480    00000010     maclib_osal_tirtos7_cc13x4_26x4.a : osal_port.c.o (.text.OsalPort_memcpy)
                  0001a490    00000010     drivers_cc13x4.a : PWM.c.obj (.text.PWM_Params_init)
                  0001a4a0    00000010                      : PowerCC26X2_helpers.c.obj (.text.PowerCC26X2_oscCtlClearXtal)
                  0001a4b0    00000010                      : PowerCC26X2_helpers.c.obj (.text.PowerCC26X2_prcmEnableCacheRetention)
                  0001a4c0    00000010                      : PowerCC26X2_calibrateRCOSC_helpers.c.obj (.text.PowerCC26X2_readCtrim)
                  0001a4d0    00000010                      : PowerCC26X2_calibrateRCOSC_helpers.c.obj (.text.PowerCC26X2_readCtrimFract)
                  0001a4e0    00000010                      : PowerCC26X2_calibrateRCOSC_helpers.c.obj (.text.PowerCC26X2_readRtrim)
                  0001a4f0    00000010                      : PowerCC26X2_helpers.c.obj (.text.PowerCC26X2_switchToTCXO)
                  0001a500    00000010                      : PowerCC26X2.c.obj (.text.Power_getDependencyCount)
                  0001a510    00000010                      : RingBuf.c.obj (.text.RingBuf_construct)
                  0001a520    00000010     ti_sysbios_config.o (.text.SwiP_Params_init)
                  0001a530    00000010     drivers_cc13x4.a : UART2CC26X2.c.obj (.text.UART2Support_txDone)
                  0001a540    00000010     cllc.o (.text.commStatusIndCb)
                  0001a550    00000010     maclib_secure_cc13x4_tirtos7.a : mac_data.c.o (.text.macDataTxTimeAvailable)
                  0001a560    00000010                                    : mac_coord.c.o (.text.macRxPanConflict)
                  0001a570    00000010                                    : mac_main.c.o (.text.macSetEvent16)
                  0001a580    00000010                                    : mac_main.c.o (.text.macSetEvent)
                  0001a590    00000010     cllc.o (.text.switchState)
                  0001a5a0    00000010     ti_sysbios_config.o (.text.ti_sysbios_family_arm_v8m_Hwi_excHandler)
                  0001a5b0    00000010     ti_sysbios_config.o (.text.ti_sysbios_family_arm_v8m_cc26x4_Timer_dynamicStub)
                  0001a5c0    00000010     ti_sysbios_config.o (.text.ti_sysbios_runtime_System_vsnprintf)
                  0001a5d0    00000010     libc.a : copy_zero_init.c.obj (.text:decompress:ZI)
                  0001a5e0    0000000e     drivers_cc13x4.a : AESCCMCC26X4.c.obj (.text.AESCCM_close)
                  0001a5ee    0000000e                      : LED.c.obj (.text.LED_Params_init)
                  0001a5fc    0000000e     nvocmp.o (.text.NVOCMP_getCompactHdr)
                  0001a60a    0000000e     drivers_cc13x4.a : NVS.c.obj (.text.NVS_read)
                  0001a618    0000000e                      : PowerCC26X2.c.obj (.text.OUTLINED_FUNCTION_0)
                  0001a626    0000000e     nvocmp.o (.text.OUTLINED_FUNCTION_0)
                  0001a634    0000000e     rf_multiMode_cc13x4.a : RFCC26X2_multiMode.c.cc13x4.ticlang.o (.text.OUTLINED_FUNCTION_0)
                  0001a642    0000000e     ti_sysbios_config.o (.text.OUTLINED_FUNCTION_0)
                  0001a650    0000000e     nvocmp.o (.text.OUTLINED_FUNCTION_1)
                  0001a65e    0000000e     macTask.o (.text.OUTLINED_FUNCTION_3)
                  0001a66c    0000000e     rf_multiMode_cc13x4.a : RFCC26X2_multiMode.c.cc13x4.ticlang.o (.text.OUTLINED_FUNCTION_4)
                  0001a67a    0000000e                           : RFCC26X2_multiMode.c.cc13x4.ticlang.o (.text.RF_RatConfigCompare_init)
                  0001a688    0000000e     drivers_cc13x4.a : StructRingBuf.c.obj (.text.StructRingBuf_isFull)
                  0001a696    0000000e     ti_sysbios_config.o (.text.SwiP_setPriority)
                  0001a6a4    0000000e     drivers_cc13x4.a : UART2.c.obj (.text.UART2_write)
                  0001a6b2    0000000e     maclib_osal_tirtos7_cc13x4_26x4.a : mac_util.c.o (.text.Util_buildUint32)
                  0001a6c0    0000000e     maclib_secure_cc13x4_tirtos7.a : mac_low_level.c.o (.text.macLowLevelBufferInit)
                  0001a6ce    0000000e                                    : mac_low_level.c.o (.text.macLowLevelReset)
                  0001a6dc    0000000e                                    : mac_low_level.c.o (.text.macLowLevelResume)
                  0001a6ea    0000000e     ti_sysbios_config.o (.text.sem_wait)
                  0001a6f8    0000000e     csf.o (.text.strcpy)
                  0001a706    0000000e     cui.o (.text.strlen)
                  0001a714    0000000e     ti_sysbios_config.o (.text.strlen)
                  0001a722    0000000e     drivers_cc13x4.a : PowerCC26X2.c.obj (.text.switchToTCXO)
                  0001a730    0000000e     libc.a : memset_t2.S.obj (.text:TI_memset_small)
                  0001a73e    0000000e            : copy_decompress_none.c.obj (.text:decompress:none)
                  0001a74c    0000000c     api_mac.o (.text.ApiMac_registerCallbacks)
                  0001a758    0000000c     ti_sysbios_config.o (.text.BIOS_linkedWithIncorrectBootLibrary)
                  0001a764    0000000c     ti_sysbios_config.o (.text.BIOS_start)
                  0001a770    0000000c     ti_sysbios_config.o (.text.ClockP_delete)
                  0001a77c    0000000c     drivers_cc13x4.a : CryptoKeyPlaintext.c.obj (.text.CryptoKeyPlaintext_initBlankKey)
                  0001a788    0000000c                      : CryptoKeyPlaintext.c.obj (.text.CryptoKeyPlaintext_initKey)
                  0001a794    0000000c     csf.o (.text.Csf_isConfigTimerActive)
                  0001a7a0    0000000c     csf.o (.text.Csf_isTrackingTimerActive)
                  0001a7ac    0000000c     ti_sysbios_config.o (.text.HwiP_disable)
                  0001a7b8    0000000c     maclib_secure_cc13x4_tirtos7.a : mac_autopend.c.o (.text.MAC_SrcMatchCheckManualAddressTracking)
                  0001a7c4    0000000c     driverlib.lib : osc.c.obj (.text.NOROM_OSC_HPOSCRelativeFrequencyOffsetToRFCoreFormatConvert)
                  0001a7d0    0000000c     nvocmp.o (.text.NVOCMP_doRAMCRC)
                  0001a7dc    0000000c     drivers_cc13x4.a : NVSCC26XX.c.obj (.text.NVSCC26XX_unlock)
                  0001a7e8    0000000c                      : UART2CC26X2.c.obj (.text.OUTLINED_FUNCTION_0)
                  0001a7f4    0000000c     maclib_secure_cc13x4_tirtos7.a : mac.c.o (.text.OUTLINED_FUNCTION_0)
                  0001a800    0000000c                                    : mac_radio_tx.c.o (.text.OUTLINED_FUNCTION_0)
                  0001a80c    0000000c                                    : mac_hl_patch.c.o (.text.OUTLINED_FUNCTION_2)
                  0001a818    0000000c     maclib_osal_tirtos7_cc13x4_26x4.a : osal_port_timers.c.o (.text.OsalPortTimers_registerCleanupEvent)
                  0001a824    0000000c                                       : osal_port.c.o (.text.OsalPort_stopTimer)
                  0001a830    0000000c     drivers_cc13x4.a : PowerCC26X2.c.obj (.text.Power_getConstraintMask)
                  0001a83c    0000000c     rf_multiMode_cc13x4.a : RFCC26X2_multiMode.c.cc13x4.ticlang.o (.text.RF_Params_init)
                  0001a848    0000000c     ti_sysbios_config.o (.text.SemaphoreP_delete)
                  0001a854    0000000c     ti_sysbios_config.o (.text.SwiP_getTrigger)
                  0001a860    0000000c     drivers_cc13x4.a : UART2CC26X2.c.obj (.text.UART2Support_disableTx)
                  0001a86c    0000000c                      : UART2CC26X2.c.obj (.text.UART2Support_enableRx)
                  0001a878    0000000c                      : UART2CC26X2.c.obj (.text.UART2Support_enableTx)
                  0001a884    0000000c                      : UART2.c.obj (.text.UART2_Params_init)
                  0001a890    0000000c     libc.a : _lock.c.obj (.text._register_lock)
                  0001a89c    0000000c            : _lock.c.obj (.text._register_unlock)
                  0001a8a8    0000000c     collector.o (.text.cllcStateChangedCB)
                  0001a8b4    0000000c     maclib_secure_cc13x4_tirtos7.a : mac_mgmt.c.o (.text.macDefaultAction)
                  0001a8c0    0000000c                                    : mac_mgmt.c.o (.text.macIsCsmOperational)
                  0001a8cc    0000000c                                    : mac_main.c.o (.text.macMainSetTaskId)
                  0001a8d8    0000000c                                    : mac_pwr.c.o (.text.macPwrReset)
                  0001a8e4    0000000c                                    : mac_rx.c.o (.text.macRxSequenceNum)
                  0001a8f0    0000000c     maclib_osal_tirtos7_cc13x4_26x4.a : osal_port.c.o (.text.osalHeapInitFxn)
                  0001a8fc    0000000c     csf.o (.text.processIdentifyTimeoutCallback)
                  0001a908    0000000c     ti_sysbios_config.o (.text.pthread_attr_setdetachstate)
                  0001a914    0000000c     ti_sysbios_config.o (.text.pthread_self)
                  0001a920    0000000c     ti_sysbios_config.o (.text.ti_sysbios_knl_ClockSupport_getCurrentTick)
                  0001a92c    0000000c     ti_sysbios_config.o (.text.ti_sysbios_knl_ClockSupport_setNextTick)
                  0001a938    0000000c     ti_sysbios_config.o (.text.ti_sysbios_knl_Clock_tick)
                  0001a944    0000000a     drivers_cc13x4.a : AESCCM.c.obj (.text.AESCCM_Operation_init)
                  0001a94e    0000000a     cui.o (.text.CUI_clientParamsInit)
                  0001a958    0000000a     ti_sysbios_config.o (.text.ClockP_Params_init)
                  0001a962    0000000a     maclib_secure_cc13x4_tirtos7.a : mac_coord.c.o (.text.MAC_MlmeAssociateRsp)
                  0001a96c    0000000a                                    : mac_mgmt.c.o (.text.MAC_MlmeDisassociateReq)
                  0001a976    0000000a                                    : mac_coord.c.o (.text.MAC_MlmeOrphanRsp)
                  0001a980    0000000a     driverlib.lib : vims.c.obj (.text.NOROM_VIMSModeSet)
                  0001a98a    0000000a     collector.o (.text.OUTLINED_FUNCTION_0)
                  0001a994    0000000a     drivers_cc13x4.a : Button.c.obj (.text.OUTLINED_FUNCTION_0)
                  0001a99e    0000000a     macTask.o (.text.OUTLINED_FUNCTION_0)
                  0001a9a8    0000000a     maclib_secure_cc13x4_tirtos7.a : mac_rx.c.o (.text.OUTLINED_FUNCTION_0)
                  0001a9b2    0000000a     api_mac.o (.text.OUTLINED_FUNCTION_1)
                  0001a9bc    0000000a     macTask.o (.text.OUTLINED_FUNCTION_1)
                  0001a9c6    0000000a     maclib_secure_cc13x4_tirtos7.a : mac.c.o (.text.OUTLINED_FUNCTION_1)
                  0001a9d0    0000000a                                    : mac_mgmt.c.o (.text.OUTLINED_FUNCTION_1)
                  0001a9da    0000000a                                    : mac_radio_tx.c.o (.text.OUTLINED_FUNCTION_1)
                  0001a9e4    0000000a                                    : mac_rx.c.o (.text.OUTLINED_FUNCTION_1)
                  0001a9ee    0000000a     macTask.o (.text.OUTLINED_FUNCTION_2)
                  0001a9f8    0000000a     nvocmp.o (.text.OUTLINED_FUNCTION_2)
                  0001aa02    0000000a     cui.o (.text.OUTLINED_FUNCTION_3)
                  0001aa0c    0000000a     maclib_secure_cc13x4_tirtos7.a : mac_hl_patch.c.o (.text.OUTLINED_FUNCTION_4)
                  0001aa16    0000000a     rf_multiMode_cc13x4.a : RFCC26X2_multiMode.c.cc13x4.ticlang.o (.text.OUTLINED_FUNCTION_5)
                  0001aa20    0000000a                           : RFCC26X2_multiMode.c.cc13x4.ticlang.o (.text.OUTLINED_FUNCTION_6)
                  0001aa2a    0000000a     maclib_osal_tirtos7_cc13x4_26x4.a : osal_port.c.o (.text.OsalPort_enterCS)
                  0001aa34    0000000a     drivers_cc13x4.a : PowerCC26X2_helpers.c.obj (.text.PowerCC26X2_sysCtrlStandby)
                  0001aa3e    0000000a     ti_sysbios_config.o (.text.SemaphoreP_pend)
                  0001aa48    0000000a     drivers_cc13x4.a : UART2CC26X2.c.obj (.text.UDMACC26XX_disableAttribute)
                  0001aa52    0000000a                      : UDMACC26XX.c.obj (.text.UDMACC26XX_hwiIntFxn)
                  0001aa5c    0000000a     maclib_osal_tirtos7_cc13x4_26x4.a : mac_util.c.o (.text.Util_copyExtAddr)
                  0001aa66    00000002     --HOLE-- [fill = 0]
                  0001aa68    0000000a     libclang_rt.builtins.a : aeabi_memset.S.obj (.text.__aeabi_memset)
                  0001aa72    0000000a     maclib_secure_cc13x4_tirtos7.a : mac_data.c.o (.text.macDataRxMemFree)
                  0001aa7c    0000000a                                    : mac_mcu.c.o (.text.macMcuRandomByte)
                  0001aa86    0000000a                                    : mac_data.c.o (.text.macSetSched)
                  0001aa90    0000000a     ti_sysbios_config.o (.text.sem_post)
                  0001aa9a    00000008     csf.o (.text.Csf_free)
                  0001aaa2    00000008     maclib_secure_cc13x4_tirtos7.a : mac_coord.c.o (.text.MAC_MlmeStartReq)
                  0001aaaa    00000008                                    : mac_mgmt.c.o (.text.MAC_MlmeSyncReq)
                  0001aab2    00000008     driverlib.lib : cpu.c.obj (.text.NOROM_CPUcpsid)
                  0001aaba    00000008                   : cpu.c.obj (.text.NOROM_CPUcpsie)
                  0001aac2    00000008     drivers_cc13x4.a : NVSCC26XX.c.obj (.text.NVSCC26XX_close)
                  0001aaca    00000008     rf_multiMode_cc13x4.a : RFCC26X2_multiMode.c.cc13x4.ticlang.o (.text.OUTLINED_FUNCTION_1)
                  0001aad2    00000008                           : RFCC26X2_multiMode.c.cc13x4.ticlang.o (.text.OUTLINED_FUNCTION_2)
                  0001aada    00000008     drivers_cc13x4.a : PowerCC26X2_helpers.c.obj (.text.PowerCC26X2_oschfTrySwitchToXosc)
                  0001aae2    00000008     ti_sysbios_config.o (.text.SemaphoreP_Params_init)
                  0001aaea    00000008     maclib_osal_tirtos7_cc13x4_26x4.a : util_timer.c.o (.text.UtilTimer_setTimeout)
                  0001aaf2    00000008                                       : mac_util.c.o (.text.Util_breakUint32)
                  0001aafa    00000002     --HOLE-- [fill = 0]
                  0001aafc    00000008     libc.a : aeabi_portable.c.obj (.text.__aeabi_errno_addr)
                  0001ab04    00000008     libclang_rt.builtins.a : aeabi_memset.S.obj (.text.__aeabi_memclr)
                  0001ab0c    00000008     maclib_secure_cc13x4_tirtos7.a : mac_symbol_timer.c.o (.text.macCsmaTimerExpiry)
                  0001ab14    00000008                                    : mac_mgmt.c.o (.text.macGetCSMPhy)
                  0001ab1c    00000008                                    : mac_pib.c.o (.text.macIEEEGetPhyDesc)
                  0001ab24    00000008                                    : mac.c.o (.text.macRxBackoffTimerExpiry)
                  0001ab2c    00000008                                    : mac.c.o (.text.macTxBackoffTimerExpiry)
                  0001ab34    00000008     ti_sysbios_config.o (.text.pthread_mutex_lock)
                  0001ab3c    00000008     ti_sysbios_config.o (.text.ti_sysbios_runtime_System_exit)
                  0001ab44    00000006     drivers_cc13x4.a : AESCCMCC26X4.c.obj (.text.AESCCM_oneStepDecrypt)
                  0001ab4a    00000006                      : AESCCMCC26X4.c.obj (.text.AESCCM_oneStepEncrypt)
                  0001ab50    00000006                      : Button.c.obj (.text.Button_setCallback)
                  0001ab56    00000006     cui.o (.text.CUI_paramsInit)
                  0001ab5c    00000006     ti_sysbios_config.o (.text.ClockP_stop)
                  0001ab62    00000006     drivers_cc13x4.a : GPIOCC26XX.c.obj (.text.GPIO_setConfig)
                  0001ab68    00000006     ti_sysbios_config.o (.text.HwiP_restore)
                  0001ab6e    00000006     main.o (.text.Main_excHandler)
                  0001ab74    00000006     driverlib.lib : cpu.c.obj (.text.NOROM_CPUdelay)
                  0001ab7a    00000006     drivers_cc13x4.a : NVSCC26XX.c.obj (.text.NVSCC26XX_control)
                  0001ab80    00000006                      : NVS.c.obj (.text.NVS_erase)
                  0001ab86    00000006                      : NVS.c.obj (.text.NVS_getAttrs)
                  0001ab8c    00000006                      : UART2.c.obj (.text.OUTLINED_FUNCTION_0)
                  0001ab92    00000006     maclib_secure_cc13x4_tirtos7.a : mac_tx.c.o (.text.OUTLINED_FUNCTION_0)
                  0001ab98    00000006                                    : mac_hl_patch.c.o (.text.OUTLINED_FUNCTION_1)
                  0001ab9e    00000006     cui.o (.text.OUTLINED_FUNCTION_2)
                  0001aba4    00000006     rf_multiMode_cc13x4.a : RFCC26X2_multiMode.c.cc13x4.ticlang.o (.text.OUTLINED_FUNCTION_7)
                  0001abaa    00000006     maclib_osal_tirtos7_cc13x4_26x4.a : osal_port.c.o (.text.OsalPort_clockFunc)
                  0001abb0    00000006                                       : osal_port.c.o (.text.OsalPort_leaveCS)
                  0001abb6    00000006     drivers_cc13x4.a : PWM.c.obj (.text.PWM_close)
                  0001abbc    00000006                      : PWM.c.obj (.text.PWM_setDuty)
                  0001abc2    00000006                      : PWM.c.obj (.text.PWM_start)
                  0001abc8    00000006     rf_multiMode_cc13x4.a : RFCC26X2_multiMode.c.cc13x4.ticlang.o (.text.RF_RatConfigOutput_init)
                  0001abce    00000006                           : RFCC26X2_multiMode.c.cc13x4.ticlang.o (.text.RF_clkReqAccess)
                  0001abd4    00000006                           : RFCC26X2_multiMode.c.cc13x4.ticlang.o (.text.RF_runDirectCmd)
                  0001abda    00000006                           : RFCC26X2_multiMode.c.cc13x4.ticlang.o (.text.RF_runImmediateCmd)
                  0001abe0    00000006     maclib_osal_tirtos7_cc13x4_26x4.a : mac_util.c.o (.text.Util_buildUint16)
                  0001abe6    00000006     main.o (.text.assertHandler)
                  0001abec    00000006     maclib_secure_cc13x4_tirtos7.a : mac_mgmt.c.o (.text.macApiBadState)
                  0001abf2    00000006                                    : mac_mgmt.c.o (.text.macApiUnsupported)
                  0001abf8    00000006                                    : mac_radio_tx.c.o (.text.macRadioTxGoGreenPower)
                  0001abfe    00000006                                    : mac_radio_tx.c.o (.text.macRadioTxGoSlotted)
                  0001ac04    00000006                                    : mac_mgmt.c.o (.text.macSecCpy)
                  0001ac0a    00000006                                    : mac_hl_patch.c.o (.text.macTxBackoffHandler)
                  0001ac10    00000006                                    : mac_mgmt.c.o (.text.macTxCsmaDelay)
                  0001ac16    00000006     maclib_osal_tirtos7_cc13x4_26x4.a : osal_port.c.o (.text.osalHeapAllocFxn)
                  0001ac1c    00000006                                       : osal_port.c.o (.text.osalHeapFreeFxn)
                  0001ac22    00000006                                       : osal_port.c.o (.text.osalHeapGetStatsFxn)
                  0001ac28    00000006     ti_sysbios_config.o (.text.pthread_attr_setstacksize)
                  0001ac2e    00000006     maclib_secure_cc13x4_tirtos7.a : saddr.c.o (.text.sAddrExtCpy)
                  0001ac34    00000006     ti_sysbios_config.o (.text.ti_sysbios_family_arm_v8m_Hwi_destruct)
                  0001ac3a    00000006     ti_sysbios_config.o (.text.ti_sysbios_family_arm_v8m_Hwi_doSwiRestore)
                  0001ac40    00000006     ti_sysbios_config.o (.text.ti_sysbios_family_arm_v8m_Hwi_doTaskRestore)
                  0001ac46    00000006     ti_sysbios_config.o (.text.ti_sysbios_heaps_HeapCallback_alloc)
                  0001ac4c    00000006     ti_sysbios_config.o (.text.ti_sysbios_heaps_HeapCallback_free)
                  0001ac52    00000006     ti_sysbios_config.o (.text.ti_sysbios_heaps_HeapCallback_getStats)
                  0001ac58    00000006     ti_sysbios_config.o (.text.ti_sysbios_heaps_HeapCallback_isBlocking)
                  0001ac5e    00000006     ti_sysbios_config.o (.text.ti_sysbios_knl_Idle_loop)
                  0001ac64    00000006     ti_sysbios_config.o (.text.ti_sysbios_knl_Swi_startup)
                  0001ac6a    00000004     api_mac.o (.text.ApiMac_mcpsDataReq)
                  0001ac6e    00000004     api_mac.o (.text.ApiMac_mlmeAssociateRsp)
                  0001ac72    00000004     api_mac.o (.text.ApiMac_mlmeDisassociateReq)
                  0001ac76    00000004     api_mac.o (.text.ApiMac_mlmeGetReqArray)
                  0001ac7a    00000004     api_mac.o (.text.ApiMac_mlmeGetReqUint16)
                  0001ac7e    00000004     api_mac.o (.text.ApiMac_mlmeGetReqUint32)
                  0001ac82    00000004     api_mac.o (.text.ApiMac_mlmeGetReqUint8)
                  0001ac86    00000004     api_mac.o (.text.ApiMac_mlmeOrphanRsp)
                  0001ac8a    00000004     api_mac.o (.text.ApiMac_mlmeScanReq)
                  0001ac8e    00000004     api_mac.o (.text.ApiMac_mlmeSetSecurityReqArray)
                  0001ac92    00000004     api_mac.o (.text.ApiMac_mlmeSetSecurityReqStruct)
                  0001ac96    00000004     api_mac.o (.text.ApiMac_mlmeStartReq)
                  0001ac9a    00000004     api_mac.o (.text.ApiMac_secAddDevice)
                  0001ac9e    00000004     api_mac.o (.text.ApiMac_secAddKeyInitFrameCounter)
                  0001aca2    00000004     api_mac.o (.text.ApiMac_secDeleteDevice)
                  0001aca6    00000004     ti_sysbios_config.o (.text.ClockP_destruct)
                  0001acaa    00000004     ti_sysbios_config.o (.text.ClockP_getSystemTickPeriod)
                  0001acae    00000004     ti_sysbios_config.o (.text.ClockP_getSystemTicks)
                  0001acb2    00000004     ti_sysbios_config.o (.text.ClockP_getTimeout)
                  0001acb6    00000004     ti_sysbios_config.o (.text.ClockP_isActive)
                  0001acba    00000004     ti_sysbios_config.o (.text.ClockP_setTimeout)
                  0001acbe    00000004     ti_sysbios_config.o (.text.ClockP_start)
                  0001acc2    00000004     csf.o (.text.Csf_malloc)
                  0001acc6    00000004     ti_sysbios_config.o (.text.HwiP_destruct)
                  0001acca    00000004     ti_sysbios_config.o (.text.HwiP_enableInterrupt)
                  0001acce    00000004     driverlib.lib : ddi.c.obj (.text.NOROM_DDI32RegWrite)
                  0001acd2    00000004     rf_multiMode_cc13x4.a : rfc.c.cc13x4.ticlang.o (.text.NOROM_RFCOverrideUpdate)
                  0001acd6    00000004     maclib_osal_tirtos7_cc13x4_26x4.a : osal_port.c.o (.text.OsalPort_free)
                  0001acda    00000004                                       : osal_port.c.o (.text.OsalPort_malloc)
                  0001acde    00000004     drivers_cc13x4.a : PowerCC26X2_helpers.c.obj (.text.PowerCC26X2_oscClockSourceGet)
                  0001ace2    00000004                      : PowerCC26X2_helpers.c.obj (.text.PowerCC26X2_oschfSwitchToRcosc)
                  0001ace6    00000004                      : PowerCC26X2_helpers.c.obj (.text.PowerCC26X2_setPeriphDeepSleepEnable)
                  0001acea    00000004                      : PowerCC26X2_helpers.c.obj (.text.PowerCC26X2_sysCtrlGetResetSource)
                  0001acee    00000004                      : PowerCC26X2_helpers.c.obj (.text.PowerCC26X2_sysCtrlIdle)
                  0001acf2    00000004                      : PowerCC26X2_helpers.c.obj (.text.PowerCC26X2_sysCtrlUpdateVoltageRegulator)
                  0001acf6    00000004                      : PowerCC26X2_helpers.c.obj (.text.PowerCC26X2_turnOnXosc)
                  0001acfa    00000004     rf_multiMode_cc13x4.a : RFCC26X2_multiMode.c.cc13x4.ticlang.o (.text.RF_defaultExecutionPolicy)
                  0001acfe    00000004     ti_sysbios_config.o (.text.ResetISR)
                  0001ad02    00000004     drivers_cc13x4.a : RingBuf.c.obj (.text.RingBuf_getCount)
                  0001ad06    00000004     ti_sysbios_config.o (.text.SemaphoreP_destruct)
                  0001ad0a    00000004     ti_sysbios_config.o (.text.SemaphoreP_post)
                  0001ad0e    00000004     ti_sysbios_config.o (.text.SwiP_destruct)
                  0001ad12    00000004     ti_sysbios_config.o (.text.SwiP_or)
                  0001ad16    00000004     ti_sysbios_config.o (.text.SwiP_restore)
                  0001ad1a    00000004     ti_sysbios_config.o (.text.SystemP_vsnprintf)
                  0001ad1e    00000004     drivers_cc13x4.a : TRNGCC26XX.c.obj (.text.TRNG_generateEntropy)
                  0001ad22    00000004     maclib_osal_tirtos7_cc13x4_26x4.a : util_timer.c.o (.text.UtilTimer_isActive)
                  0001ad26    00000004                                       : util_timer.c.o (.text.UtilTimer_start)
                  0001ad2a    00000004                                       : util_timer.c.o (.text.UtilTimer_stop)
                  0001ad2e    00000004                                       : mac_util.c.o (.text.Util_hiUint16)
                  0001ad32    00000004                                       : mac_util.c.o (.text.Util_loUint16)
                  0001ad36    00000002     --HOLE-- [fill = 0]
                  0001ad38    00000004     libclang_rt.builtins.a : aeabi_memcpy.S.obj (.text.__aeabi_memcpy)
                  0001ad3c    00000004     ti_sysbios_config.o (.text._system_post_cinit)
                  0001ad40    00000004     ti_sysbios_config.o (.text._system_pre_init)
                  0001ad44    00000004     drivers_cc13x4.a : PowerCC26X2.c.obj (.text.configureRFCoreClocks)
                  0001ad48    00000004     maclib_secure_cc13x4_tirtos7.a : mac_mgmt.c.o (.text.macBcTimerHandler)
                  0001ad4c    00000004                                    : mac_data.c.o (.text.macDataTxDelayCallback)
                  0001ad50    00000004                                    : mac_hl_patch.c.o (.text.macPibCheckByPatch)
                  0001ad54    00000004                                    : mac_radio.c.o (.text.macRadioRandomByte)
                  0001ad58    00000004                                    : mac_hl_patch.c.o (.text.macRxBackoffHandler)
                  0001ad5c    00000004                                    : mac_symbol_timer.c.o (.text.macSymbolTimerPwrNotify)
                  0001ad60    00000004                                    : mac_symbol_timer.c.o (.text.macSymbolTimerReset)
                  0001ad64    00000004                                    : mac_tx.c.o (.text.macTxAckIsr)
                  0001ad68    00000004     drivers_cc13x4.a : PowerCC26X2.c.obj (.text.nopResourceHandler)
                  0001ad6c    00000004     maclib_osal_tirtos7_cc13x4_26x4.a : osal_port.c.o (.text.osalHeapIsBlockingFxn)

__llvm_prf_cnts 
*          0    20000000    00000000     UNINITIALIZED

__llvm_prf_bits 
*          0    20000000    00000000     UNINITIALIZED

.TI.bound:dmaUart1RxControlTableEntry 
*          0    20000450    00000010     UNINITIALIZED
                  20000450    00000010     ti_drivers_config.o (.TI.bound:dmaUart1RxControlTableEntry)

.TI.bound:dmaUart1TxControlTableEntry 
*          0    20000460    00000010     UNINITIALIZED
                  20000460    00000010     ti_drivers_config.o (.TI.bound:dmaUart1TxControlTableEntry)

.args      0    0001c894    00000008     
                  0001c894    00000008     --HOLE-- [fill = 0]

.bss.1     0    20000000    00000450     UNINITIALIZED
                  20000000    000002c0     rf_multiMode_cc13x4.a : RFCC26X2_multiMode.c.cc13x4.ticlang.o (.bss.RF_cmdPool)
                  200002c0    00000170     (.common:uart2CC26X2Objects)
                  20000430    00000020     ti_drivers_config.o (.bss.uart2RxRingBuffer0)

.bss.2     0    20000470    000025a9     UNINITIALIZED
                  20000470    00000800     (.common:tBuffer)
                  20000c70    00000258     (.common:Cllc_associatedDevList)
                  20000ec8    00000200     cui.o (.bss.gTxBuff)
                  200010c8    00000200     (.common:ti_sysbios_knl_Idle_taskStack)
                  200012c8    000001a5     (.common:menuBuff)
                  2000146d    00000001     macTask.o (.bss._macTaskId)
                  2000146e    00000002     maclib_secure_cc13x4_tirtos7.a : mac_hl_patch.c.o (.bss.macEdScanISR.scanDurationMs)
                  20001470    00000168     (.common:taskTbl)
                  200015d8    00000100                                    : mac_radio.c.o (.bss.RF_object)
                  200016d8    000000fc     (.common:ti_sysbios_family_arm_v8m_Hwi_dispatchTable)
                  200017d4    000000fa     (.common:enhancedAckBuf)
                  200018ce    00000002                                    : mac_radio.c.o (.bss.macSavedPanID)
                  200018d0    000000c0     (.common:gpioCallbackFunctions)
                  20001990    000000c0     (.common:gpioUserArgs)
                  20001a50    000000b8     (.common:LEDObjects)
                  20001b08    00000088     (.common:FH_hnd)
                  20001b90    00000088     (.common:macPib)
                  20001c18    00000068     rf_multiMode_cc13x4.a : RFCC26X2_multiMode.c.cc13x4.ticlang.o (.bss.RF_ratModule)
                  20001c80    00000064     (.common:aesccmCC26X4Objects)
                  20001ce4    00000004     cllc.o (.bss.maintainAssocTable.pItem)
                  20001ce8    00000060     (.common:ti_sysbios_knl_ClockSupport_timerStruct)
                  20001d48    00000058     (.common:RF_cmdIEEERx)
                  20001da0    00000058     (.common:ti_sysbios_knl_Idle_taskStruct)
                  20001df8    00000054     (.common:macScan)
                  20001e4c    00000050     cui.o (.bss.gClientsSemStruct)
                  20001e9c    00000050     cui.o (.bss.gMenuSemStruct)
                  20001eec    00000050     cui.o (.bss.gStatusSemStruct)
                  20001f3c    00000050     cui.o (.bss.gUartSemStruct)
                  20001f8c    00000050     (.common:CryptoResourceCC26XX_accessSemaphore)
                  20001fdc    00000050     (.common:CryptoResourceCC26XX_operationSemaphore)
                  2000202c    0000004c     (.common:cuiMultiMenuData)
                  20002078    00000048     (.common:ButtonObjects)
                  200020c0    00000046     (.common:NVOCMP_nvHandle)
                  20002106    00000002     csf.o (.bss.setPanIdAction.panId)
                  20002108    00000044     rf_multiMode_cc13x4.a : RFCC26X2_multiMode.c.cc13x4.ticlang.o (.bss.RF_clkInactivityObj)
                  2000214c    00000044                           : RFCC26X2_multiMode.c.cc13x4.ticlang.o (.bss.RF_clkPowerUpObj)
                  20002190    00000044     csf.o (.bss.broadcastClkStruct)
                  200021d4    00000044     csf.o (.bss.configClkStruct)
                  20002218    00000044     csf.o (.bss.identifyClkStruct)
                  2000225c    00000044     csf.o (.bss.joinClkStruct)
                  200022a0    00000044     csf.o (.bss.trackingClkStruct)
                  200022e4    00000040     (.common:macSecurityPib)
                  20002324    0000003c     rf_multiMode_cc13x4.a : RFCC26X2_multiMode.c.cc13x4.ticlang.o (.bss.RF_swiHwObj)
                  20002360    0000003c     (.common:Collector_statistics)
                  2000239c    00000034     (.common:dcBucket)
                  200023d0    00000034     (.common:macBeaconDevice)
                  20002404    00000030     (.common:RF_cmdPropRadioDivSetup)
                  20002434    00000030     (.common:RF_cmdPropRxAdv)
                  20002464    00000030     (.common:macMgmtAction1)
                  20002494    00000030     (.common:macSrcExtAddrList)
                  200024c4    00000030     (.common:ti_sysbios_knl_Swi_readyQs)
                  200024f4    00000030     (.common:ti_sysbios_knl_Task_readyQs)
                  20002524    0000002c     (.common:macCoord)
                  20002550    0000002c     (.common:macDevice)
                  2000257c    00000024     collector.o (.bss.dataRequestMsduMappingTable)
                  200025a0    00000020     ti_drivers_config.o (.bss.uart2TxRingBuffer0)
                  200025c0    00000020     (.common:RF_cmdIEEECsma)
                  200025e0    00000020     (.common:RF_cmdPropTxAdv)
                  20002600    00000020     (.common:RF_cmdRadioSetup)
                  20002620    00000020     (.common:RF_params)
                  20002640    00000020     (.common:macBeacon)
                  20002660    00000020     (.common:udmaCC26XXObject)
                  20002680    0000001c     api_mac.o (.bss.appSemHandle)
                  2000269c    0000001c     drivers_cc13x4.a : GPIOCC26X4.c.obj (.bss.gpioHwi)
                  200026b8    0000001c     ti_sysbios_config.o (.bss.sem)
                  200026d4    0000001c     (.common:BIOS_heapCallbackObject)
                  200026f0    0000001c     (.common:BIOS_rtsGate)
                  2000270c    0000001c     (.common:CryptoResourceCC26XX_hwi)
                  20002728    0000001c     (.common:RF_cmdPropCs)
                  20002744    0000001c     (.common:RF_cmdPropCsSlotted)
                  20002760    0000001c     (.common:macCoordAction2)
                  2000277c    0000001c     (.common:macReset)
                  20002798    0000001c     (.common:macSemHandle)
                  200027b4    0000001c     (.common:macSrcShortAddrList)
                  200027d0    00000018     (.common:RF_cmdFsRx)
                  200027e8    00000018     (.common:RF_cmdFsTx)
                  20002800    00000018     (.common:RF_cmdIEEETx)
                  20002818    00000018     (.common:macScanAction)
                  20002830    00000014     maclib_secure_cc13x4_tirtos7.a : mac_symbol_timer.c.o (.bss.macSymbolPwrNotifyObj)
                  20002844    00000014     drivers_cc13x4.a : Random.c.obj (.bss.state)
                  20002858    00000014     (.common:RF_cmdRxAckCmd)
                  2000286c    00000014     (.common:macAckDbg)
                  20002880    00000014     (.common:macMgmtAction2)
                  20002894    00000012     (.common:macStatistics)
                  200028a6    00000011     csf.o (.bss.setChMaskAction.channelMask)
                  200028b7    00000010     csf.o (.bss.setNwkKeyAction.defaultNwkKey)
                  200028c7    00000001     main.o (.bss._macTaskId)
                  200028c8    00000010     (.common:macCoordAction3)
                  200028d8    00000010     (.common:macData)
                  200028e8    00000010     (.common:macDataTxDelay)
                  200028f8    00000010     (.common:macFrmFilter)
                  20002908    00000010     (.common:macRxOutputIeee)
                  20002918    0000000c     (.common:coexMetricsStruct)
                  20002924    0000000c     (.common:macMain)
                  20002930    0000000c     (.common:macRxOutputSubG)
                  2000293c    00000008     (.common:ApiMac_extAddr)
                  20002944    00000008     (.common:coexOverrideUseCases)
                  2000294c    00000008     (.common:macCoordAction1)
                  20002954    00000008     (.common:macRxDataEntryQueue)
                  2000295c    00000004     collector.o (.bss.sem)
                  20002960    00000004     (.common:AESCCM_handle)
                  20002964    00000004     (.common:HEAPMGR_SIZE)
                  20002968    00000004     (.common:PowerCC26XX_swiKey)
                  2000296c    00000004     (.common:PowerCC26XX_taskKey)
                  20002970    00000004     (.common:appThread)
                  20002974    00000004     (.common:collectorStatusLine)
                  20002978    00000004     (.common:csfCuiHndl)
                  2000297c    00000004     (.common:dcCritical)
                  20002980    00000004     (.common:dcLimited)
                  20002984    00000004     (.common:dcPtr)
                  20002988    00000004     (.common:dcRegulated)
                  2000298c    00000004     (.common:dcTimeUsed)
                  20002990    00000004     (.common:deviceStatusLine)
                  20002994    00000004     (.common:macCryptoDrvTblPtr)
                  20002998    00000004     (.common:macPhyTxPower)
                  2000299c    00000004     (.common:macPrevPeriodRatCount)
                  200029a0    00000004     (.common:macRfDrvTblPtr)
                  200029a4    00000004     (.common:macRxSymbol)
                  200029a8    00000004     (.common:macSymbolTimerRollover)
                  200029ac    00000004     (.common:macSymbolTimerTrigger)
                  200029b0    00000004     (.common:macThread)
                  200029b4    00000004     (.common:macTimerActive)
                  200029b8    00000004     (.common:macTxTimestamp)
                  200029bc    00000004     (.common:numJoinDevStatusLine)
                  200029c0    00000004     (.common:pClockHandleEDScan)
                  200029c4    00000004     (.common:pMacRadioConfig)
                  200029c8    00000004     (.common:pMaxPower)
                  200029cc    00000004     (.common:pRfMode)
                  200029d0    00000004     (.common:pRfPowerTable)
                  200029d4    00000004     (.common:rxRadioBufferPtr)
                  200029d8    00000004     (.common:ti_sysbios_family_arm_v8m_cc26x4_Timer_funcHookCH1)
                  200029dc    00000004     (.common:ti_sysbios_family_arm_v8m_cc26x4_Timer_funcHookCH2)
                  200029e0    00000004     (.common:ti_sysbios_knl_Task_defaultStackHeap)
                  200029e4    00000004     (.common:ti_sysbios_runtime_System_atexitHandlers)
                  200029e8    00000004     (.common:timerAlignedQ)
                  200029ec    00000004     (.common:timerUnalignedQ)
                  200029f0    00000002     (.common:macRxDataEntryOffset)
                  200029f2    00000002     (.common:macTxCsmaBackoffDelay)
                  200029f4    00000002     (.common:rxCmdHandle)
                  200029f6    00000002     (.common:txCmdHandle)
                  200029f8    00000001     maclib_secure_cc13x4_tirtos7.a : mac_symbol_timer.c.o (.bss.macSymbolTimerEvents)
                  200029f9    00000001                                    : mac_radio.c.o (.bss.radioInitFlag)
                  200029fa    00000001     (.common:AppTaskId)
                  200029fb    00000001     (.common:NVOCMP_size)
                  200029fc    00000001     (.common:appTaskId)
                  200029fd    00000001     (.common:dcStatus)
                  200029fe    00000001     (.common:gAction)
                  200029ff    00000001     (.common:lastRxPriority)
                  20002a00    00000001     (.common:lastTxPriority)
                  20002a01    00000001     (.common:macAckTxActive)
                  20002a02    00000001     (.common:macMgmt)
                  20002a03    00000001     (.common:macPanCoordinator)
                  20002a04    00000001     (.common:macPhyChannel)
                  20002a05    00000001     (.common:macPwr)
                  20002a06    00000001     (.common:macRxActive)
                  20002a07    00000001     (.common:macRxEnableFlags)
                  20002a08    00000001     (.common:macRxFilter)
                  20002a09    00000001     (.common:macRxOutgoingAckFlag)
                  20002a0a    00000001     (.common:macSpecUsecsPerSymbol)
                  20002a0b    00000001     (.common:macSrcResIndex)
                  20002a0c    00000001     (.common:macSymbolTimerImpending)
                  20002a0d    00000001     (.common:macTaskId)
                  20002a0e    00000001     (.common:macTxActive)
                  20002a0f    00000001     (.common:macTxBe)
                  20002a10    00000001     (.common:macTxGpInterframeDelay)
                  20002a11    00000001     (.common:macTxType)
                  20002a12    00000001     (.common:macUnitBackoffPeriod)
                  20002a13    00000001     (.common:nvsCC26XXObjects)
                  20002a14    00000001     (.common:rxFhRsl)
                  20002a15    00000001     (.common:rxPromiscuousMode)
                  20002a16    00000001     (.common:rxSeqNum)
                  20002a17    00000001     (.common:txAckReq)
                  20002a18    00000001     (.common:txSeqn)

MODULE SUMMARY

       Module                                           code     ro data   rw data
       ------                                           ----     -------   -------
    .\application\
       main.o                                           264      8         118    
    +--+------------------------------------------------+--------+---------+---------+
       Total:                                           264      8         118    
                                                                                  
    .\application\collector\
       csf.o                                            5792     1404      783    
       collector.o                                      3390     17        196    
    +--+------------------------------------------------+--------+---------+---------+
       Total:                                           9182     1421      979    
                                                                                  
    .\application\collector\link_controller\
       cllc.o                                           2332     57        766    
    +--+------------------------------------------------+--------+---------+---------+
       Total:                                           2332     57        766    
                                                                                  
    .\application\cui\
       cui.o                                            3034     382       1487   
    +--+------------------------------------------------+--------+---------+---------+
       Total:                                           3034     382       1487   
                                                                                  
    .\software_stack\ti15_4stack\mac\
       api_mac.o                                        1812     0         48     
       macTask.o                                        1044     19        54     
    +--+------------------------------------------------+--------+---------+---------+
       Total:                                           2856     19        102    
                                                                                  
    .\software_stack\ti15_4stack\mac\mac_settings\
       mac_settings.o                                   468      0         460    
       mac_cfg.o                                        0        552       208    
       mac_user_config.o                                32       204       0      
    +--+------------------------------------------------+--------+---------+---------+
       Total:                                           500      756       668    
                                                                                  
    .\software_stack\ti15_4stack\nv\
       nvocmp.o                                         6346     0         2201   
       crc.o                                            28       256       0      
    +--+------------------------------------------------+--------+---------+---------+
       Total:                                           6374     256       2201   
                                                                                  
    .\syscfg\
       ti_drivers_config.o                              230      247       34197  
       ti_sysbios_config.o                              9614     756       1820   
       ti_radio_config.o                                0        172       160    
       ti_devices_config.o                              0        124       0      
    +--+------------------------------------------------+--------+---------+---------+
       Total:                                           9844     1299      36177  
                                                                                  
    C:/ti/simplelink_cc13xx_cc26xx_sdk_7_40_00_77/kernel/tirtos7/packages/ti/sysbios/lib/ticlang/m33f/sysbios.a
       Hwi_asm_gcc.s.obj                                316      0         0      
       Hwi_asm_switch_gcc.s.obj                         126      0         0      
       TaskSupport_asm_gcc.s.obj                        84       0         0      
       boot_cortex_m.c.obj                              52       0         0      
    +--+------------------------------------------------+--------+---------+---------+
       Total:                                           578      0         0      
                                                                                  
    C:/ti/simplelink_cc13xx_cc26xx_sdk_7_40_00_77/source/ti/devices/cc13x4_cc26x4/driverlib/bin/ticlang/driverlib.lib
       setup_rom.c.obj                                  1104     0         0      
       prcm.c.obj                                       468      84        0      
       interrupt.c.obj                                  296      0         252    
       aes.c.obj                                        436      0         0      
       osc.c.obj                                        384      0         32     
       setup.c.obj                                      412      0         0      
       sys_ctrl.c.obj                                   408      0         0      
       chipinfo.c.obj                                   224      0         0      
       uart.c.obj                                       80       0         0      
       trng.c.obj                                       76       0         0      
       ddi.c.obj                                        74       0         0      
       udma.c.obj                                       70       0         0      
       aux_sysif.c.obj                                  56       8         0      
       aon_batmon.c.obj                                 40       0         0      
       aon_event.c.obj                                  40       0         0      
       vims.c.obj                                       26       0         0      
       cpu.c.obj                                        22       0         0      
       aon_rtc.c.obj                                    20       0         0      
       ioc.c.obj                                        16       0         0      
    +--+------------------------------------------------+--------+---------+---------+
       Total:                                           4252     92        284    
                                                                                  
    C:/ti/simplelink_cc13xx_cc26xx_sdk_7_40_00_77/source/ti/drivers/lib/ticlang/m33f/drivers_cc13x4.a
       PowerCC26X2.c.obj                                1838     104       380    
       UART2CC26X2.c.obj                                2264     21        0      
       AESCCMCC26X4.c.obj                               2056     0         1      
       UART2.c.obj                                      1636     36        0      
       TRNGCC26XX.c.obj                                 980      0         104    
       NVSCC26XX.c.obj                                  890      40        12     
       PowerCC26X2_calibrateRCOSC.c.obj                 836      0         0      
       Button.c.obj                                     698      30        0      
       LED.c.obj                                        704      8         0      
       GPIOCC26X4.c.obj                                 400      0         29     
       PowerCC26X2_helpers.c.obj                        366      0         0      
       PowerCC26X2_calibrateRCOSC_helpers.c.obj         364      0         0      
       GPIOCC26XX.c.obj                                 330      0         0      
       RingBuf.c.obj                                    300      0         0      
       CryptoResourceCC26XX.c.obj                       98       0         189    
       List.c.obj                                       206      0         0      
       Random.c.obj                                     164      12        20     
       StructRingBuf.c.obj                              194      0         0      
       PWM.c.obj                                        166      24        1      
       UDMACC26XX.c.obj                                 166      0         0      
       NVS.c.obj                                        160      4         1      
       GPIO.c.obj                                       88       0         0      
       CryptoUtils.c.obj                                78       0         0      
       AESCCM.c.obj                                     42       16        0      
       CryptoKeyPlaintext.c.obj                         24       0         0      
       TRNG.c.obj                                       0        20        0      
    +--+------------------------------------------------+--------+---------+---------+
       Total:                                           15048    315       737    
                                                                                  
    C:/ti/simplelink_cc13xx_cc26xx_sdk_7_40_00_77/source/ti/drivers/rf/lib/ticlang/m33f/rf_multiMode_cc13x4.a
       RFCC26X2_multiMode.c.cc13x4.ticlang.o            10070    40        1316   
       rf_patch_cpe_multi_protocol.c.cc13x4.ticlang.o   152      1576      1      
       rfc.c.cc13x4.ticlang.o                           268      0         0      
    +--+------------------------------------------------+--------+---------+---------+
       Total:                                           10490    1616      1317   
                                                                                  
    C:/ti/simplelink_cc13xx_cc26xx_sdk_7_40_00_77/source/ti/ti154stack/lib/ticlang/m33f/maclib_osal_tirtos7_cc13x4_26x4.a
       osal_port.c.o                                    1712     0         388    
       util_timer.c.o                                   106      0         0      
       mac_util.c.o                                     94       0         0      
       osal_port_timers.c.o                             64       0         16     
    +--+------------------------------------------------+--------+---------+---------+
       Total:                                           1976     0         404    
                                                                                  
    C:/ti/simplelink_cc13xx_cc26xx_sdk_7_40_00_77/source/ti/ti154stack/lib/ticlang/m33f/maclib_secure_cc13x4_tirtos7.a
       mac_hl_patch.c.o                                 7470     0         12     
       mac_radio_tx.c.o                                 4736     0         14     
       mac_mgmt.c.o                                     3430     0         0      
       mac.c.o                                          3218     0         193    
       mac_rx.c.o                                       3272     8         40     
       mac_tx.c.o                                       2996     0         43     
       mac_coord.c.o                                    2934     0         0      
       mac_radio.c.o                                    2456     40        323    
       mac_data.c.o                                     2066     0         0      
       hmac_global.c.o                                  0        589       1206   
       mac_security_pib.c.o                             1456     0         0      
       mac_symbol_timer.c.o                             1070     0         39     
       mac_timer.c.o                                    1050     0         0      
       mac_autopend.c.o                                 858      0         4      
       mac_duty_cycle.c.o                               736      16        98     
       mac_scan.c.o                                     850      0         0      
       mac_main.c.o                                     628      0         0      
       mac_pib.c.o                                      616      0         0      
       mac_rx_onoff.c.o                                 496      0         1      
       mac_ie_build.c.o                                 448      0         0      
       mac_mcu.c.o                                      412      0         4      
       mac_low_level.c.o                                180      0         32     
       mac_beacon_device.c.o                            208      0         0      
       mac_ie_parse.c.o                                 208      0         0      
       mac_pwr.c.o                                      138      0         1      
       fh_global.c.o                                    0        0         136    
       mac_beacon.c.o                                   108      0         0      
       saddr.c.o                                        96       0         0      
       mac_sleep.c.o                                    92       0         0      
       lmac_global.c.o                                  0        0         11     
    +--+------------------------------------------------+--------+---------+---------+
       Total:                                           42228    653       2157   
                                                                                  
    C:\ti\ccs1270\ccs\tools\compiler\ti-cgt-armllvm_3.2.2.LTS\lib\armv8m.main-ti-none-eabihf/c/libc.a
       strtol.c.obj                                     312      0         0      
       aeabi_ctype.S.obj                                0        257       0      
       copy_decompress_lzss.c.obj                       112      0         0      
       atoi.c.obj                                       64       0         0      
       autoinit.c.obj                                   56       0         0      
       _lock.c.obj                                      26       0         8      
       args_main.c.obj                                  20       0         0      
       memcpy_t2.S.obj                                  18       0         0      
       copy_zero_init.c.obj                             16       0         0      
       copy_decompress_none.c.obj                       14       0         0      
       memset_t2.S.obj                                  14       0         0      
       aeabi_portable.c.obj                             8        0         4      
    +--+------------------------------------------------+--------+---------+---------+
       Total:                                           660      257       12     
                                                                                  
    C:\ti\ccs1270\ccs\tools\compiler\ti-cgt-armllvm_3.2.2.LTS\lib\clang/15.0.7/lib/armv8m.main-ti-none-eabihf/libclang_rt.builtins.a
       udivmoddi4.S.obj                                 176      0         0      
       ashldi3.S.obj                                    30       0         0      
       aeabi_uldivmod.S.obj                             20       0         0      
       aeabi_memset.S.obj                               18       0         0      
       aeabi_memcpy.S.obj                               4        0         0      
       aeabi_div0.c.obj                                 2        0         0      
    +--+------------------------------------------------+--------+---------+---------+
       Total:                                           250      0         0      
                                                                                  
       Stack:                                           0        0         1024   
       Linker Generated:                                0        953       0      
    +--+------------------------------------------------+--------+---------+---------+
       Grand Total:                                     109868   8084      48433  


LINKER GENERATED COPY TABLES

__TI_cinit_table @ 0001cc28 records: 6, size/record: 8, table size: 48
	.data: load addr=0001c89c, load size=00000355 bytes, run addr=20002b00, run size=00000d20 bytes, compression=lzss
	.TI.bound:dmaUart1RxControlTableEntry: load addr=0001cc00, load size=00000008 bytes, run addr=20000450, run size=00000010 bytes, compression=zero_init
	.TI.bound:dmaUart1TxControlTableEntry: load addr=0001cc08, load size=00000008 bytes, run addr=20000460, run size=00000010 bytes, compression=zero_init
	.bss.1: load addr=0001cc10, load size=00000008 bytes, run addr=20000000, run size=00000450 bytes, compression=zero_init
	.bss.2: load addr=0001cc18, load size=00000008 bytes, run addr=20000470, run size=000025a9 bytes, compression=zero_init
	.ramVecs: load addr=0001cc20, load size=00000008 bytes, run addr=20003900, run size=000001fc bytes, compression=zero_init


LINKER GENERATED HANDLER TABLE

__TI_handler_table @ 0001cbf4 records: 3, size/record: 4, table size: 12
	index: 0, handler: __TI_zero_init
	index: 1, handler: __TI_decompress_lzss
	index: 2, handler: __TI_decompress_none


SEGMENT ATTRIBUTES

    id tag       seg value 
    -- ---       --- ----- 
     0 PHA_BOUND 3   (null)
     1 PHA_BOUND 5   (null)


GLOBAL SYMBOLS: SORTED ALPHABETICALLY BY Name 

address   name                                                             
-------   ----                                                             
0001a945  AESCCM_Operation_init                                            
0001a291  AESCCM_Params_init                                               
0001a5e1  AESCCM_close                                                     
0001c79c  AESCCM_config                                                    
00011d61  AESCCM_construct                                                 
0001c594  AESCCM_defaultParams                                             
20002960  AESCCM_handle                                                    
00019f9d  AESCCM_init                                                      
0001ab45  AESCCM_oneStepDecrypt                                            
0001ab4b  AESCCM_oneStepEncrypt                                            
0001a2a1  AESCCM_open                                                      
00018ce1  AESCCM_setLengths                                                
00014401  AESCCM_setNonce                                                  
00019a5d  AESReadAuthenticationModeIV                                      
00019a75  AESWriteKey3                                                     
00015ebf  ApiMac_buildMsgCapInfo                                           
2000293c  ApiMac_extAddr                                                   
2000366d  ApiMac_gpOffsetToms                                              
00011891  ApiMac_init                                                      
0001ac6b  ApiMac_mcpsDataReq                                               
0001ac6f  ApiMac_mlmeAssociateRsp                                          
0001ac73  ApiMac_mlmeDisassociateReq                                       
0001ac77  ApiMac_mlmeGetReqArray                                           
0001ac7b  ApiMac_mlmeGetReqUint16                                          
0001ac7f  ApiMac_mlmeGetReqUint32                                          
0001ac83  ApiMac_mlmeGetReqUint8                                           
0001ac87  ApiMac_mlmeOrphanRsp                                             
0001ac8b  ApiMac_mlmeScanReq                                               
0000d185  ApiMac_mlmeSetReqArray                                           
0001a2b1  ApiMac_mlmeSetReqBool                                            
0001a2c1  ApiMac_mlmeSetReqUint16                                          
0001a2d1  ApiMac_mlmeSetReqUint8                                           
0001ac8f  ApiMac_mlmeSetSecurityReqArray                                   
0001ac93  ApiMac_mlmeSetSecurityReqStruct                                  
0001a2e1  ApiMac_mlmeSetSecurityReqUint16                                  
0001ac97  ApiMac_mlmeStartReq                                              
2000366e  ApiMac_mtDataReqTxOptionGp                                       
00001fe1  ApiMac_processIncoming                                           
0001a74d  ApiMac_registerCallbacks                                         
0001ac9b  ApiMac_secAddDevice                                              
0001ac9f  ApiMac_secAddKeyInitFrameCounter                                 
0001aca3  ApiMac_secDeleteDevice                                           
200029fa  AppTaskId                                                        
20002f80  BIOS_Module_state                                                
00015121  BIOS_atExitFunc                                                  
00019a8d  BIOS_exitFunc                                                    
200026d4  BIOS_heapCallbackObject                                          
0001744d  BIOS_init                                                        
0001a759  BIOS_linkedWithIncorrectBootLibrary                              
0000db97  BIOS_nullFunc                                                    
000181f5  BIOS_registerRTSLock                                             
000187ad  BIOS_removeRTSLock                                               
200026f0  BIOS_rtsGate                                                     
00019511  BIOS_rtsLock                                                     
00019aa5  BIOS_rtsUnlock                                                   
0001a765  BIOS_start                                                       
000148ad  BIOS_startFunc                                                   
00019e95  Board_init                                                       
0000ef9f  Board_initHook                                                   
00014811  Board_sendExtFlashByte                                           
00014451  Board_shutDownExtFlash                                           
0001747d  Board_wakeUpExtFlash                                             
20002078  ButtonObjects                                                    
0001a2f1  Button_Params_init                                               
0001c5b4  Button_config                                                    
0001bff3  Button_count                                                     
0001c420  Button_defaultParams                                             
00013939  Button_gpioCallbackFxn                                           
0000b759  Button_open                                                      
0001ab51  Button_setCallback                                               
000100f5  CUI_clientOpen                                                   
0001a94f  CUI_clientParamsInit                                             
00007e79  CUI_init                                                         
0001952d  CUI_menuActionBack                                               
00015165  CUI_menuActionHelp                                               
0001ab57  CUI_paramsInit                                                   
000032d5  CUI_processMenuUpdate                                            
00006251  CUI_registerMenu                                                 
00008a69  CUI_statusLinePrintf                                             
0000afe1  CUI_statusLineResourceRequest                                    
000151a9  Cllc_addSecDevice                                                
20000c70  Cllc_associatedDevList                                           
2000329c  Cllc_devShortAddr                                                
2000329a  Cllc_events                                                      
00017a75  Cllc_findDevice                                                  
0001a301  Cllc_getChanMask                                                 
0001a311  Cllc_getDefaultKey                                               
00017aa1  Cllc_getFormingPanId                                             
0000fc2d  Cllc_init                                                        
0001c7a4  Cllc_keySource                                                   
0000a099  Cllc_process                                                     
000139e9  Cllc_removeDevice                                                
0000c77d  Cllc_restoreNetwork                                              
0001a321  Cllc_securityCheck                                               
00019eab  Cllc_securityFill                                                
00010a99  Cllc_securityInit                                                
000157c5  Cllc_sendDisassociationRequest                                   
00019abd  Cllc_setChanMask                                                 
00018245  Cllc_setDefaultKey                                               
0001a331  Cllc_setFormingPanId                                             
00016423  Cllc_setJoinPermit                                               
0001a1a5  Cllc_startNetwork                                                
0001a959  ClockP_Params_init                                               
000174ad  ClockP_construct                                                 
00015f39  ClockP_create                                                    
0001a771  ClockP_delete                                                    
0001aca7  ClockP_destruct                                                  
0001a341  ClockP_getCpuFreq                                                
0001acab  ClockP_getSystemTickPeriod                                       
0001acaf  ClockP_getSystemTicks                                            
0001acb3  ClockP_getTimeout                                                
0001acb7  ClockP_isActive                                                  
0001acbb  ClockP_setTimeout                                                
0001acbf  ClockP_start                                                     
0001ab5d  ClockP_stop                                                      
20003186  Collector_events                                                 
0000d241  Collector_init                                                   
20003198  Collector_macCallbacks                                           
000035a9  Collector_process                                                
0000c849  Collector_sendConfigRequest                                      
000151ed  Collector_sendDeviceTypeRequest                                  
00015231  Collector_sendToggleLedRequest                                   
20002360  Collector_statistics                                             
00018e59  Collector_updateStats                                            
0001a77d  CryptoKeyPlaintext_initBlankKey                                  
0001a789  CryptoKeyPlaintext_initKey                                       
20001f8c  CryptoResourceCC26XX_accessSemaphore                             
00012ee5  CryptoResourceCC26XX_constructRTOSObjects                        
2000270c  CryptoResourceCC26XX_hwi                                         
20001fdc  CryptoResourceCC26XX_operationSemaphore                          
00016b5d  CryptoUtils_buffersMatch                                         
00019ad5  CryptoUtils_memset                                               
00015805  Csf_IndicateOrphanReJoin                                         
00011dcd  Csf_clearAllNVItems                                              
00018e79  Csf_closeNwk                                                     
00015845  Csf_deviceConfigUpdate                                           
00015885  Csf_deviceDisassocUpdate                                         
00019549  Csf_deviceNotActiveUpdate                                        
0000de59  Csf_deviceSensorDataUpdate                                       
000158c5  Csf_deviceSensorDeviceTypeResponseUpdate                         
0000c1c5  Csf_deviceUpdate                                                 
0001826d  Csf_displayError                                                 
20002de0  Csf_events                                                       
0001aa9b  Csf_free                                                         
00011e39  Csf_getDevice                                                    
00010dfd  Csf_getDeviceExtAdd                                              
0000fcb5  Csf_getDeviceItem                                                
00017acd  Csf_getDeviceShort                                               
00013a41  Csf_getFrameCounter                                              
00017af9  Csf_getNetworkInformation                                        
0001645d  Csf_getNumDeviceListEntries                                      
00016c31  Csf_identifyLED                                                  
00009c59  Csf_init                                                         
00018295  Csf_initializeBroadcastClock                                     
000182bd  Csf_initializeConfigClock                                        
000182e5  Csf_initializeIdentifyClock                                      
0001830d  Csf_initializeTrackingClock                                      
0001a795  Csf_isConfigTimerActive                                          
0001a7a1  Csf_isTrackingTimerActive                                        
20002dec  Csf_keys                                                         
0001acc3  Csf_malloc                                                       
000148f9  Csf_networkUpdate                                                
00018e99  Csf_openNwk                                                      
0000848d  Csf_processEvents                                                
00015905  Csf_removeDeviceListItem                                         
00011325  Csf_sendDisassociateMsg                                          
00016c65  Csf_setBroadcastClock                                            
00016c99  Csf_setConfigClock                                               
00016ccd  Csf_setJoinPermitClock                                           
00016d01  Csf_setTrackingClock                                             
00015275  Csf_stateChangeUpdate                                            
0000f32f  Csf_toggleResponseReceived                                       
00011901  Csf_updateFrameCounter                                           
20001b08  FH_hnd                                                           
0001c5c4  GPIO_config                                                      
00019aed  GPIO_disableInt                                                  
00010599  GPIO_hwiIntFxn                                                   
00009d69  GPIO_init                                                        
0001c69a  GPIO_pinLowerBound                                               
0001c69b  GPIO_pinUpperBound                                               
00019565  GPIO_read                                                        
00015f75  GPIO_resetConfig                                                 
00019581  GPIO_setCallback                                                 
0001ab63  GPIO_setConfig                                                   
0000cdc5  GPIO_setConfigAndMux                                             
000174dd  GPIO_setInterruptConfig                                          
0001a351  GPIO_write                                                       
00013a99  HEAPMGR_GETLARGESTFREEBUF                                        
20002964  HEAPMGR_SIZE                                                     
0001a361  HwiP_Params_init                                                 
00015fb1  HwiP_construct                                                   
0001acc7  HwiP_destruct                                                    
0001a7ad  HwiP_disable                                                     
0001accb  HwiP_enableInterrupt                                             
00019ec1  HwiP_interruptsEnabled                                           
0001a371  HwiP_post                                                        
0001ab69  HwiP_restore                                                     
00019ed7  HwiP_setFunc                                                     
0001959d  HwiP_setPriority                                                 
UNDEFED   ITM_flush                                                        
UNDEFED   ITM_restore                                                      
20001a50  LEDObjects                                                       
0001a5ef  LED_Params_init                                                  
0001c5d4  LED_config                                                       
0001c729  LED_count                                                        
0001c7ac  LED_defaultParams                                                
00009e79  LED_open                                                         
00015e05  LED_setBrightnessLevel                                           
00015e43  LED_setOff                                                       
00016495  LED_setOn                                                        
000117ad  LED_startBlinking                                                
00018d03  LED_stopBlinking                                                 
000199a7  LED_toggle                                                       
00019eed  List_clearList                                                   
00018d25  List_get                                                         
000186a5  List_insert                                                      
000187f5  List_put                                                         
00018819  List_putHead                                                     
00018335  List_remove                                                      
00018eb9  MAC_AbortScan                                                    
0001a381  MAC_CbackCheckPending                                            
0000a7dd  MAC_CbackEvent                                                   
0001a391  MAC_CbackQueryRetransmit                                         
00019b05  MAC_EnableFH                                                     
00012909  MAC_Init                                                         
00010179  MAC_InitCoord                                                    
0000c299  MAC_McpsDataAlloc                                                
0000701d  MAC_McpsDataReq                                                  
0001a963  MAC_MlmeAssociateRsp                                             
0001a96d  MAC_MlmeDisassociateReq                                          
0001835d  MAC_MlmeGetPointerSecurityReq                                    
00015945  MAC_MlmeGetReq                                                   
000068b1  MAC_MlmeGetSecurityReq                                           
0001a977  MAC_MlmeOrphanRsp                                                
0000d531  MAC_MlmeResetReq                                                 
0000f331  MAC_MlmeScanReq                                                  
00005d35  MAC_MlmeSetReq                                                   
000041ed  MAC_MlmeSetSecurityReq                                           
0001aaa3  MAC_MlmeStartReq                                                 
0001aaab  MAC_MlmeSyncReq                                                  
000135a1  MAC_ResumeReq                                                    
00014945  MAC_SrcMatchAckAllPending                                        
0000e4fd  MAC_SrcMatchAddEntry                                             
00019fb1  MAC_SrcMatchCheckAllPending                                      
0001a7b9  MAC_SrcMatchCheckManualAddressTracking                           
00015fed  MAC_SrcMatchCheckResult                                          
000164cd  MAC_SrcMatchDeleteEntry                                          
00013fbd  MAC_SrcMatchEnable                                               
00014e51  MAC_SrcMatchSetDefaultPend                                       
0001a3a1  MAC_SrcMatchSetManualAddressTracking                             
000173e9  MAC_SrcMatchSetPend                                              
0001a3b1  Main_assertHandler                                               
2000380b  Main_assertReason                                                
0001ab6f  Main_excHandler                                                  
200031e0  Main_user1Cfg                                                    
00017b25  NOROM_AESReadFromKeyStore                                        
00017b51  NOROM_AESReadTag                                                 
00019b1d  NOROM_AESSetInitializationVector                                 
0001750d  NOROM_AESStartDMAOperation                                       
0001883d  NOROM_AESWaitForIRQFlags                                         
0000ce85  NOROM_AESWriteToKeyStore                                         
00018385  NOROM_AONBatMonTemperatureGetDegC                                
000183ad  NOROM_AONEventMcuWakeUpSet                                       
00019fc5  NOROM_AONRTCCurrent64BitValueGet                                 
0001653d  NOROM_AUXSYSIFOpModeChange                                       
0001aab3  NOROM_CPUcpsid                                                   
0001aabb  NOROM_CPUcpsie                                                   
0001ab75  NOROM_CPUdelay                                                   
00010e75  NOROM_ChipInfo_GetChipType                                       
00014e99  NOROM_ChipInfo_GetHwRevision                                     
000195b9  NOROM_DDI16BitfieldRead                                          
00018079  NOROM_DDI16BitfieldWrite                                         
0001accf  NOROM_DDI32RegWrite                                              
0001a3c1  NOROM_IOCPortConfigureSet                                        
00011971  NOROM_IntDisable                                                 
00011ea5  NOROM_IntEnable                                                  
00014991  NOROM_IntPendClear                                               
000183d5  NOROM_OSCClockSourceGet                                          
00016575  NOROM_OSCClockSourceSet                                          
00013af1  NOROM_OSCHF_AttemptToSwitchToXosc                                
00017b7d  NOROM_OSCHF_SwitchToRcOscTurnOffXosc                             
000195d5  NOROM_OSCHF_TurnOnXosc                                           
00016029  NOROM_OSC_HPOSCRelativeFrequencyOffsetGet                        
0001a7c5  NOROM_OSC_HPOSCRelativeFrequencyOffsetToRFCoreFormatConvert      
000195f1  NOROM_PRCMDeepSleep                                              
00018861  NOROM_PRCMPeripheralDeepSleepDisable                             
00018ed9  NOROM_PRCMPeripheralDeepSleepEnable                              
00018885  NOROM_PRCMPeripheralRunDisable                                   
00018ef9  NOROM_PRCMPeripheralRunEnable                                    
000188a9  NOROM_PRCMPeripheralSleepDisable                                 
00018f19  NOROM_PRCMPeripheralSleepEnable                                  
00016d35  NOROM_PRCMPowerDomainOff                                         
0001753d  NOROM_PRCMPowerDomainOn                                          
000152b9  NOROM_PRCMPowerDomainsAllOff                                     
000152fd  NOROM_PRCMPowerDomainsAllOn                                      
000134e5  NOROM_RFCAnaDivTxOverride                                        
0001a3d1  NOROM_RFCCpeIntGetAndClear                                       
00010a97  NOROM_RFCCpePatchReset                                           
00018f39  NOROM_RFCDoorbellSendTo                                          
0001a3e1  NOROM_RFCHwIntGetAndClear                                        
00018f59  NOROM_RFCOverrideSearch                                          
0001acd3  NOROM_RFCOverrideUpdate                                          
00014ee1  NOROM_RFCSynthPowerDown                                          
00012f45  NOROM_SetupAfterColdResetWakeupFromShutDownCfg1                  
0000a1a5  NOROM_SetupAfterColdResetWakeupFromShutDownCfg2                  
0000991d  NOROM_SetupAfterColdResetWakeupFromShutDownCfg3                  
000135fd  NOROM_SetupGetTrimForAmpcompCtrl                                 
00013b49  NOROM_SetupGetTrimForAnabypassValue1                             
00019fd9  NOROM_SetupGetTrimForRcOscLfRtuneCtuneTrim                       
00018f79  NOROM_SetupGetTrimForXoscHfCtl                                   
00018f99  NOROM_SetupSetAonRtcSubSecInc                                    
000149dd  NOROM_SetupSetCacheModeAccordingToCcfgSetting                    
00010b15  NOROM_SetupStepVddrTrimTo                                        
0000a9e5  NOROM_SetupTrimDevice                                            
0001756d  NOROM_SysCtrlIdle                                                
0001960d  NOROM_SysCtrlResetSourceGet                                      
0000b921  NOROM_SysCtrlStandby                                             
00011f11  NOROM_SysCtrl_DCDC_VoltageConditionalControl                     
00016d69  NOROM_TRNGConfigure                                              
00019b35  NOROM_TRNGNumberGet                                              
00018fb9  NOROM_ThisLibraryIsFor_CC13x4_CC26x4_HaltIfViolated              
0001a1b7  NOROM_UARTCharPutNonBlocking                                     
000188cd  NOROM_UARTConfigSetExpClk                                        
000199c1  NOROM_UARTDisable                                                
0001a3f1  NOROM_VIMSModeGet                                                
0001a981  NOROM_VIMSModeSet                                                
00017ba9  NOROM_uDMAChannelAttributeDisable                                
000199db  NOROM_uDMAChannelSizeGet                                         
00010f65  NVOCMP_loadApiPtrs                                               
200020c0  NVOCMP_nvHandle                                                  
200029fb  NVOCMP_size                                                      
0001aac3  NVSCC26XX_close                                                  
0001ab7b  NVSCC26XX_control                                                
0001759d  NVSCC26XX_erase                                                  
0001bf2c  NVSCC26XX_fxnTable                                               
00019b4d  NVSCC26XX_getAttrs                                               
00015341  NVSCC26XX_init                                                   
00019b65  NVSCC26XX_lock                                                   
00010fdd  NVSCC26XX_open                                                   
00014a75  NVSCC26XX_read                                                   
0001a7dd  NVSCC26XX_unlock                                                 
000094b9  NVSCC26XX_write                                                  
0001c6a8  NVS_config                                                       
0001c72a  NVS_count                                                        
0001c860  NVS_defaultParams                                                
0001ab81  NVS_erase                                                        
0001ab87  NVS_getAttrs                                                     
00017c2d  NVS_init                                                         
00014f29  NVS_open                                                         
0001a60b  NVS_read                                                         
0001a1db  NVS_write                                                        
00016e05  OsalPortTimers_cleanUpTimers                                     
0001a819  OsalPortTimers_registerCleanupEvent                              
000180a5  OsalPort_buildUint32                                             
0001296d  OsalPort_clearEvent                                              
00015985  OsalPort_deleteTimer                                             
0001aa2b  OsalPort_enterCS                                                 
0001acd7  OsalPort_free                                                    
000183fd  OsalPort_heapGetStats                                            
00011399  OsalPort_heapInit                                                
0001abb1  OsalPort_leaveCS                                                 
0001acdb  OsalPort_malloc                                                  
00019661  OsalPort_memcmp                                                  
0001a481  OsalPort_memcpy                                                  
000188f1  OsalPort_msgAllocate                                             
00019479  OsalPort_msgDeallocate                                           
000186cb  OsalPort_msgDequeue                                              
00018425  OsalPort_msgEnqueue                                              
000159c5  OsalPort_msgEnqueueMax                                           
000175cd  OsalPort_msgExtract                                              
000199f5  OsalPort_msgPush                                                 
00013659  OsalPort_msgReceive                                              
00013ba1  OsalPort_msgSend                                                 
00011a51  OsalPort_pwrmgrTaskState                                         
00016e39  OsalPort_registerTask                                            
00013005  OsalPort_setEvent                                                
00010719  OsalPort_setTimer                                                
0001a825  OsalPort_stopTimer                                               
0001661d  OsalPort_waitEvent                                               
0001a491  PWM_Params_init                                                  
0001abb7  PWM_close                                                        
UNDEFED   PWM_config                                                       
UNDEFED   PWM_count                                                        
0001c1e8  PWM_defaultParams                                                
00015385  PWM_init                                                         
00015a05  PWM_open                                                         
0001abbd  PWM_setDuty                                                      
0001abc3  PWM_start                                                        
00015a45  PowerCC26X2_RCOSC_clockFunc                                      
00006589  PowerCC26X2_auxISR                                               
0000a2b1  PowerCC26X2_calibrate                                            
0001c434  PowerCC26X2_config                                               
00018fd9  PowerCC26X2_disableTCXOQual                                      
00018ff9  PowerCC26X2_enableTCXOQual                                       
0001967d  PowerCC26X2_getOscHfSourceReady                                  
000129d1  PowerCC26X2_initiateCalibration                                  
20002b00  PowerCC26X2_module                                               
0001acdf  PowerCC26X2_oscClockSourceGet                                    
0001a4a1  PowerCC26X2_oscCtlClearXtal                                      
000175fd  PowerCC26X2_oscDisableQualifiers                                 
0001ace3  PowerCC26X2_oschfSwitchToRcosc                                   
0001aadb  PowerCC26X2_oschfTrySwitchToXosc                                 
0001a4b1  PowerCC26X2_prcmEnableCacheRetention                             
0001a4c1  PowerCC26X2_readCtrim                                            
0001a4d1  PowerCC26X2_readCtrimFract                                       
0001a4e1  PowerCC26X2_readRtrim                                            
00017c59  PowerCC26X2_releasePeriphDependency                              
00016e6d  PowerCC26X2_setAclkRefSrc                                        
0001ace7  PowerCC26X2_setPeriphDeepSleepEnable                             
00017c85  PowerCC26X2_setPeriphDependency                                  
00017cb1  PowerCC26X2_setSubSecIncToXoscLf                                 
0001762d  PowerCC26X2_setTdcClkSrc24M                                      
0001a4f1  PowerCC26X2_switchToTCXO                                         
0001aceb  PowerCC26X2_sysCtrlGetResetSource                                
0001acef  PowerCC26X2_sysCtrlIdle                                          
0001aa35  PowerCC26X2_sysCtrlStandby                                       
0001acf3  PowerCC26X2_sysCtrlUpdateVoltageRegulator                        
0001acf7  PowerCC26X2_turnOnXosc                                           
000124f9  PowerCC26X2_updateSubSecInc                                      
00019699  PowerCC26X2_writeCtrim                                           
000196b5  PowerCC26X2_writeCtrimFract                                      
000196d1  PowerCC26X2_writeCtrimFractEn                                    
000196ed  PowerCC26X2_writeRtrim                                           
00019b7d  PowerCC26XX_calibrate                                            
0001844d  PowerCC26XX_isStableXOSC_HF                                      
00017cdd  PowerCC26XX_schedulerDisable                                     
00019019  PowerCC26XX_schedulerRestore                                     
0000df05  PowerCC26XX_standbyPolicy                                        
20002968  PowerCC26XX_swiKey                                               
00014fb9  PowerCC26XX_switchXOSC_HF                                        
2000296c  PowerCC26XX_taskKey                                              
0001a831  Power_getConstraintMask                                          
0001a501  Power_getDependencyCount                                         
00019709  Power_getTransitionLatency                                       
00019b95  Power_idleFunc                                                   
000095d5  Power_init                                                       
00018915  Power_registerNotify                                             
00016ea1  Power_releaseConstraint                                          
0000d8c9  Power_releaseDependency                                          
0001765d  Power_setConstraint                                              
0000d2fd  Power_setDependency                                              
00007821  Power_sleep                                                      
00019039  Power_unregisterNotify                                           
0001c6b4  RFCC26XX_hwAttrs                                                 
20003784  RFCC26XX_schedulerPolicy                                         
0001a83d  RF_Params_init                                                   
0001a67b  RF_RatConfigCompare_init                                         
0001abc9  RF_RatConfigOutput_init                                          
00019bad  RF_ScheduleCmdParams_init                                        
000153c9  RF_TxPowerTable_findValue                                        
00019bc5  RF_cancelCmd                                                     
000085bd  RF_close                                                         
200027d0  RF_cmdFsRx                                                       
200027e8  RF_cmdFsTx                                                       
0001c200  RF_cmdFs_2gfsk50kbps154g                                         
200025c0  RF_cmdIEEECsma                                                   
20001d48  RF_cmdIEEERx                                                     
20002800  RF_cmdIEEETx                                                     
200036cc  RF_cmdNop                                                        
200036dc  RF_cmdNopFg                                                      
20002728  RF_cmdPropCs                                                     
20002744  RF_cmdPropCsSlotted                                              
0001c124  RF_cmdPropCs_2gfsk50kbps154g                                     
20002404  RF_cmdPropRadioDivSetup                                          
0001bf54  RF_cmdPropRadioDivSetup_2gfsk50kbps154g                          
20002434  RF_cmdPropRxAdv                                                  
0001bed0  RF_cmdPropRxAdv_2gfsk50kbps154g                                  
200025e0  RF_cmdPropTxAdv                                                  
0001c0a4  RF_cmdPropTxAdv_2gfsk50kbps154g                                  
20002600  RF_cmdRadioSetup                                                 
20002858  RF_cmdRxAckCmd                                                   
0000bd81  RF_control                                                       
0001acfb  RF_defaultExecutionPolicy                                        
0000f039  RF_defaultSubmitPolicy                                           
0001a015  RF_flushCmd                                                      
0001a1ff  RF_getCmdOp                                                      
00014b0d  RF_getCurrentTime                                                
000101fd  RF_getInfo                                                       
00019079  RF_getRssi                                                       
0000f611  RF_getTxPower                                                    
20003768  RF_handle                                                        
00003d61  RF_open                                                          
20002620  RF_params                                                        
0000dfb1  RF_pendCmd                                                       
00016ed5  RF_powerConstraintRelease                                        
0001975d  RF_powerConstraintSet                                            
200036ec  RF_prop_2gfsk50kbps154g                                          
00019f03  RF_ratCompare                                                    
00010b91  RF_ratDisableChannel                                             
0000ea15  RF_requestAccess                                                 
0001abd5  RF_runDirectCmd                                                  
0001abdb  RF_runImmediateCmd                                               
00005221  RF_scheduleCmd                                                   
000190d9  RF_setTxPower                                                    
00010281  RF_yield                                                         
00016655  Random_getNumber                                                 
000120c1  Random_seedAutomatic                                             
0001acff  ResetISR                                                         
0001a511  RingBuf_construct                                                
00019795  RingBuf_flush                                                    
000179eb  RingBuf_getConsume                                               
0001ad03  RingBuf_getCount                                                 
00018d69  RingBuf_getPointer                                               
000150d9  RingBuf_put                                                      
0001668d  RingBuf_putAdvance                                               
00017a19  RingBuf_putPointer                                               
0001aae3  SemaphoreP_Params_init                                           
000176bd  SemaphoreP_construct                                             
000190f9  SemaphoreP_constructBinary                                       
000189c9  SemaphoreP_createBinary                                          
0001a849  SemaphoreP_delete                                                
0001ad07  SemaphoreP_destruct                                              
0001aa3f  SemaphoreP_pend                                                  
0001ad0b  SemaphoreP_post                                                  
0001a211  StructRingBuf_construct                                          
00014b59  StructRingBuf_get                                                
0001a689  StructRingBuf_isFull                                             
00013eb9  StructRingBuf_put                                                
0001a521  SwiP_Params_init                                                 
00016b93  SwiP_construct                                                   
0001ad0f  SwiP_destruct                                                    
0001a029  SwiP_disable                                                     
0001a855  SwiP_getTrigger                                                  
0001ad13  SwiP_or                                                          
0001ad17  SwiP_restore                                                     
0001a697  SwiP_setPriority                                                 
00019f19  SystemP_snprintf                                                 
0001ad1b  SystemP_vsnprintf                                                
0001a27d  TI_memcpy_small                                                  
0001a731  TI_memset_small                                                  
0001a03d  TRNG_close                                                       
0000f9fd  TRNG_construct                                                   
0001c448  TRNG_defaultParams                                               
0001ad1f  TRNG_generateEntropy                                             
000180cf  TRNG_generateKey                                                 
00013c51  TRNG_init                                                        
0001c864  TimestampP_nativeFormat32                                        
0001c868  TimestampP_nativeFormat64                                        
00019a0f  UART2Support_disableRx                                           
0001a861  UART2Support_disableTx                                           
0000b3b1  UART2Support_dmaStartRx                                          
0000d475  UART2Support_dmaStartTx                                          
00013543  UART2Support_dmaStopRx                                           
000112ad  UART2Support_dmaStopTx                                           
00017d8d  UART2Support_enableInts                                          
0001a86d  UART2Support_enableRx                                            
0001a879  UART2Support_enableTx                                            
000180f9  UART2Support_powerRelConstraint                                  
000186f1  UART2Support_powerSetConstraint                                  
00018d8b  UART2Support_sendData                                            
0001a531  UART2Support_txDone                                              
0001a885  UART2_Params_init                                                
0000f6a1  UART2_close                                                      
0001c7b4  UART2_config                                                     
0001c72b  UART2_count                                                      
0001bff4  UART2_defaultParams                                              
00006a39  UART2_open                                                       
00018dad  UART2_read                                                       
00013f0f  UART2_readCancel                                                 
00015001  UART2_readFull                                                   
000057bd  UART2_readTimeout                                                
00016f3d  UART2_rxDisable                                                  
000166c5  UART2_rxEnable                                                   
0001a6a5  UART2_write                                                      
0000ef05  UART2_writeCancel                                                
00019497  UART2_writeTimeout                                               
00006d41  UART2_writeTimeoutBlocking                                       
00009805  UART2_writeTimeoutNonblocking                                    
000166fd  UDMACC26XX_close                                                 
0001c7bc  UDMACC26XX_config                                                
0001aa53  UDMACC26XX_hwiIntFxn                                             
00012b61  UDMACC26XX_open                                                  
00013f65  UtilTimer_construct                                              
0001ad23  UtilTimer_isActive                                               
0001aaeb  UtilTimer_setTimeout                                             
0001ad27  UtilTimer_start                                                  
0001ad2b  UtilTimer_stop                                                   
0001aaf3  Util_breakUint32                                                 
0001abe1  Util_buildUint16                                                 
0001a6b3  Util_buildUint32                                                 
00019c0d  Util_clearEvent                                                  
0001aa5d  Util_copyExtAddr                                                 
0001ad2f  Util_hiUint16                                                    
0001ad33  Util_loUint16                                                    
00019c25  Util_setEvent                                                    
20040000  __STACK_END                                                      
00000400  __STACK_SIZE                                                     
00000000  __TI_ATRegion0_region_sz                                         
00000000  __TI_ATRegion0_src_addr                                          
00000000  __TI_ATRegion0_trg_addr                                          
00000000  __TI_ATRegion1_region_sz                                         
00000000  __TI_ATRegion1_src_addr                                          
00000000  __TI_ATRegion1_trg_addr                                          
00000000  __TI_ATRegion2_region_sz                                         
00000000  __TI_ATRegion2_src_addr                                          
00000000  __TI_ATRegion2_trg_addr                                          
0001cc28  __TI_CINIT_Base                                                  
0001cc58  __TI_CINIT_Limit                                                 
0001cc58  __TI_CINIT_Warm                                                  
0001cbf4  __TI_Handler_Table_Base                                          
0001cc00  __TI_Handler_Table_Limit                                         
00016b25  __TI_auto_init_nobinit_nopinit                                   
00011cf1  __TI_decompress_lzss                                             
0001a73f  __TI_decompress_none                                             
ffffffff  __TI_pprof_out_hndl                                              
ffffffff  __TI_prof_data_size                                              
ffffffff  __TI_prof_data_start                                             
00000000  __TI_static_base__                                               
0001a5d1  __TI_zero_init                                                   
0001b3a0  __aeabi_ctype_table_                                             
0001b3a0  __aeabi_ctype_table_C                                            
200037b0  __aeabi_errno                                                    
0001aafd  __aeabi_errno_addr                                               
00012ee3  __aeabi_ldiv0                                                    
000194b5  __aeabi_llsl                                                     
0001ab05  __aeabi_memclr                                                   
0001ab05  __aeabi_memclr4                                                  
0001ab05  __aeabi_memclr8                                                  
0001ad39  __aeabi_memcpy                                                   
0001ad39  __aeabi_memcpy4                                                  
0001ad39  __aeabi_memcpy8                                                  
0001aa69  __aeabi_memset                                                   
0001aa69  __aeabi_memset4                                                  
0001aa69  __aeabi_memset8                                                  
0001a065  __aeabi_uldivmod                                                 
000194b5  __ashldi3                                                        
ffffffff  __binit__                                                        
0001c894  __c_args__                                                       
50000000  __ccfg                                                           
UNDEFED   __mpu_init                                                       
2003fc00  __stack                                                          
ffffffff  __start___llvm_prf_bits                                          
ffffffff  __start___llvm_prf_cnts                                          
ffffffff  __stop___llvm_prf_bits                                           
ffffffff  __stop___llvm_prf_cnts                                           
0000dda9  __udivmoddi4                                                     
0001a079  _args_main                                                       
000173b5  _c_int00                                                         
200036fc  _hposcCoeffs                                                     
200037b4  _lock                                                            
00013fbb  _nop                                                             
00016f71  _pthread_cleanupFxn                                              
000110cd  _pthread_removeThreadKeys                                        
0001a891  _register_lock                                                   
0001a89d  _register_unlock                                                 
0001ad3d  _system_post_cinit                                               
0001ad41  _system_pre_init                                                 
200037b8  _unlock                                                          
0001bf7c  activityObject                                                   
0001c79a  aesccmCC26X4HWAttrs                                              
20001c80  aesccmCC26X4Objects                                              
200037bc  appEvents                                                        
200032ec  appSubMenu                                                       
000125c9  appTaskFxn                                                       
200029fc  appTaskId                                                        
20002970  appThread                                                        
0001abe7  assertHandler                                                    
20003808  assoc_resp_no_ack_cnt                                            
00015a85  atoi                                                             
2000380d  bInSwi                                                           
ffffffff  binit                                                            
0001849d  calloc                                                           
20002918  coexMetricsStruct                                                
20002944  coexOverrideUseCases                                             
20002974  collectorStatusLine                                              
20003420  commissionSubMenu                                                
20003460  configureSubMenu                                                 
00015451  convertTxOptions                                                 
00019a29  copyApiMacAddrToMacAddr                                          
000197b1  crc_update                                                       
20002978  csfCuiHndl                                                       
20002e04  csfMainMenu                                                      
2000380f  csmPhy                                                           
20003518  cuiMultiMenu                                                     
2000202c  cuiMultiMenuData                                                 
20003810  customMinTxOffEnabled                                            
2000239c  dcBucket                                                         
2000297c  dcCritical                                                       
20003811  dcEnabled                                                        
20002980  dcLimited                                                        
20002984  dcPtr                                                            
20002988  dcRegulated                                                      
200029fd  dcStatus                                                         
2000298c  dcTimeUsed                                                       
20002990  deviceStatusLine                                                 
200017d4  enhancedAckBuf                                                   
20002e44  fhObject                                                         
200029fe  gAction                                                          
200018d0  gpioCallbackFunctions                                            
20002c78  gpioPinConfigs                                                   
20001990  gpioUserArgs                                                     
2003fc00  heapEnd                                                          
20003afc  heapStart                                                        
20003748  heapmgrMemFreeError                                              
20003744  heapmgrMemFreeTotal                                              
20003608  ieeeCoexEnabled                                                  
2000360c  lastPostCmd                                                      
20003600  lastRatChanA                                                     
20003601  lastRatChanB                                                     
200029ff  lastRxPriority                                                   
20002a00  lastTxPriority                                                   
2000286c  macAckDbg                                                        
20002a01  macAckTxActive                                                   
200035dc  macActionSet                                                     
00008b91  macAllocTxBuffer                                                 
00017de5  macApiAssociateRsp                                               
0001abed  macApiBadState                                                   
0000db99  macApiDataReq                                                    
00012205  macApiDisassociateReq                                            
00013d01  macApiOrphanRsp                                                  
00018a35  macApiPending                                                    
0000f459  macApiPurgeReq                                                   
00015efb  macApiPwrOnReq                                                   
0000717d  macApiScanReq                                                    
0000e25d  macApiStartReq                                                   
0001abf3  macApiUnsupported                                                
00016fd9  macApiWSAsyncReq                                                 
0001c7dc  macAuthTagLen                                                    
0000eab5  macAutoPendAddSrcMatchTableEntry                                 
0000e05d  macAutoPendMaintainSrcMatchTable                                 
0001ad49  macBcTimerHandler                                                
20002640  macBeacon                                                        
200023d0  macBeaconDevice                                                  
20003620  macBeaconMargin                                                  
20003549  macBeaconPayload                                                 
00019c6d  macBeaconReset                                                   
0001410d  macBeaconSetupCap                                                
000167dd  macBeaconStopTrack                                               
000130c5  macBeaconSyncLoss                                                
00010305  macBlacklistChecking                                             
0000a5cd  macBuildAssociateRsp                                             
00008cb9  macBuildBeacon                                                   
0000dc49  macBuildBeaconNotifyInd                                          
00006eb5  macBuildCommonReq                                                
0000a6d5  macBuildDataFrame                                                
0000be5d  macBuildDisassociateReq                                          
00002d01  macBuildHeader                                                   
0000cc3d  macBuildHeaderIes                                                
0000dcf9  macBuildPayloadCoexistIe                                         
00009f89  macBuildPayloadIes                                               
0000eb55  macBuildPendAddr                                                 
0000f4ed  macBuildRealign                                                  
000136b5  macBuildWSAsyncMsg                                               
0000ed31  macBuildWSAsyncReq                                               
00013711  macCanSleep                                                      
0001c6cc  macCbackEventTbl                                                 
0000ebf5  macCbackForEvent                                                 
0000fed5  macCcmDecrypt                                                    
00010389  macCcmEncrypt                                                    
0000ff5d  macCcmStarInverseTransform                                       
0000c015  macCcmStarTransform                                              
2000370c  macCfg                                                           
000144f1  macCheckIndPacket                                                
00019a43  macCheckPhyMode                                                  
000163e9  macCheckPhyRate                                                  
0001a235  macCheckSched                                                    
0001c652  macCmdBufSize                                                    
0001bdf8  macCmdIncludeFHIe                                                
0001c740  macCmdLen                                                        
0000c915  macCommStatusInd                                                 
0001a08d  macConflictSyncLossInd                                           
20002524  macCoord                                                         
2000294c  macCoordAction1                                                  
20002760  macCoordAction2                                                  
200028c8  macCoordAction3                                                  
00018a59  macCoordAddrCmp                                                  
0000e305  macCoordReset                                                    
0001bcbc  macCryptoDriverTable                                             
20002994  macCryptoDrvTblPtr                                               
20003774  macCsmaRtcTimerId                                                
0001ab0d  macCsmaTimerExpiry                                               
200028d8  macData                                                          
200037c0  macDataBeaconRequeue                                             
200037c4  macDataCheckSched                                                
200037c8  macDataCheckTxTime                                               
200037cc  macDataRequeueIndirect                                           
00013125  macDataReset                                                     
200037d0  macDataRxBeaconCritical                                          
00016815  macDataRxInd                                                     
000197cd  macDataRxMemAlloc                                                
0001aa73  macDataRxMemFree                                                 
0001a0a1  macDataSend                                                      
200037d4  macDataSetSched                                                  
200037d8  macDataTxBeaconComplete                                          
0000e6e9  macDataTxComplete                                                
200028e8  macDataTxDelay                                                   
0001ad4d  macDataTxDelayCallback                                           
0000e109  macDataTxEnqueue                                                 
200037dc  macDataTxIndirect                                                
00007969  macDataTxSend                                                    
0001a551  macDataTxTimeAvailable                                           
0001a8b5  macDefaultAction                                                 
00015e81  macDestAddrCmp                                                   
00015781  macDestSAddrCmp                                                  
20002550  macDevice                                                        
0001777d  macDeviceDescriptorLookup                                        
00012631  macDisassocComplete                                              
00014ba5  macDutyCycleByteToUSec                                           
00017e11  macDutyCycleCheck                                                
0000abe5  macDutyCycleInit                                                 
0001700d  macDutyCycleUpdateTransmission                                   
0000c43d  macEdScanISR                                                     
00013185  macExecute                                                       
00019c85  macFrameDuration                                                 
000177ad  macFrameDurationIeee                                             
00010799  macFrameDurationSubG                                             
200028f8  macFrmFilter                                                     
20003603  macFsCmdActive                                                   
0001ab15  macGetCSMPhy                                                     
00019c9d  macGetMyAddrMode                                                 
0000d97d  macGetRFCmdDuration                                              
00019139  macGetRadioState                                                 
00014bf1  macGetRadioTxPowerReg                                            
000177dd  macHandleTxAck                                                   
0001ab1d  macIEEEGetPhyDesc                                                
0001c5f4  macIEEEPhyTable                                                  
0001b8bb  macIdleSt                                                        
00007bf5  macIncomingFrameSecurity                                         
00006bbd  macIncomingFrameSecurityMaterialRetrieval                        
00014161  macIncomingKeyUsagePolicyChecking                                
0001684d  macIncomingNonSlottedTx                                          
0000f0d1  macIncomingSecurityLevelChecking                                 
0000bae1  macIndirectExpire                                                
00014c3d  macIndirectMark                                                  
000141b5  macIndirectRequeueFrame                                          
0000f731  macIndirectSend                                                  
0001376d  macIndirectTxFrame                                               
0001a8c1  macIsCsmOperational                                              
000114f5  macKeyDescriptorLookup                                           
0001c874  macKeySourceLen                                                  
0001a6c1  macLowLevelBufferInit                                            
00018717  macLowLevelDiags                                                 
00012bc5  macLowLevelInit                                                  
0001a6cf  macLowLevelReset                                                 
0001a6dd  macLowLevelResume                                                
20002d38  macMRFSKGenPhyTable                                              
000160dd  macMRFSKGetPhyDesc                                               
0001bb98  macMRFSKStdPhyTable                                              
20002924  macMain                                                          
0001a0b5  macMainReserve                                                   
00015049  macMainReset                                                     
0001a8cd  macMainSetTaskId                                                 
0001645b  macMcuBitReverse                                                 
00012c29  macMcuInit                                                       
000197e9  macMcuOverflowCapture                                            
00011569  macMcuOverflowSetCompare                                         
00010c0d  macMcuOverflowSetPeriod                                          
0001aa7d  macMcuRandomByte                                                 
00019159  macMcuTimerCapture                                               
20002a02  macMgmt                                                          
20002464  macMgmtAction1                                                   
20002880  macMgmtAction2                                                   
0000e78d  macMgmtReset                                                     
0001741b  macNoAction                                                      
00019805  macNopBackoffTimerExpiry                                         
0000bbc1  macOutgoingFrameKeyDescRetrieval                                 
0000caad  macOutgoingFrameSecurity                                         
20002a03  macPanCoordinator                                                
20002a04  macPhyChannel                                                    
20002998  macPhyTxPower                                                    
20001b90  macPib                                                           
0001ad51  macPibCheckByPatch                                               
0001b7ac  macPibDefaults                                                   
00019179  macPibIndex                                                      
000184ed  macPibReset                                                      
0001b5a1  macPibTbl                                                        
2000299c  macPrevPeriodRatCount                                            
20002a05  macPwr                                                           
0001a8d9  macPwrReset                                                      
00010c89  macPwrVote                                                       
2000376f  macRadioAckFrame                                                 
2000376c  macRadioAckIeeeFrame                                             
00018123  macRadioComputeLQI                                               
00002fed  macRadioCsmaTxCb                                                 
0000fb15  macRadioFHEncryptFrame                                           
00019cb5  macRadioInit                                                     
00009275  macRadioInitIeee                                                 
00003af9  macRadioInitSubG                                                 
00007d39  macRadioLbtTxCb                                                  
0001780d  macRadioLimitTxPower                                             
00016885  macRadioNeedAdjustPower                                          
00012699  macRadioPowerDown                                                
00017041  macRadioPowerUp                                                  
00017e3d  macRadioPowerUpWait                                              
0001ad55  macRadioRandomByte                                               
00014c89  macRadioSendEnhAck                                               
0000ffe5  macRadioSendImmAck                                               
00014541  macRadioSetChannel                                               
000168bd  macRadioSetIEEEAddr                                              
00016119  macRadioSetPanCoordinator                                        
00016155  macRadioSetPanID                                                 
000180a3  macRadioSetRE                                                    
00019199  macRadioSetShortAddr                                             
00019f45  macRadioSetTxPower                                               
00011b31  macRadioStartScan                                                
00017075  macRadioStopScan                                                 
00018a7d  macRadioSwInit                                                   
00013d59  macRadioTxBackoffBoundary                                        
00018e57  macRadioTxCancelTxAck                                            
000115dd  macRadioTxEnhAckCb                                               
00000781  macRadioTxGo                                                     
0001abf9  macRadioTxGoGreenPower                                           
00013db1  macRadioTxGoLbt                                                  
0001abff  macRadioTxGoSlotted                                              
000170a9  macRadioTxGoSlottedCsma                                          
00014cd5  macRadioTxHandleAck                                              
00019ccd  macRadioTxPrepCsmaSlotted                                        
00014591  macRadioTxPrepCsmaSlottedIeee                                    
0000c5dd  macRadioTxPrepCsmaSlottedSubG                                    
00019ce5  macRadioTxPrepCsmaUnslotted                                      
0001783d  macRadioTxPrepCsmaUnslottedIeee                                  
00015495  macRadioTxPrepCsmaUnslottedSubG                                  
000170dd  macRadioTxPrepGreenPower                                         
00012c8d  macRadioTxPrepLbt                                                
00014209  macRadioTxPrepSlotted                                            
00004415  macRadioTxRequestTxAck                                           
0001006d  macRadioUpdateChannel                                            
000145e1  macRadioUpdateTxPower                                            
00014d21  macRadioWakeupCb                                                 
20003817  macRadioYielded                                                  
00018aa1  macRatCb_A                                                       
00017e69  macRatCb_B                                                       
00017e95  macRatDisableChannelB                                            
000154d9  macRatDisableChannels                                            
00011145  macRequestBackoff                                                
0001425d  macRequestSFDTimeout                                             
2000277c  macReset                                                         
0001ba14  macRfDriverTable                                                 
200029a0  macRfDrvTblPtr                                                   
0001983d  macRxAckTxDoneCallback                                           
20002a06  macRxActive                                                      
00015b45  macRxAssociateReq                                                
0001ad59  macRxBackoffHandler                                              
0001ab25  macRxBackoffTimerExpiry                                          
0000f169  macRxBeacon                                                      
000086e9  macRxBeaconCritical                                              
00017111  macRxBeaconReq                                                   
00002a0d  macRxCb                                                          
000168f5  macRxCheckMACPendingCallback                                     
000191b9  macRxCheckPendingCallback                                        
20003602  macRxCmdActive                                                   
0000ace5  macRxCompleteCallback                                            
200029f0  macRxDataEntryOffset                                             
20002954  macRxDataEntryQueue                                              
00010819  macRxDataReq                                                     
00016191  macRxDisable                                                     
000137c9  macRxDisassoc                                                    
000191d9  macRxEnable                                                      
20002a07  macRxEnableFlags                                                 
20002a08  macRxFilter                                                      
0000003d  macRxFrameIsr                                                    
00012cf1  macRxHaltCleanup                                                 
00017ec1  macRxHardDisable                                                 
0000e3ad  macRxInit                                                        
0001551d  macRxNokIsr                                                      
00018515  macRxOff                                                         
00012271  macRxOffRequest                                                  
00013e09  macRxOn                                                          
000191f9  macRxOnOffInit                                                   
0001a0c9  macRxOnRequest                                                   
00017a47  macRxOrphan                                                      
20002a09  macRxOutgoingAckFlag                                             
20002908  macRxOutputIeee                                                  
20002930  macRxOutputSubG                                                  
0001a561  macRxPanConflict                                                 
20003604  macRxPreempted                                                   
00019219  macRxSFDTimerExpiry                                              
0001a8e5  macRxSequenceNum                                                 
00018ac5  macRxSoftDisable                                                 
00018ae9  macRxSoftEnable                                                  
200029a4  macRxSymbol                                                      
20001df8  macScan                                                          
20002818  macScanAction                                                    
00017145  macScanCnfInit                                                   
000131e5  macScanComplete                                                  
000194d3  macScanFailedInProgress                                          
0000ade5  macScanNextChan                                                  
0000c0ed  macScanRxBeacon                                                  
00012701  macScanStartTimer                                                
0001b92d  macScanningSt                                                    
0001ac05  macSecCpy                                                        
200022e4  macSecurityPib                                                   
000055e5  macSecurityPibReset                                              
0001bae8  macSecurityPibTbl                                                
20002798  macSemHandle                                                     
0000cb75  macSendDataMsg                                                   
00015561  macSendFsCmd                                                     
00013245  macSendMsg                                                       
0001c218  macSendMsgBufSize                                                
0001c6d8  macSendMsgDataSize                                               
00019cfd  macSendReceiveCmd                                                
00005b65  macSendReceiveCmdIeee                                            
00004845  macSendReceiveCmdSubG                                            
00015b85  macSetDefaultsByPatch                                            
0000b1c9  macSetDefaultsByPhyID                                            
00017eed  macSetDefaultsByRE                                               
0001a581  macSetEvent                                                      
0001a571  macSetEvent16                                                    
0001aa87  macSetSched                                                      
0001853d  macSetTxPowerVal                                                 
0001786d  macSetUserConfig                                                 
000122dd  macSetupFsCmd                                                    
0000b4a1  macSetupRATChanCompare                                           
00010d05  macSetupReceiveCmd                                               
20003610  macSfdDetectCback                                                
20002a0a  macSpecUsecsPerSymbol                                            
20002494  macSrcExtAddrList                                                
20003805  macSrcMatchDefaultPendOn                                         
20003804  macSrcMatchIsAckAllPending                                       
20003818  macSrcMatchIsEnabled                                             
20003819  macSrcMatchManualAddressTracking                                 
20002a0b  macSrcResIndex                                                   
200027b4  macSrcShortAddrList                                              
0000b2bd  macStartBegin                                                    
00018b31  macStartComplete                                                 
000155a5  macStartContinue                                                 
0000d6a1  macStartSetParams                                                
0001b99f  macStartingSt                                                    
0001a0dd  macStateIdleOrPolling                                            
0001a0f1  macStateScanning                                                 
20003684  macStateTbl                                                      
20002894  macStatistics                                                    
0000f851  macStopCmd                                                       
0001a105  macSymbolSetupPwrMgmt                                            
00017f19  macSymbolTimerBCWakeUp                                           
0001a247  macSymbolTimerCompareIsr                                         
0001692d  macSymbolTimerCount                                              
00014d6d  macSymbolTimerEventHandler                                       
00017f45  macSymbolTimerICallTimerCback                                    
20002a0c  macSymbolTimerImpending                                          
0000edcd  macSymbolTimerInit                                               
000132a5  macSymbolTimerPeriodIsr                                          
00019859  macSymbolTimerPowerDown                                          
00019d15  macSymbolTimerRealign                                            
00015bc5  macSymbolTimerRealignIeee                                        
00015c05  macSymbolTimerRealignSubG                                        
0001ad61  macSymbolTimerReset                                              
00018b55  macSymbolTimerRestore                                            
200029a8  macSymbolTimerRollover                                           
00014db9  macSymbolTimerRolloverCallback                                   
00018b79  macSymbolTimerSetRollover                                        
000171e1  macSymbolTimerSetTrigger                                         
00019239  macSymbolTimerSetTriggerRollover                                 
200029ac  macSymbolTimerTrigger                                            
0000f201  macSymbolTimerTriggerCallback                                    
0000c6ad  macSymbolTimerUpdateWakeup                                       
20002a0d  macTaskId                                                        
0001040d  macTaskInit                                                      
200029b0  macThread                                                        
00019259  macTimer                                                         
200029b4  macTimerActive                                                   
000142b1  macTimerAddTimer                                                 
00017f71  macTimerAligned                                                  
00014305  macTimerCancel                                                   
00014631  macTimerGetNextTimer                                             
0001789d  macTimerInit                                                     
200037e8  macTimerNewRollover                                              
00012d55  macTimerRealign                                                  
000178cd  macTimerRecalcUnaligned                                          
00019f5b  macTimerRemoveTimer                                              
200037ec  macTimerRollover                                                 
0001bcfc  macTimerRolloverValue                                            
00012769  macTimerSetRollover                                              
00015c45  macTimerUpdActive                                                
00011ba1  macTimerUpdateSymbolTimer                                        
00013305  macTrackPeriodCallback                                           
00017215  macTxAbortIsr                                                    
0001ad65  macTxAckIsr                                                      
00016965  macTxAckNotReceivedCallback                                      
00014359  macTxAckReceivedCallback                                         
20002a0e  macTxActive                                                      
0001ac0b  macTxBackoffHandler                                              
0001ab2d  macTxBackoffTimerExpiry                                          
20002a0f  macTxBe                                                          
0000b83d  macTxChannelBusyCallback                                         
2000381a  macTxCmdActive                                                   
00005035  macTxCompleteCallback                                            
200029f2  macTxCsmaBackoffDelay                                            
0001ac11  macTxCsmaDelay                                                   
000161cd  macTxDecrypt                                                     
00010899  macTxDoneCallback                                                
000060a5  macTxFrame                                                       
0001c660  macTxFrameFailed                                                 
00015c85  macTxFrameIsr                                                    
0001699d  macTxFrameRetransmit                                             
0001c66e  macTxFrameSuccess                                                
000127d1  macTxGetDefaultMinTxOffTime                                      
20002a10  macTxGpInterframeDelay                                           
00018565  macTxInit                                                        
0000d759  macTxRequestCsmaDelay                                            
0000cf45  macTxRequestCsmaRtcDelay                                         
2000381b  macTxSlottedDelay                                                
2000381c  macTxSlottedDelayFactor                                          
0000e455  macTxStartQueuedFrame                                            
200029b8  macTxTimestamp                                                   
00015cc5  macTxTimestampCallback                                           
20002a11  macTxType                                                        
000169d5  macTxUpdateIE                                                    
20002a12  macUnitBackoffPeriod                                             
00011651  macUpdateHeaderIEPtr                                             
00013825  macUpdatePayloadIEPtr                                            
20003698  macUser0Cfg                                                      
0001a119  macWSAsyncCnf                                                    
00019d2d  macWrapper8ByteUnused                                            
000026f1  macWrapperAddDevice                                              
0000671d  macWrapperAddKeyInitFCtr                                         
00008de1  macWrapperDeleteDevice                                           
00016209  mac_msg_deallocate                                               
00010491  main                                                             
200012c8  menuBuff                                                         
200037f0  minTxOffTime                                                     
0001c484  msacbackSizeTable                                                
200029bc  numJoinDevStatusLine                                             
20003605  numRfCmd                                                         
20003606  numRxCmd                                                         
20003607  numRxPostCmd                                                     
2000381e  numTx                                                            
20002a13  nvsCC26XXObjects                                                 
0001ac17  osalHeapAllocFxn                                                 
0001ac1d  osalHeapFreeFxn                                                  
0001ac23  osalHeapGetStatsFxn                                              
0001a8f1  osalHeapInitFxn                                                  
0001ad6d  osalHeapIsBlockingFxn                                            
200029c0  pClockHandleEDScan                                               
200036c4  pMacCbackCheckPending                                            
200036c0  pMacCbackQueryRetransmit                                         
200037f8  pMacDataTx                                                       
200037fc  pMacEnhancedAck                                                  
200029c4  pMacRadioConfig                                                  
200029c8  pMaxPower                                                        
200035b0  pOverrides_2gfsk50kbps154g                                       
200029cc  pRfMode                                                          
200029d0  pRfPowerTable                                                    
20002dd9  permitJoining                                                    
00019d75  pthread_attr_init                                                
0001a909  pthread_attr_setdetachstate                                      
0001a12d  pthread_attr_setschedparam                                       
0001ac29  pthread_attr_setstacksize                                        
0000bf39  pthread_create                                                   
00013365  pthread_exit                                                     
00016a0d  pthread_mutex_init                                               
0001ab35  pthread_mutex_lock                                               
00017249  pthread_mutex_unlock                                             
0001a141  pthread_mutexattr_init                                           
0001a915  pthread_self                                                     
0001814d  radioComputeED                                                   
2000381f  reqAccessAlloc                                                   
0001ba80  resourceDB                                                       
00019319  rfSelect                                                         
00005991  rfSetConfigSubG                                                  
00017f9d  rf_patch_cpe_multi_protocol                                      
200029f4  rxCmdHandle                                                      
20002a14  rxFhRsl                                                          
20002a15  rxPromiscuousMode                                                
200029d4  rxRadioBufferPtr                                                 
20002a16  rxSeqNum                                                         
0001873d  sAddrCmp                                                         
0001a259  sAddrCpy                                                         
00018df1  sAddrExtCmp                                                      
0001ac2f  sAddrExtCpy                                                      
20002dd8  savedCllcState                                                   
0000d005  scheduleNopWakeupCmd                                             
0001858d  sem_init                                                         
0001aa91  sem_post                                                         
0001a6eb  sem_wait                                                         
000080f1  strtol                                                           
20000470  tBuffer                                                          
20003740  taskCnt                                                          
20001470  taskTbl                                                          
000155e9  ti_sysbios_family_arm_v8m_Hwi_Instance_finalize                  
000116c5  ti_sysbios_family_arm_v8m_Hwi_Instance_init                      
20002fac  ti_sysbios_family_arm_v8m_Hwi_Module_state                       
00018c51  ti_sysbios_family_arm_v8m_Hwi_construct                          
0001562d  ti_sysbios_family_arm_v8m_Hwi_construct2                         
0001ac35  ti_sysbios_family_arm_v8m_Hwi_destruct                           
00015671  ti_sysbios_family_arm_v8m_Hwi_disableInterrupt                   
0000a8e1  ti_sysbios_family_arm_v8m_Hwi_dispatch                           
00012421  ti_sysbios_family_arm_v8m_Hwi_dispatchC                          
200016d8  ti_sysbios_family_arm_v8m_Hwi_dispatchTable                      
0001ac3b  ti_sysbios_family_arm_v8m_Hwi_doSwiRestore                       
0001ac41  ti_sysbios_family_arm_v8m_Hwi_doTaskRestore                      
000156b5  ti_sysbios_family_arm_v8m_Hwi_enableInterrupt                    
0001a5a1  ti_sysbios_family_arm_v8m_Hwi_excHandler                         
00016a45  ti_sysbios_family_arm_v8m_Hwi_excHandlerAsm                      
0001727d  ti_sysbios_family_arm_v8m_Hwi_getStackInfo                       
000172b1  ti_sysbios_family_arm_v8m_Hwi_init                               
00010515  ti_sysbios_family_arm_v8m_Hwi_initNVIC                           
00019399  ti_sysbios_family_arm_v8m_Hwi_initStack                          
000138dd  ti_sysbios_family_arm_v8m_Hwi_initStacks                         
0000a9a2  ti_sysbios_family_arm_v8m_Hwi_interruptsAreDisabledButShouldNotBe
0000a9a7  ti_sysbios_family_arm_v8m_Hwi_pendSV                             
00010919  ti_sysbios_family_arm_v8m_Hwi_postInit                           
20003a00  ti_sysbios_family_arm_v8m_Hwi_ramVectors                         
00000000  ti_sysbios_family_arm_v8m_Hwi_resetVectors                       
0000a9c8  ti_sysbios_family_arm_v8m_Hwi_return                             
0001c890  ti_sysbios_family_arm_v8m_Hwi_swiTaskKeyAddress                  
00018e13  ti_sysbios_family_arm_v8m_Hwi_switchAndRunFunc                   
0001a169  ti_sysbios_family_arm_v8m_Hwi_switchFromBootStack                
20003010  ti_sysbios_family_arm_v8m_cc26x4_Timer_Module_state              
00008815  ti_sysbios_family_arm_v8m_cc26x4_Timer_construct                 
00013e61  ti_sysbios_family_arm_v8m_cc26x4_Timer_dynamicMultiStub          
0001a5b1  ti_sysbios_family_arm_v8m_cc26x4_Timer_dynamicStub               
200029d8  ti_sysbios_family_arm_v8m_cc26x4_Timer_funcHookCH1               
200029dc  ti_sysbios_family_arm_v8m_cc26x4_Timer_funcHookCH2               
00018177  ti_sysbios_family_arm_v8m_cc26x4_Timer_getCurrentTick            
000181a1  ti_sysbios_family_arm_v8m_cc26x4_Timer_setNextTick               
00016281  ti_sysbios_family_arm_v8m_cc26x4_Timer_setThreshold              
00015d05  ti_sysbios_family_arm_v8m_cc26x4_Timer_start                     
000193b9  ti_sysbios_gates_GateMutexPri_Instance_init                      
2000378c  ti_sysbios_gates_GateMutexPri_Module_state                       
00010999  ti_sysbios_gates_GateMutexPri_enter                              
00018e35  ti_sysbios_gates_GateMutexPri_insertPri                          
00012db9  ti_sysbios_gates_GateMutexPri_leave                              
20003794  ti_sysbios_heaps_HeapCallback_Module_state                       
0001ac47  ti_sysbios_heaps_HeapCallback_alloc                              
000162bd  ti_sysbios_heaps_HeapCallback_construct                          
0001ac4d  ti_sysbios_heaps_HeapCallback_free                               
0001ac53  ti_sysbios_heaps_HeapCallback_getStats                           
0001ac59  ti_sysbios_heaps_HeapCallback_isBlocking                         
0001a921  ti_sysbios_knl_ClockSupport_getCurrentTick                       
00016a7d  ti_sysbios_knl_ClockSupport_init                                 
0001a92d  ti_sysbios_knl_ClockSupport_setNextTick                          
20001ce8  ti_sysbios_knl_ClockSupport_timerStruct                          
000198c9  ti_sysbios_knl_Clock_Instance_finalize                           
000172e5  ti_sysbios_knl_Clock_Instance_init                               
20003050  ti_sysbios_knl_Clock_Module_state                                
000198e5  ti_sysbios_knl_Clock_construct                                   
000193d9  ti_sysbios_knl_Clock_create                                      
000193f9  ti_sysbios_knl_Clock_delete                                      
00019d8d  ti_sysbios_knl_Clock_getTicks                                    
00017fc9  ti_sysbios_knl_Clock_getTicksUntilInterrupt                      
00017ff5  ti_sysbios_knl_Clock_getTimeout                                  
0000fba1  ti_sysbios_knl_Clock_init                                        
00019da5  ti_sysbios_knl_Clock_scheduleNextTick                            
00019f71  ti_sysbios_knl_Clock_start                                       
00012839  ti_sysbios_knl_Clock_startI                                      
0001a939  ti_sysbios_knl_Clock_tick                                        
000133c5  ti_sysbios_knl_Clock_walkQueueDynamic                            
0000ee69  ti_sysbios_knl_Clock_workFuncDynamic                             
0001c804  ti_sysbios_knl_Idle_funcList                                     
00012e1d  ti_sysbios_knl_Idle_init                                         
20002feb  ti_sysbios_knl_Idle_initDone                                     
0001ac5f  ti_sysbios_knl_Idle_loop                                         
00019901  ti_sysbios_knl_Idle_run                                          
200010c8  ti_sysbios_knl_Idle_taskStack                                    
20001da0  ti_sysbios_knl_Idle_taskStruct                                   
0001991d  ti_sysbios_knl_Queue_put                                         
00018c75  ti_sysbios_knl_Semaphore_Instance_init                           
2000379c  ti_sysbios_knl_Semaphore_Module_state                            
00019939  ti_sysbios_knl_Semaphore_construct                               
000194f1  ti_sysbios_knl_Semaphore_create                                  
00019419  ti_sysbios_knl_Semaphore_delete                                  
00018c99  ti_sysbios_knl_Semaphore_destruct                                
0000b58d  ti_sysbios_knl_Semaphore_pend                                    
0001792d  ti_sysbios_knl_Semaphore_pendTimeout                             
00013425  ti_sysbios_knl_Semaphore_post                                    
00014721  ti_sysbios_knl_Swi_Instance_init                                 
20003028  ti_sysbios_knl_Swi_Module_state                                  
00019955  ti_sysbios_knl_Swi_construct                                     
00019dbd  ti_sysbios_knl_Swi_construct2                                    
00019971  ti_sysbios_knl_Swi_destruct                                      
00018605  ti_sysbios_knl_Swi_init                                          
00019dd5  ti_sysbios_knl_Swi_or                                            
00014771  ti_sysbios_knl_Swi_post                                          
200024c4  ti_sysbios_knl_Swi_readyQs                                       
000156f9  ti_sysbios_knl_Swi_restore                                       
00011739  ti_sysbios_knl_Swi_restoreHwi                                    
000128a1  ti_sysbios_knl_Swi_run                                           
000147c1  ti_sysbios_knl_Swi_runLoop                                       
00013485  ti_sysbios_knl_Swi_schedule                                      
00018021  ti_sysbios_knl_Swi_setPri                                        
0001ac65  ti_sysbios_knl_Swi_startup                                       
0001248d  ti_sysbios_knl_TaskSupport_buildTaskStack                        
00019ded  ti_sysbios_knl_TaskSupport_glue                                  
0001795d  ti_sysbios_knl_TaskSupport_start                                 
000162f9  ti_sysbios_knl_TaskSupport_swap                                  
00016312  ti_sysbios_knl_TaskSupport_swapReturn                            
0000d811  ti_sysbios_knl_Task_Instance_finalize                            
0000e831  ti_sysbios_knl_Task_Instance_init                                
200034a0  ti_sysbios_knl_Task_Module_state                                 
000181cb  ti_sysbios_knl_Task_allBlockedFunction                           
00019f87  ti_sysbios_knl_Task_block                                        
00016335  ti_sysbios_knl_Task_blockI                                       
0001862d  ti_sysbios_knl_Task_construct                                    
0001573d  ti_sysbios_knl_Task_create                                       
200029e0  ti_sysbios_knl_Task_defaultStackHeap                             
00019439  ti_sysbios_knl_Task_delete                                       
00019459  ti_sysbios_knl_Task_destruct                                     
00018cbd  ti_sysbios_knl_Task_enter                                        
00015d45  ti_sysbios_knl_Task_exit                                         
00018655  ti_sysbios_knl_Task_init                                         
00011235  ti_sysbios_knl_Task_postInit                                     
00016ab5  ti_sysbios_knl_Task_processVitalTaskFlag                         
200024f4  ti_sysbios_knl_Task_readyQs                                      
00016371  ti_sysbios_knl_Task_restore                                      
0001804d  ti_sysbios_knl_Task_restoreHwi                                   
00015091  ti_sysbios_knl_Task_schedule                                     
0000da31  ti_sysbios_knl_Task_setPri                                       
00011c11  ti_sysbios_knl_Task_startup                                      
00019e05  ti_sysbios_knl_Task_unblock                                      
00017319  ti_sysbios_knl_Task_unblockI                                     
20003004  ti_sysbios_runtime_Error_ignore                                  
00016aed  ti_sysbios_runtime_Error_print                                   
0001734d  ti_sysbios_runtime_Error_raiseX                                  
000163ad  ti_sysbios_runtime_Memory_alloc                                  
20002fec  ti_sysbios_runtime_Memory_defaultHeapInstance                    
20002fe8  ti_sysbios_runtime_Startup_done                                  
00015d85  ti_sysbios_runtime_Startup_exec                                  
2000301c  ti_sysbios_runtime_System_Module_state                           
00017381  ti_sysbios_runtime_System_atexit                                 
200029e4  ti_sysbios_runtime_System_atexitHandlers                         
00003869  ti_sysbios_runtime_System_doPrint                                
0001ab3d  ti_sysbios_runtime_System_exit                                   
0001950f  ti_sysbios_runtime_System_exitSpin                               
00011c81  ti_sysbios_runtime_System_formatNum                              
00019e1d  ti_sysbios_runtime_System_printf                                 
0001798d  ti_sysbios_runtime_System_processAtExit                          
00019e35  ti_sysbios_runtime_System_vprintf                                
0001a5c1  ti_sysbios_runtime_System_vsnprintf                              
200029e8  timerAlignedQ                                                    
200029ec  timerUnalignedQ                                                  
20002a17  txAckReq                                                         
200029f6  txCmdHandle                                                      
00009b45  txComplete                                                       
000072dd  txCsmaDelay                                                      
2000311c  txPowerTable_868_pa13                                            
20002a18  txSeqn                                                           
200002c0  uart2CC26X2Objects                                               
0001c80c  udmaCC26XXHWAttrs                                                
20002660  udmaCC26XXObject                                                 


GLOBAL SYMBOLS: SORTED BY Symbol Address 

address   name                                                             
-------   ----                                                             
00000000  __TI_ATRegion0_region_sz                                         
00000000  __TI_ATRegion0_src_addr                                          
00000000  __TI_ATRegion0_trg_addr                                          
00000000  __TI_ATRegion1_region_sz                                         
00000000  __TI_ATRegion1_src_addr                                          
00000000  __TI_ATRegion1_trg_addr                                          
00000000  __TI_ATRegion2_region_sz                                         
00000000  __TI_ATRegion2_src_addr                                          
00000000  __TI_ATRegion2_trg_addr                                          
00000000  __TI_static_base__                                               
00000000  ti_sysbios_family_arm_v8m_Hwi_resetVectors                       
0000003d  macRxFrameIsr                                                    
00000400  __STACK_SIZE                                                     
00000781  macRadioTxGo                                                     
00001fe1  ApiMac_processIncoming                                           
000026f1  macWrapperAddDevice                                              
00002a0d  macRxCb                                                          
00002d01  macBuildHeader                                                   
00002fed  macRadioCsmaTxCb                                                 
000032d5  CUI_processMenuUpdate                                            
000035a9  Collector_process                                                
00003869  ti_sysbios_runtime_System_doPrint                                
00003af9  macRadioInitSubG                                                 
00003d61  RF_open                                                          
000041ed  MAC_MlmeSetSecurityReq                                           
00004415  macRadioTxRequestTxAck                                           
00004845  macSendReceiveCmdSubG                                            
00005035  macTxCompleteCallback                                            
00005221  RF_scheduleCmd                                                   
000055e5  macSecurityPibReset                                              
000057bd  UART2_readTimeout                                                
00005991  rfSetConfigSubG                                                  
00005b65  macSendReceiveCmdIeee                                            
00005d35  MAC_MlmeSetReq                                                   
000060a5  macTxFrame                                                       
00006251  CUI_registerMenu                                                 
00006589  PowerCC26X2_auxISR                                               
0000671d  macWrapperAddKeyInitFCtr                                         
000068b1  MAC_MlmeGetSecurityReq                                           
00006a39  UART2_open                                                       
00006bbd  macIncomingFrameSecurityMaterialRetrieval                        
00006d41  UART2_writeTimeoutBlocking                                       
00006eb5  macBuildCommonReq                                                
0000701d  MAC_McpsDataReq                                                  
0000717d  macApiScanReq                                                    
000072dd  txCsmaDelay                                                      
00007821  Power_sleep                                                      
00007969  macDataTxSend                                                    
00007bf5  macIncomingFrameSecurity                                         
00007d39  macRadioLbtTxCb                                                  
00007e79  CUI_init                                                         
000080f1  strtol                                                           
0000848d  Csf_processEvents                                                
000085bd  RF_close                                                         
000086e9  macRxBeaconCritical                                              
00008815  ti_sysbios_family_arm_v8m_cc26x4_Timer_construct                 
00008a69  CUI_statusLinePrintf                                             
00008b91  macAllocTxBuffer                                                 
00008cb9  macBuildBeacon                                                   
00008de1  macWrapperDeleteDevice                                           
00009275  macRadioInitIeee                                                 
000094b9  NVSCC26XX_write                                                  
000095d5  Power_init                                                       
00009805  UART2_writeTimeoutNonblocking                                    
0000991d  NOROM_SetupAfterColdResetWakeupFromShutDownCfg3                  
00009b45  txComplete                                                       
00009c59  Csf_init                                                         
00009d69  GPIO_init                                                        
00009e79  LED_open                                                         
00009f89  macBuildPayloadIes                                               
0000a099  Cllc_process                                                     
0000a1a5  NOROM_SetupAfterColdResetWakeupFromShutDownCfg2                  
0000a2b1  PowerCC26X2_calibrate                                            
0000a5cd  macBuildAssociateRsp                                             
0000a6d5  macBuildDataFrame                                                
0000a7dd  MAC_CbackEvent                                                   
0000a8e1  ti_sysbios_family_arm_v8m_Hwi_dispatch                           
0000a9a2  ti_sysbios_family_arm_v8m_Hwi_interruptsAreDisabledButShouldNotBe
0000a9a7  ti_sysbios_family_arm_v8m_Hwi_pendSV                             
0000a9c8  ti_sysbios_family_arm_v8m_Hwi_return                             
0000a9e5  NOROM_SetupTrimDevice                                            
0000abe5  macDutyCycleInit                                                 
0000ace5  macRxCompleteCallback                                            
0000ade5  macScanNextChan                                                  
0000afe1  CUI_statusLineResourceRequest                                    
0000b1c9  macSetDefaultsByPhyID                                            
0000b2bd  macStartBegin                                                    
0000b3b1  UART2Support_dmaStartRx                                          
0000b4a1  macSetupRATChanCompare                                           
0000b58d  ti_sysbios_knl_Semaphore_pend                                    
0000b759  Button_open                                                      
0000b83d  macTxChannelBusyCallback                                         
0000b921  NOROM_SysCtrlStandby                                             
0000bae1  macIndirectExpire                                                
0000bbc1  macOutgoingFrameKeyDescRetrieval                                 
0000bd81  RF_control                                                       
0000be5d  macBuildDisassociateReq                                          
0000bf39  pthread_create                                                   
0000c015  macCcmStarTransform                                              
0000c0ed  macScanRxBeacon                                                  
0000c1c5  Csf_deviceUpdate                                                 
0000c299  MAC_McpsDataAlloc                                                
0000c43d  macEdScanISR                                                     
0000c5dd  macRadioTxPrepCsmaSlottedSubG                                    
0000c6ad  macSymbolTimerUpdateWakeup                                       
0000c77d  Cllc_restoreNetwork                                              
0000c849  Collector_sendConfigRequest                                      
0000c915  macCommStatusInd                                                 
0000caad  macOutgoingFrameSecurity                                         
0000cb75  macSendDataMsg                                                   
0000cc3d  macBuildHeaderIes                                                
0000cdc5  GPIO_setConfigAndMux                                             
0000ce85  NOROM_AESWriteToKeyStore                                         
0000cf45  macTxRequestCsmaRtcDelay                                         
0000d005  scheduleNopWakeupCmd                                             
0000d185  ApiMac_mlmeSetReqArray                                           
0000d241  Collector_init                                                   
0000d2fd  Power_setDependency                                              
0000d475  UART2Support_dmaStartTx                                          
0000d531  MAC_MlmeResetReq                                                 
0000d6a1  macStartSetParams                                                
0000d759  macTxRequestCsmaDelay                                            
0000d811  ti_sysbios_knl_Task_Instance_finalize                            
0000d8c9  Power_releaseDependency                                          
0000d97d  macGetRFCmdDuration                                              
0000da31  ti_sysbios_knl_Task_setPri                                       
0000db97  BIOS_nullFunc                                                    
0000db99  macApiDataReq                                                    
0000dc49  macBuildBeaconNotifyInd                                          
0000dcf9  macBuildPayloadCoexistIe                                         
0000dda9  __udivmoddi4                                                     
0000de59  Csf_deviceSensorDataUpdate                                       
0000df05  PowerCC26XX_standbyPolicy                                        
0000dfb1  RF_pendCmd                                                       
0000e05d  macAutoPendMaintainSrcMatchTable                                 
0000e109  macDataTxEnqueue                                                 
0000e25d  macApiStartReq                                                   
0000e305  macCoordReset                                                    
0000e3ad  macRxInit                                                        
0000e455  macTxStartQueuedFrame                                            
0000e4fd  MAC_SrcMatchAddEntry                                             
0000e6e9  macDataTxComplete                                                
0000e78d  macMgmtReset                                                     
0000e831  ti_sysbios_knl_Task_Instance_init                                
0000ea15  RF_requestAccess                                                 
0000eab5  macAutoPendAddSrcMatchTableEntry                                 
0000eb55  macBuildPendAddr                                                 
0000ebf5  macCbackForEvent                                                 
0000ed31  macBuildWSAsyncReq                                               
0000edcd  macSymbolTimerInit                                               
0000ee69  ti_sysbios_knl_Clock_workFuncDynamic                             
0000ef05  UART2_writeCancel                                                
0000ef9f  Board_initHook                                                   
0000f039  RF_defaultSubmitPolicy                                           
0000f0d1  macIncomingSecurityLevelChecking                                 
0000f169  macRxBeacon                                                      
0000f201  macSymbolTimerTriggerCallback                                    
0000f32f  Csf_toggleResponseReceived                                       
0000f331  MAC_MlmeScanReq                                                  
0000f459  macApiPurgeReq                                                   
0000f4ed  macBuildRealign                                                  
0000f611  RF_getTxPower                                                    
0000f6a1  UART2_close                                                      
0000f731  macIndirectSend                                                  
0000f851  macStopCmd                                                       
0000f9fd  TRNG_construct                                                   
0000fb15  macRadioFHEncryptFrame                                           
0000fba1  ti_sysbios_knl_Clock_init                                        
0000fc2d  Cllc_init                                                        
0000fcb5  Csf_getDeviceItem                                                
0000fed5  macCcmDecrypt                                                    
0000ff5d  macCcmStarInverseTransform                                       
0000ffe5  macRadioSendImmAck                                               
0001006d  macRadioUpdateChannel                                            
000100f5  CUI_clientOpen                                                   
00010179  MAC_InitCoord                                                    
000101fd  RF_getInfo                                                       
00010281  RF_yield                                                         
00010305  macBlacklistChecking                                             
00010389  macCcmEncrypt                                                    
0001040d  macTaskInit                                                      
00010491  main                                                             
00010515  ti_sysbios_family_arm_v8m_Hwi_initNVIC                           
00010599  GPIO_hwiIntFxn                                                   
00010719  OsalPort_setTimer                                                
00010799  macFrameDurationSubG                                             
00010819  macRxDataReq                                                     
00010899  macTxDoneCallback                                                
00010919  ti_sysbios_family_arm_v8m_Hwi_postInit                           
00010999  ti_sysbios_gates_GateMutexPri_enter                              
00010a97  NOROM_RFCCpePatchReset                                           
00010a99  Cllc_securityInit                                                
00010b15  NOROM_SetupStepVddrTrimTo                                        
00010b91  RF_ratDisableChannel                                             
00010c0d  macMcuOverflowSetPeriod                                          
00010c89  macPwrVote                                                       
00010d05  macSetupReceiveCmd                                               
00010dfd  Csf_getDeviceExtAdd                                              
00010e75  NOROM_ChipInfo_GetChipType                                       
00010f65  NVOCMP_loadApiPtrs                                               
00010fdd  NVSCC26XX_open                                                   
000110cd  _pthread_removeThreadKeys                                        
00011145  macRequestBackoff                                                
00011235  ti_sysbios_knl_Task_postInit                                     
000112ad  UART2Support_dmaStopTx                                           
00011325  Csf_sendDisassociateMsg                                          
00011399  OsalPort_heapInit                                                
000114f5  macKeyDescriptorLookup                                           
00011569  macMcuOverflowSetCompare                                         
000115dd  macRadioTxEnhAckCb                                               
00011651  macUpdateHeaderIEPtr                                             
000116c5  ti_sysbios_family_arm_v8m_Hwi_Instance_init                      
00011739  ti_sysbios_knl_Swi_restoreHwi                                    
000117ad  LED_startBlinking                                                
00011891  ApiMac_init                                                      
00011901  Csf_updateFrameCounter                                           
00011971  NOROM_IntDisable                                                 
00011a51  OsalPort_pwrmgrTaskState                                         
00011b31  macRadioStartScan                                                
00011ba1  macTimerUpdateSymbolTimer                                        
00011c11  ti_sysbios_knl_Task_startup                                      
00011c81  ti_sysbios_runtime_System_formatNum                              
00011cf1  __TI_decompress_lzss                                             
00011d61  AESCCM_construct                                                 
00011dcd  Csf_clearAllNVItems                                              
00011e39  Csf_getDevice                                                    
00011ea5  NOROM_IntEnable                                                  
00011f11  NOROM_SysCtrl_DCDC_VoltageConditionalControl                     
000120c1  Random_seedAutomatic                                             
00012205  macApiDisassociateReq                                            
00012271  macRxOffRequest                                                  
000122dd  macSetupFsCmd                                                    
00012421  ti_sysbios_family_arm_v8m_Hwi_dispatchC                          
0001248d  ti_sysbios_knl_TaskSupport_buildTaskStack                        
000124f9  PowerCC26X2_updateSubSecInc                                      
000125c9  appTaskFxn                                                       
00012631  macDisassocComplete                                              
00012699  macRadioPowerDown                                                
00012701  macScanStartTimer                                                
00012769  macTimerSetRollover                                              
000127d1  macTxGetDefaultMinTxOffTime                                      
00012839  ti_sysbios_knl_Clock_startI                                      
000128a1  ti_sysbios_knl_Swi_run                                           
00012909  MAC_Init                                                         
0001296d  OsalPort_clearEvent                                              
000129d1  PowerCC26X2_initiateCalibration                                  
00012b61  UDMACC26XX_open                                                  
00012bc5  macLowLevelInit                                                  
00012c29  macMcuInit                                                       
00012c8d  macRadioTxPrepLbt                                                
00012cf1  macRxHaltCleanup                                                 
00012d55  macTimerRealign                                                  
00012db9  ti_sysbios_gates_GateMutexPri_leave                              
00012e1d  ti_sysbios_knl_Idle_init                                         
00012ee3  __aeabi_ldiv0                                                    
00012ee5  CryptoResourceCC26XX_constructRTOSObjects                        
00012f45  NOROM_SetupAfterColdResetWakeupFromShutDownCfg1                  
00013005  OsalPort_setEvent                                                
000130c5  macBeaconSyncLoss                                                
00013125  macDataReset                                                     
00013185  macExecute                                                       
000131e5  macScanComplete                                                  
00013245  macSendMsg                                                       
000132a5  macSymbolTimerPeriodIsr                                          
00013305  macTrackPeriodCallback                                           
00013365  pthread_exit                                                     
000133c5  ti_sysbios_knl_Clock_walkQueueDynamic                            
00013425  ti_sysbios_knl_Semaphore_post                                    
00013485  ti_sysbios_knl_Swi_schedule                                      
000134e5  NOROM_RFCAnaDivTxOverride                                        
00013543  UART2Support_dmaStopRx                                           
000135a1  MAC_ResumeReq                                                    
000135fd  NOROM_SetupGetTrimForAmpcompCtrl                                 
00013659  OsalPort_msgReceive                                              
000136b5  macBuildWSAsyncMsg                                               
00013711  macCanSleep                                                      
0001376d  macIndirectTxFrame                                               
000137c9  macRxDisassoc                                                    
00013825  macUpdatePayloadIEPtr                                            
000138dd  ti_sysbios_family_arm_v8m_Hwi_initStacks                         
00013939  Button_gpioCallbackFxn                                           
000139e9  Cllc_removeDevice                                                
00013a41  Csf_getFrameCounter                                              
00013a99  HEAPMGR_GETLARGESTFREEBUF                                        
00013af1  NOROM_OSCHF_AttemptToSwitchToXosc                                
00013b49  NOROM_SetupGetTrimForAnabypassValue1                             
00013ba1  OsalPort_msgSend                                                 
00013c51  TRNG_init                                                        
00013d01  macApiOrphanRsp                                                  
00013d59  macRadioTxBackoffBoundary                                        
00013db1  macRadioTxGoLbt                                                  
00013e09  macRxOn                                                          
00013e61  ti_sysbios_family_arm_v8m_cc26x4_Timer_dynamicMultiStub          
00013eb9  StructRingBuf_put                                                
00013f0f  UART2_readCancel                                                 
00013f65  UtilTimer_construct                                              
00013fbb  _nop                                                             
00013fbd  MAC_SrcMatchEnable                                               
0001410d  macBeaconSetupCap                                                
00014161  macIncomingKeyUsagePolicyChecking                                
000141b5  macIndirectRequeueFrame                                          
00014209  macRadioTxPrepSlotted                                            
0001425d  macRequestSFDTimeout                                             
000142b1  macTimerAddTimer                                                 
00014305  macTimerCancel                                                   
00014359  macTxAckReceivedCallback                                         
00014401  AESCCM_setNonce                                                  
00014451  Board_shutDownExtFlash                                           
000144f1  macCheckIndPacket                                                
00014541  macRadioSetChannel                                               
00014591  macRadioTxPrepCsmaSlottedIeee                                    
000145e1  macRadioUpdateTxPower                                            
00014631  macTimerGetNextTimer                                             
00014721  ti_sysbios_knl_Swi_Instance_init                                 
00014771  ti_sysbios_knl_Swi_post                                          
000147c1  ti_sysbios_knl_Swi_runLoop                                       
00014811  Board_sendExtFlashByte                                           
000148ad  BIOS_startFunc                                                   
000148f9  Csf_networkUpdate                                                
00014945  MAC_SrcMatchAckAllPending                                        
00014991  NOROM_IntPendClear                                               
000149dd  NOROM_SetupSetCacheModeAccordingToCcfgSetting                    
00014a75  NVSCC26XX_read                                                   
00014b0d  RF_getCurrentTime                                                
00014b59  StructRingBuf_get                                                
00014ba5  macDutyCycleByteToUSec                                           
00014bf1  macGetRadioTxPowerReg                                            
00014c3d  macIndirectMark                                                  
00014c89  macRadioSendEnhAck                                               
00014cd5  macRadioTxHandleAck                                              
00014d21  macRadioWakeupCb                                                 
00014d6d  macSymbolTimerEventHandler                                       
00014db9  macSymbolTimerRolloverCallback                                   
00014e51  MAC_SrcMatchSetDefaultPend                                       
00014e99  NOROM_ChipInfo_GetHwRevision                                     
00014ee1  NOROM_RFCSynthPowerDown                                          
00014f29  NVS_open                                                         
00014fb9  PowerCC26XX_switchXOSC_HF                                        
00015001  UART2_readFull                                                   
00015049  macMainReset                                                     
00015091  ti_sysbios_knl_Task_schedule                                     
000150d9  RingBuf_put                                                      
00015121  BIOS_atExitFunc                                                  
00015165  CUI_menuActionHelp                                               
000151a9  Cllc_addSecDevice                                                
000151ed  Collector_sendDeviceTypeRequest                                  
00015231  Collector_sendToggleLedRequest                                   
00015275  Csf_stateChangeUpdate                                            
000152b9  NOROM_PRCMPowerDomainsAllOff                                     
000152fd  NOROM_PRCMPowerDomainsAllOn                                      
00015341  NVSCC26XX_init                                                   
00015385  PWM_init                                                         
000153c9  RF_TxPowerTable_findValue                                        
00015451  convertTxOptions                                                 
00015495  macRadioTxPrepCsmaUnslottedSubG                                  
000154d9  macRatDisableChannels                                            
0001551d  macRxNokIsr                                                      
00015561  macSendFsCmd                                                     
000155a5  macStartContinue                                                 
000155e9  ti_sysbios_family_arm_v8m_Hwi_Instance_finalize                  
0001562d  ti_sysbios_family_arm_v8m_Hwi_construct2                         
00015671  ti_sysbios_family_arm_v8m_Hwi_disableInterrupt                   
000156b5  ti_sysbios_family_arm_v8m_Hwi_enableInterrupt                    
000156f9  ti_sysbios_knl_Swi_restore                                       
0001573d  ti_sysbios_knl_Task_create                                       
00015781  macDestSAddrCmp                                                  
000157c5  Cllc_sendDisassociationRequest                                   
00015805  Csf_IndicateOrphanReJoin                                         
00015845  Csf_deviceConfigUpdate                                           
00015885  Csf_deviceDisassocUpdate                                         
000158c5  Csf_deviceSensorDeviceTypeResponseUpdate                         
00015905  Csf_removeDeviceListItem                                         
00015945  MAC_MlmeGetReq                                                   
00015985  OsalPort_deleteTimer                                             
000159c5  OsalPort_msgEnqueueMax                                           
00015a05  PWM_open                                                         
00015a45  PowerCC26X2_RCOSC_clockFunc                                      
00015a85  atoi                                                             
00015b45  macRxAssociateReq                                                
00015b85  macSetDefaultsByPatch                                            
00015bc5  macSymbolTimerRealignIeee                                        
00015c05  macSymbolTimerRealignSubG                                        
00015c45  macTimerUpdActive                                                
00015c85  macTxFrameIsr                                                    
00015cc5  macTxTimestampCallback                                           
00015d05  ti_sysbios_family_arm_v8m_cc26x4_Timer_start                     
00015d45  ti_sysbios_knl_Task_exit                                         
00015d85  ti_sysbios_runtime_Startup_exec                                  
00015e05  LED_setBrightnessLevel                                           
00015e43  LED_setOff                                                       
00015e81  macDestAddrCmp                                                   
00015ebf  ApiMac_buildMsgCapInfo                                           
00015efb  macApiPwrOnReq                                                   
00015f39  ClockP_create                                                    
00015f75  GPIO_resetConfig                                                 
00015fb1  HwiP_construct                                                   
00015fed  MAC_SrcMatchCheckResult                                          
00016029  NOROM_OSC_HPOSCRelativeFrequencyOffsetGet                        
000160dd  macMRFSKGetPhyDesc                                               
00016119  macRadioSetPanCoordinator                                        
00016155  macRadioSetPanID                                                 
00016191  macRxDisable                                                     
000161cd  macTxDecrypt                                                     
00016209  mac_msg_deallocate                                               
00016281  ti_sysbios_family_arm_v8m_cc26x4_Timer_setThreshold              
000162bd  ti_sysbios_heaps_HeapCallback_construct                          
000162f9  ti_sysbios_knl_TaskSupport_swap                                  
00016312  ti_sysbios_knl_TaskSupport_swapReturn                            
00016335  ti_sysbios_knl_Task_blockI                                       
00016371  ti_sysbios_knl_Task_restore                                      
000163ad  ti_sysbios_runtime_Memory_alloc                                  
000163e9  macCheckPhyRate                                                  
00016423  Cllc_setJoinPermit                                               
0001645b  macMcuBitReverse                                                 
0001645d  Csf_getNumDeviceListEntries                                      
00016495  LED_setOn                                                        
000164cd  MAC_SrcMatchDeleteEntry                                          
0001653d  NOROM_AUXSYSIFOpModeChange                                       
00016575  NOROM_OSCClockSourceSet                                          
0001661d  OsalPort_waitEvent                                               
00016655  Random_getNumber                                                 
0001668d  RingBuf_putAdvance                                               
000166c5  UART2_rxEnable                                                   
000166fd  UDMACC26XX_close                                                 
000167dd  macBeaconStopTrack                                               
00016815  macDataRxInd                                                     
0001684d  macIncomingNonSlottedTx                                          
00016885  macRadioNeedAdjustPower                                          
000168bd  macRadioSetIEEEAddr                                              
000168f5  macRxCheckMACPendingCallback                                     
0001692d  macSymbolTimerCount                                              
00016965  macTxAckNotReceivedCallback                                      
0001699d  macTxFrameRetransmit                                             
000169d5  macTxUpdateIE                                                    
00016a0d  pthread_mutex_init                                               
00016a45  ti_sysbios_family_arm_v8m_Hwi_excHandlerAsm                      
00016a7d  ti_sysbios_knl_ClockSupport_init                                 
00016ab5  ti_sysbios_knl_Task_processVitalTaskFlag                         
00016aed  ti_sysbios_runtime_Error_print                                   
00016b25  __TI_auto_init_nobinit_nopinit                                   
00016b5d  CryptoUtils_buffersMatch                                         
00016b93  SwiP_construct                                                   
00016c31  Csf_identifyLED                                                  
00016c65  Csf_setBroadcastClock                                            
00016c99  Csf_setConfigClock                                               
00016ccd  Csf_setJoinPermitClock                                           
00016d01  Csf_setTrackingClock                                             
00016d35  NOROM_PRCMPowerDomainOff                                         
00016d69  NOROM_TRNGConfigure                                              
00016e05  OsalPortTimers_cleanUpTimers                                     
00016e39  OsalPort_registerTask                                            
00016e6d  PowerCC26X2_setAclkRefSrc                                        
00016ea1  Power_releaseConstraint                                          
00016ed5  RF_powerConstraintRelease                                        
00016f3d  UART2_rxDisable                                                  
00016f71  _pthread_cleanupFxn                                              
00016fd9  macApiWSAsyncReq                                                 
0001700d  macDutyCycleUpdateTransmission                                   
00017041  macRadioPowerUp                                                  
00017075  macRadioStopScan                                                 
000170a9  macRadioTxGoSlottedCsma                                          
000170dd  macRadioTxPrepGreenPower                                         
00017111  macRxBeaconReq                                                   
00017145  macScanCnfInit                                                   
000171e1  macSymbolTimerSetTrigger                                         
00017215  macTxAbortIsr                                                    
00017249  pthread_mutex_unlock                                             
0001727d  ti_sysbios_family_arm_v8m_Hwi_getStackInfo                       
000172b1  ti_sysbios_family_arm_v8m_Hwi_init                               
000172e5  ti_sysbios_knl_Clock_Instance_init                               
00017319  ti_sysbios_knl_Task_unblockI                                     
0001734d  ti_sysbios_runtime_Error_raiseX                                  
00017381  ti_sysbios_runtime_System_atexit                                 
000173b5  _c_int00                                                         
000173e9  MAC_SrcMatchSetPend                                              
0001741b  macNoAction                                                      
0001744d  BIOS_init                                                        
0001747d  Board_wakeUpExtFlash                                             
000174ad  ClockP_construct                                                 
000174dd  GPIO_setInterruptConfig                                          
0001750d  NOROM_AESStartDMAOperation                                       
0001753d  NOROM_PRCMPowerDomainOn                                          
0001756d  NOROM_SysCtrlIdle                                                
0001759d  NVSCC26XX_erase                                                  
000175cd  OsalPort_msgExtract                                              
000175fd  PowerCC26X2_oscDisableQualifiers                                 
0001762d  PowerCC26X2_setTdcClkSrc24M                                      
0001765d  Power_setConstraint                                              
000176bd  SemaphoreP_construct                                             
0001777d  macDeviceDescriptorLookup                                        
000177ad  macFrameDurationIeee                                             
000177dd  macHandleTxAck                                                   
0001780d  macRadioLimitTxPower                                             
0001783d  macRadioTxPrepCsmaUnslottedIeee                                  
0001786d  macSetUserConfig                                                 
0001789d  macTimerInit                                                     
000178cd  macTimerRecalcUnaligned                                          
0001792d  ti_sysbios_knl_Semaphore_pendTimeout                             
0001795d  ti_sysbios_knl_TaskSupport_start                                 
0001798d  ti_sysbios_runtime_System_processAtExit                          
000179eb  RingBuf_getConsume                                               
00017a19  RingBuf_putPointer                                               
00017a47  macRxOrphan                                                      
00017a75  Cllc_findDevice                                                  
00017aa1  Cllc_getFormingPanId                                             
00017acd  Csf_getDeviceShort                                               
00017af9  Csf_getNetworkInformation                                        
00017b25  NOROM_AESReadFromKeyStore                                        
00017b51  NOROM_AESReadTag                                                 
00017b7d  NOROM_OSCHF_SwitchToRcOscTurnOffXosc                             
00017ba9  NOROM_uDMAChannelAttributeDisable                                
00017c2d  NVS_init                                                         
00017c59  PowerCC26X2_releasePeriphDependency                              
00017c85  PowerCC26X2_setPeriphDependency                                  
00017cb1  PowerCC26X2_setSubSecIncToXoscLf                                 
00017cdd  PowerCC26XX_schedulerDisable                                     
00017d8d  UART2Support_enableInts                                          
00017de5  macApiAssociateRsp                                               
00017e11  macDutyCycleCheck                                                
00017e3d  macRadioPowerUpWait                                              
00017e69  macRatCb_B                                                       
00017e95  macRatDisableChannelB                                            
00017ec1  macRxHardDisable                                                 
00017eed  macSetDefaultsByRE                                               
00017f19  macSymbolTimerBCWakeUp                                           
00017f45  macSymbolTimerICallTimerCback                                    
00017f71  macTimerAligned                                                  
00017f9d  rf_patch_cpe_multi_protocol                                      
00017fc9  ti_sysbios_knl_Clock_getTicksUntilInterrupt                      
00017ff5  ti_sysbios_knl_Clock_getTimeout                                  
00018021  ti_sysbios_knl_Swi_setPri                                        
0001804d  ti_sysbios_knl_Task_restoreHwi                                   
00018079  NOROM_DDI16BitfieldWrite                                         
000180a3  macRadioSetRE                                                    
000180a5  OsalPort_buildUint32                                             
000180cf  TRNG_generateKey                                                 
000180f9  UART2Support_powerRelConstraint                                  
00018123  macRadioComputeLQI                                               
0001814d  radioComputeED                                                   
00018177  ti_sysbios_family_arm_v8m_cc26x4_Timer_getCurrentTick            
000181a1  ti_sysbios_family_arm_v8m_cc26x4_Timer_setNextTick               
000181cb  ti_sysbios_knl_Task_allBlockedFunction                           
000181f5  BIOS_registerRTSLock                                             
00018245  Cllc_setDefaultKey                                               
0001826d  Csf_displayError                                                 
00018295  Csf_initializeBroadcastClock                                     
000182bd  Csf_initializeConfigClock                                        
000182e5  Csf_initializeIdentifyClock                                      
0001830d  Csf_initializeTrackingClock                                      
00018335  List_remove                                                      
0001835d  MAC_MlmeGetPointerSecurityReq                                    
00018385  NOROM_AONBatMonTemperatureGetDegC                                
000183ad  NOROM_AONEventMcuWakeUpSet                                       
000183d5  NOROM_OSCClockSourceGet                                          
000183fd  OsalPort_heapGetStats                                            
00018425  OsalPort_msgEnqueue                                              
0001844d  PowerCC26XX_isStableXOSC_HF                                      
0001849d  calloc                                                           
000184ed  macPibReset                                                      
00018515  macRxOff                                                         
0001853d  macSetTxPowerVal                                                 
00018565  macTxInit                                                        
0001858d  sem_init                                                         
00018605  ti_sysbios_knl_Swi_init                                          
0001862d  ti_sysbios_knl_Task_construct                                    
00018655  ti_sysbios_knl_Task_init                                         
000186a5  List_insert                                                      
000186cb  OsalPort_msgDequeue                                              
000186f1  UART2Support_powerSetConstraint                                  
00018717  macLowLevelDiags                                                 
0001873d  sAddrCmp                                                         
000187ad  BIOS_removeRTSLock                                               
000187f5  List_put                                                         
00018819  List_putHead                                                     
0001883d  NOROM_AESWaitForIRQFlags                                         
00018861  NOROM_PRCMPeripheralDeepSleepDisable                             
00018885  NOROM_PRCMPeripheralRunDisable                                   
000188a9  NOROM_PRCMPeripheralSleepDisable                                 
000188cd  NOROM_UARTConfigSetExpClk                                        
000188f1  OsalPort_msgAllocate                                             
00018915  Power_registerNotify                                             
000189c9  SemaphoreP_createBinary                                          
00018a35  macApiPending                                                    
00018a59  macCoordAddrCmp                                                  
00018a7d  macRadioSwInit                                                   
00018aa1  macRatCb_A                                                       
00018ac5  macRxSoftDisable                                                 
00018ae9  macRxSoftEnable                                                  
00018b31  macStartComplete                                                 
00018b55  macSymbolTimerRestore                                            
00018b79  macSymbolTimerSetRollover                                        
00018c51  ti_sysbios_family_arm_v8m_Hwi_construct                          
00018c75  ti_sysbios_knl_Semaphore_Instance_init                           
00018c99  ti_sysbios_knl_Semaphore_destruct                                
00018cbd  ti_sysbios_knl_Task_enter                                        
00018ce1  AESCCM_setLengths                                                
00018d03  LED_stopBlinking                                                 
00018d25  List_get                                                         
00018d69  RingBuf_getPointer                                               
00018d8b  UART2Support_sendData                                            
00018dad  UART2_read                                                       
00018df1  sAddrExtCmp                                                      
00018e13  ti_sysbios_family_arm_v8m_Hwi_switchAndRunFunc                   
00018e35  ti_sysbios_gates_GateMutexPri_insertPri                          
00018e57  macRadioTxCancelTxAck                                            
00018e59  Collector_updateStats                                            
00018e79  Csf_closeNwk                                                     
00018e99  Csf_openNwk                                                      
00018eb9  MAC_AbortScan                                                    
00018ed9  NOROM_PRCMPeripheralDeepSleepEnable                              
00018ef9  NOROM_PRCMPeripheralRunEnable                                    
00018f19  NOROM_PRCMPeripheralSleepEnable                                  
00018f39  NOROM_RFCDoorbellSendTo                                          
00018f59  NOROM_RFCOverrideSearch                                          
00018f79  NOROM_SetupGetTrimForXoscHfCtl                                   
00018f99  NOROM_SetupSetAonRtcSubSecInc                                    
00018fb9  NOROM_ThisLibraryIsFor_CC13x4_CC26x4_HaltIfViolated              
00018fd9  PowerCC26X2_disableTCXOQual                                      
00018ff9  PowerCC26X2_enableTCXOQual                                       
00019019  PowerCC26XX_schedulerRestore                                     
00019039  Power_unregisterNotify                                           
00019079  RF_getRssi                                                       
000190d9  RF_setTxPower                                                    
000190f9  SemaphoreP_constructBinary                                       
00019139  macGetRadioState                                                 
00019159  macMcuTimerCapture                                               
00019179  macPibIndex                                                      
00019199  macRadioSetShortAddr                                             
000191b9  macRxCheckPendingCallback                                        
000191d9  macRxEnable                                                      
000191f9  macRxOnOffInit                                                   
00019219  macRxSFDTimerExpiry                                              
00019239  macSymbolTimerSetTriggerRollover                                 
00019259  macTimer                                                         
00019319  rfSelect                                                         
00019399  ti_sysbios_family_arm_v8m_Hwi_initStack                          
000193b9  ti_sysbios_gates_GateMutexPri_Instance_init                      
000193d9  ti_sysbios_knl_Clock_create                                      
000193f9  ti_sysbios_knl_Clock_delete                                      
00019419  ti_sysbios_knl_Semaphore_delete                                  
00019439  ti_sysbios_knl_Task_delete                                       
00019459  ti_sysbios_knl_Task_destruct                                     
00019479  OsalPort_msgDeallocate                                           
00019497  UART2_writeTimeout                                               
000194b5  __aeabi_llsl                                                     
000194b5  __ashldi3                                                        
000194d3  macScanFailedInProgress                                          
000194f1  ti_sysbios_knl_Semaphore_create                                  
0001950f  ti_sysbios_runtime_System_exitSpin                               
00019511  BIOS_rtsLock                                                     
0001952d  CUI_menuActionBack                                               
00019549  Csf_deviceNotActiveUpdate                                        
00019565  GPIO_read                                                        
00019581  GPIO_setCallback                                                 
0001959d  HwiP_setPriority                                                 
000195b9  NOROM_DDI16BitfieldRead                                          
000195d5  NOROM_OSCHF_TurnOnXosc                                           
000195f1  NOROM_PRCMDeepSleep                                              
0001960d  NOROM_SysCtrlResetSourceGet                                      
00019661  OsalPort_memcmp                                                  
0001967d  PowerCC26X2_getOscHfSourceReady                                  
00019699  PowerCC26X2_writeCtrim                                           
000196b5  PowerCC26X2_writeCtrimFract                                      
000196d1  PowerCC26X2_writeCtrimFractEn                                    
000196ed  PowerCC26X2_writeRtrim                                           
00019709  Power_getTransitionLatency                                       
0001975d  RF_powerConstraintSet                                            
00019795  RingBuf_flush                                                    
000197b1  crc_update                                                       
000197cd  macDataRxMemAlloc                                                
000197e9  macMcuOverflowCapture                                            
00019805  macNopBackoffTimerExpiry                                         
0001983d  macRxAckTxDoneCallback                                           
00019859  macSymbolTimerPowerDown                                          
000198c9  ti_sysbios_knl_Clock_Instance_finalize                           
000198e5  ti_sysbios_knl_Clock_construct                                   
00019901  ti_sysbios_knl_Idle_run                                          
0001991d  ti_sysbios_knl_Queue_put                                         
00019939  ti_sysbios_knl_Semaphore_construct                               
00019955  ti_sysbios_knl_Swi_construct                                     
00019971  ti_sysbios_knl_Swi_destruct                                      
000199a7  LED_toggle                                                       
000199c1  NOROM_UARTDisable                                                
000199db  NOROM_uDMAChannelSizeGet                                         
000199f5  OsalPort_msgPush                                                 
00019a0f  UART2Support_disableRx                                           
00019a29  copyApiMacAddrToMacAddr                                          
00019a43  macCheckPhyMode                                                  
00019a5d  AESReadAuthenticationModeIV                                      
00019a75  AESWriteKey3                                                     
00019a8d  BIOS_exitFunc                                                    
00019aa5  BIOS_rtsUnlock                                                   
00019abd  Cllc_setChanMask                                                 
00019ad5  CryptoUtils_memset                                               
00019aed  GPIO_disableInt                                                  
00019b05  MAC_EnableFH                                                     
00019b1d  NOROM_AESSetInitializationVector                                 
00019b35  NOROM_TRNGNumberGet                                              
00019b4d  NVSCC26XX_getAttrs                                               
00019b65  NVSCC26XX_lock                                                   
00019b7d  PowerCC26XX_calibrate                                            
00019b95  Power_idleFunc                                                   
00019bad  RF_ScheduleCmdParams_init                                        
00019bc5  RF_cancelCmd                                                     
00019c0d  Util_clearEvent                                                  
00019c25  Util_setEvent                                                    
00019c6d  macBeaconReset                                                   
00019c85  macFrameDuration                                                 
00019c9d  macGetMyAddrMode                                                 
00019cb5  macRadioInit                                                     
00019ccd  macRadioTxPrepCsmaSlotted                                        
00019ce5  macRadioTxPrepCsmaUnslotted                                      
00019cfd  macSendReceiveCmd                                                
00019d15  macSymbolTimerRealign                                            
00019d2d  macWrapper8ByteUnused                                            
00019d75  pthread_attr_init                                                
00019d8d  ti_sysbios_knl_Clock_getTicks                                    
00019da5  ti_sysbios_knl_Clock_scheduleNextTick                            
00019dbd  ti_sysbios_knl_Swi_construct2                                    
00019dd5  ti_sysbios_knl_Swi_or                                            
00019ded  ti_sysbios_knl_TaskSupport_glue                                  
00019e05  ti_sysbios_knl_Task_unblock                                      
00019e1d  ti_sysbios_runtime_System_printf                                 
00019e35  ti_sysbios_runtime_System_vprintf                                
00019e95  Board_init                                                       
00019eab  Cllc_securityFill                                                
00019ec1  HwiP_interruptsEnabled                                           
00019ed7  HwiP_setFunc                                                     
00019eed  List_clearList                                                   
00019f03  RF_ratCompare                                                    
00019f19  SystemP_snprintf                                                 
00019f45  macRadioSetTxPower                                               
00019f5b  macTimerRemoveTimer                                              
00019f71  ti_sysbios_knl_Clock_start                                       
00019f87  ti_sysbios_knl_Task_block                                        
00019f9d  AESCCM_init                                                      
00019fb1  MAC_SrcMatchCheckAllPending                                      
00019fc5  NOROM_AONRTCCurrent64BitValueGet                                 
00019fd9  NOROM_SetupGetTrimForRcOscLfRtuneCtuneTrim                       
0001a015  RF_flushCmd                                                      
0001a029  SwiP_disable                                                     
0001a03d  TRNG_close                                                       
0001a065  __aeabi_uldivmod                                                 
0001a079  _args_main                                                       
0001a08d  macConflictSyncLossInd                                           
0001a0a1  macDataSend                                                      
0001a0b5  macMainReserve                                                   
0001a0c9  macRxOnRequest                                                   
0001a0dd  macStateIdleOrPolling                                            
0001a0f1  macStateScanning                                                 
0001a105  macSymbolSetupPwrMgmt                                            
0001a119  macWSAsyncCnf                                                    
0001a12d  pthread_attr_setschedparam                                       
0001a141  pthread_mutexattr_init                                           
0001a169  ti_sysbios_family_arm_v8m_Hwi_switchFromBootStack                
0001a1a5  Cllc_startNetwork                                                
0001a1b7  NOROM_UARTCharPutNonBlocking                                     
0001a1db  NVS_write                                                        
0001a1ff  RF_getCmdOp                                                      
0001a211  StructRingBuf_construct                                          
0001a235  macCheckSched                                                    
0001a247  macSymbolTimerCompareIsr                                         
0001a259  sAddrCpy                                                         
0001a27d  TI_memcpy_small                                                  
0001a291  AESCCM_Params_init                                               
0001a2a1  AESCCM_open                                                      
0001a2b1  ApiMac_mlmeSetReqBool                                            
0001a2c1  ApiMac_mlmeSetReqUint16                                          
0001a2d1  ApiMac_mlmeSetReqUint8                                           
0001a2e1  ApiMac_mlmeSetSecurityReqUint16                                  
0001a2f1  Button_Params_init                                               
0001a301  Cllc_getChanMask                                                 
0001a311  Cllc_getDefaultKey                                               
0001a321  Cllc_securityCheck                                               
0001a331  Cllc_setFormingPanId                                             
0001a341  ClockP_getCpuFreq                                                
0001a351  GPIO_write                                                       
0001a361  HwiP_Params_init                                                 
0001a371  HwiP_post                                                        
0001a381  MAC_CbackCheckPending                                            
0001a391  MAC_CbackQueryRetransmit                                         
0001a3a1  MAC_SrcMatchSetManualAddressTracking                             
0001a3b1  Main_assertHandler                                               
0001a3c1  NOROM_IOCPortConfigureSet                                        
0001a3d1  NOROM_RFCCpeIntGetAndClear                                       
0001a3e1  NOROM_RFCHwIntGetAndClear                                        
0001a3f1  NOROM_VIMSModeGet                                                
0001a481  OsalPort_memcpy                                                  
0001a491  PWM_Params_init                                                  
0001a4a1  PowerCC26X2_oscCtlClearXtal                                      
0001a4b1  PowerCC26X2_prcmEnableCacheRetention                             
0001a4c1  PowerCC26X2_readCtrim                                            
0001a4d1  PowerCC26X2_readCtrimFract                                       
0001a4e1  PowerCC26X2_readRtrim                                            
0001a4f1  PowerCC26X2_switchToTCXO                                         
0001a501  Power_getDependencyCount                                         
0001a511  RingBuf_construct                                                
0001a521  SwiP_Params_init                                                 
0001a531  UART2Support_txDone                                              
0001a551  macDataTxTimeAvailable                                           
0001a561  macRxPanConflict                                                 
0001a571  macSetEvent16                                                    
0001a581  macSetEvent                                                      
0001a5a1  ti_sysbios_family_arm_v8m_Hwi_excHandler                         
0001a5b1  ti_sysbios_family_arm_v8m_cc26x4_Timer_dynamicStub               
0001a5c1  ti_sysbios_runtime_System_vsnprintf                              
0001a5d1  __TI_zero_init                                                   
0001a5e1  AESCCM_close                                                     
0001a5ef  LED_Params_init                                                  
0001a60b  NVS_read                                                         
0001a67b  RF_RatConfigCompare_init                                         
0001a689  StructRingBuf_isFull                                             
0001a697  SwiP_setPriority                                                 
0001a6a5  UART2_write                                                      
0001a6b3  Util_buildUint32                                                 
0001a6c1  macLowLevelBufferInit                                            
0001a6cf  macLowLevelReset                                                 
0001a6dd  macLowLevelResume                                                
0001a6eb  sem_wait                                                         
0001a731  TI_memset_small                                                  
0001a73f  __TI_decompress_none                                             
0001a74d  ApiMac_registerCallbacks                                         
0001a759  BIOS_linkedWithIncorrectBootLibrary                              
0001a765  BIOS_start                                                       
0001a771  ClockP_delete                                                    
0001a77d  CryptoKeyPlaintext_initBlankKey                                  
0001a789  CryptoKeyPlaintext_initKey                                       
0001a795  Csf_isConfigTimerActive                                          
0001a7a1  Csf_isTrackingTimerActive                                        
0001a7ad  HwiP_disable                                                     
0001a7b9  MAC_SrcMatchCheckManualAddressTracking                           
0001a7c5  NOROM_OSC_HPOSCRelativeFrequencyOffsetToRFCoreFormatConvert      
0001a7dd  NVSCC26XX_unlock                                                 
0001a819  OsalPortTimers_registerCleanupEvent                              
0001a825  OsalPort_stopTimer                                               
0001a831  Power_getConstraintMask                                          
0001a83d  RF_Params_init                                                   
0001a849  SemaphoreP_delete                                                
0001a855  SwiP_getTrigger                                                  
0001a861  UART2Support_disableTx                                           
0001a86d  UART2Support_enableRx                                            
0001a879  UART2Support_enableTx                                            
0001a885  UART2_Params_init                                                
0001a891  _register_lock                                                   
0001a89d  _register_unlock                                                 
0001a8b5  macDefaultAction                                                 
0001a8c1  macIsCsmOperational                                              
0001a8cd  macMainSetTaskId                                                 
0001a8d9  macPwrReset                                                      
0001a8e5  macRxSequenceNum                                                 
0001a8f1  osalHeapInitFxn                                                  
0001a909  pthread_attr_setdetachstate                                      
0001a915  pthread_self                                                     
0001a921  ti_sysbios_knl_ClockSupport_getCurrentTick                       
0001a92d  ti_sysbios_knl_ClockSupport_setNextTick                          
0001a939  ti_sysbios_knl_Clock_tick                                        
0001a945  AESCCM_Operation_init                                            
0001a94f  CUI_clientParamsInit                                             
0001a959  ClockP_Params_init                                               
0001a963  MAC_MlmeAssociateRsp                                             
0001a96d  MAC_MlmeDisassociateReq                                          
0001a977  MAC_MlmeOrphanRsp                                                
0001a981  NOROM_VIMSModeSet                                                
0001aa2b  OsalPort_enterCS                                                 
0001aa35  PowerCC26X2_sysCtrlStandby                                       
0001aa3f  SemaphoreP_pend                                                  
0001aa53  UDMACC26XX_hwiIntFxn                                             
0001aa5d  Util_copyExtAddr                                                 
0001aa69  __aeabi_memset                                                   
0001aa69  __aeabi_memset4                                                  
0001aa69  __aeabi_memset8                                                  
0001aa73  macDataRxMemFree                                                 
0001aa7d  macMcuRandomByte                                                 
0001aa87  macSetSched                                                      
0001aa91  sem_post                                                         
0001aa9b  Csf_free                                                         
0001aaa3  MAC_MlmeStartReq                                                 
0001aaab  MAC_MlmeSyncReq                                                  
0001aab3  NOROM_CPUcpsid                                                   
0001aabb  NOROM_CPUcpsie                                                   
0001aac3  NVSCC26XX_close                                                  
0001aadb  PowerCC26X2_oschfTrySwitchToXosc                                 
0001aae3  SemaphoreP_Params_init                                           
0001aaeb  UtilTimer_setTimeout                                             
0001aaf3  Util_breakUint32                                                 
0001aafd  __aeabi_errno_addr                                               
0001ab05  __aeabi_memclr                                                   
0001ab05  __aeabi_memclr4                                                  
0001ab05  __aeabi_memclr8                                                  
0001ab0d  macCsmaTimerExpiry                                               
0001ab15  macGetCSMPhy                                                     
0001ab1d  macIEEEGetPhyDesc                                                
0001ab25  macRxBackoffTimerExpiry                                          
0001ab2d  macTxBackoffTimerExpiry                                          
0001ab35  pthread_mutex_lock                                               
0001ab3d  ti_sysbios_runtime_System_exit                                   
0001ab45  AESCCM_oneStepDecrypt                                            
0001ab4b  AESCCM_oneStepEncrypt                                            
0001ab51  Button_setCallback                                               
0001ab57  CUI_paramsInit                                                   
0001ab5d  ClockP_stop                                                      
0001ab63  GPIO_setConfig                                                   
0001ab69  HwiP_restore                                                     
0001ab6f  Main_excHandler                                                  
0001ab75  NOROM_CPUdelay                                                   
0001ab7b  NVSCC26XX_control                                                
0001ab81  NVS_erase                                                        
0001ab87  NVS_getAttrs                                                     
0001abb1  OsalPort_leaveCS                                                 
0001abb7  PWM_close                                                        
0001abbd  PWM_setDuty                                                      
0001abc3  PWM_start                                                        
0001abc9  RF_RatConfigOutput_init                                          
0001abd5  RF_runDirectCmd                                                  
0001abdb  RF_runImmediateCmd                                               
0001abe1  Util_buildUint16                                                 
0001abe7  assertHandler                                                    
0001abed  macApiBadState                                                   
0001abf3  macApiUnsupported                                                
0001abf9  macRadioTxGoGreenPower                                           
0001abff  macRadioTxGoSlotted                                              
0001ac05  macSecCpy                                                        
0001ac0b  macTxBackoffHandler                                              
0001ac11  macTxCsmaDelay                                                   
0001ac17  osalHeapAllocFxn                                                 
0001ac1d  osalHeapFreeFxn                                                  
0001ac23  osalHeapGetStatsFxn                                              
0001ac29  pthread_attr_setstacksize                                        
0001ac2f  sAddrExtCpy                                                      
0001ac35  ti_sysbios_family_arm_v8m_Hwi_destruct                           
0001ac3b  ti_sysbios_family_arm_v8m_Hwi_doSwiRestore                       
0001ac41  ti_sysbios_family_arm_v8m_Hwi_doTaskRestore                      
0001ac47  ti_sysbios_heaps_HeapCallback_alloc                              
0001ac4d  ti_sysbios_heaps_HeapCallback_free                               
0001ac53  ti_sysbios_heaps_HeapCallback_getStats                           
0001ac59  ti_sysbios_heaps_HeapCallback_isBlocking                         
0001ac5f  ti_sysbios_knl_Idle_loop                                         
0001ac65  ti_sysbios_knl_Swi_startup                                       
0001ac6b  ApiMac_mcpsDataReq                                               
0001ac6f  ApiMac_mlmeAssociateRsp                                          
0001ac73  ApiMac_mlmeDisassociateReq                                       
0001ac77  ApiMac_mlmeGetReqArray                                           
0001ac7b  ApiMac_mlmeGetReqUint16                                          
0001ac7f  ApiMac_mlmeGetReqUint32                                          
0001ac83  ApiMac_mlmeGetReqUint8                                           
0001ac87  ApiMac_mlmeOrphanRsp                                             
0001ac8b  ApiMac_mlmeScanReq                                               
0001ac8f  ApiMac_mlmeSetSecurityReqArray                                   
0001ac93  ApiMac_mlmeSetSecurityReqStruct                                  
0001ac97  ApiMac_mlmeStartReq                                              
0001ac9b  ApiMac_secAddDevice                                              
0001ac9f  ApiMac_secAddKeyInitFrameCounter                                 
0001aca3  ApiMac_secDeleteDevice                                           
0001aca7  ClockP_destruct                                                  
0001acab  ClockP_getSystemTickPeriod                                       
0001acaf  ClockP_getSystemTicks                                            
0001acb3  ClockP_getTimeout                                                
0001acb7  ClockP_isActive                                                  
0001acbb  ClockP_setTimeout                                                
0001acbf  ClockP_start                                                     
0001acc3  Csf_malloc                                                       
0001acc7  HwiP_destruct                                                    
0001accb  HwiP_enableInterrupt                                             
0001accf  NOROM_DDI32RegWrite                                              
0001acd3  NOROM_RFCOverrideUpdate                                          
0001acd7  OsalPort_free                                                    
0001acdb  OsalPort_malloc                                                  
0001acdf  PowerCC26X2_oscClockSourceGet                                    
0001ace3  PowerCC26X2_oschfSwitchToRcosc                                   
0001ace7  PowerCC26X2_setPeriphDeepSleepEnable                             
0001aceb  PowerCC26X2_sysCtrlGetResetSource                                
0001acef  PowerCC26X2_sysCtrlIdle                                          
0001acf3  PowerCC26X2_sysCtrlUpdateVoltageRegulator                        
0001acf7  PowerCC26X2_turnOnXosc                                           
0001acfb  RF_defaultExecutionPolicy                                        
0001acff  ResetISR                                                         
0001ad03  RingBuf_getCount                                                 
0001ad07  SemaphoreP_destruct                                              
0001ad0b  SemaphoreP_post                                                  
0001ad0f  SwiP_destruct                                                    
0001ad13  SwiP_or                                                          
0001ad17  SwiP_restore                                                     
0001ad1b  SystemP_vsnprintf                                                
0001ad1f  TRNG_generateEntropy                                             
0001ad23  UtilTimer_isActive                                               
0001ad27  UtilTimer_start                                                  
0001ad2b  UtilTimer_stop                                                   
0001ad2f  Util_hiUint16                                                    
0001ad33  Util_loUint16                                                    
0001ad39  __aeabi_memcpy                                                   
0001ad39  __aeabi_memcpy4                                                  
0001ad39  __aeabi_memcpy8                                                  
0001ad3d  _system_post_cinit                                               
0001ad41  _system_pre_init                                                 
0001ad49  macBcTimerHandler                                                
0001ad4d  macDataTxDelayCallback                                           
0001ad51  macPibCheckByPatch                                               
0001ad55  macRadioRandomByte                                               
0001ad59  macRxBackoffHandler                                              
0001ad61  macSymbolTimerReset                                              
0001ad65  macTxAckIsr                                                      
0001ad6d  osalHeapIsBlockingFxn                                            
0001b3a0  __aeabi_ctype_table_                                             
0001b3a0  __aeabi_ctype_table_C                                            
0001b5a1  macPibTbl                                                        
0001b7ac  macPibDefaults                                                   
0001b8bb  macIdleSt                                                        
0001b92d  macScanningSt                                                    
0001b99f  macStartingSt                                                    
0001ba14  macRfDriverTable                                                 
0001ba80  resourceDB                                                       
0001bae8  macSecurityPibTbl                                                
0001bb98  macMRFSKStdPhyTable                                              
0001bcbc  macCryptoDriverTable                                             
0001bcfc  macTimerRolloverValue                                            
0001bdf8  macCmdIncludeFHIe                                                
0001bed0  RF_cmdPropRxAdv_2gfsk50kbps154g                                  
0001bf2c  NVSCC26XX_fxnTable                                               
0001bf54  RF_cmdPropRadioDivSetup_2gfsk50kbps154g                          
0001bf7c  activityObject                                                   
0001bff3  Button_count                                                     
0001bff4  UART2_defaultParams                                              
0001c0a4  RF_cmdPropTxAdv_2gfsk50kbps154g                                  
0001c124  RF_cmdPropCs_2gfsk50kbps154g                                     
0001c1e8  PWM_defaultParams                                                
0001c200  RF_cmdFs_2gfsk50kbps154g                                         
0001c218  macSendMsgBufSize                                                
0001c420  Button_defaultParams                                             
0001c434  PowerCC26X2_config                                               
0001c448  TRNG_defaultParams                                               
0001c484  msacbackSizeTable                                                
0001c594  AESCCM_defaultParams                                             
0001c5b4  Button_config                                                    
0001c5c4  GPIO_config                                                      
0001c5d4  LED_config                                                       
0001c5f4  macIEEEPhyTable                                                  
0001c652  macCmdBufSize                                                    
0001c660  macTxFrameFailed                                                 
0001c66e  macTxFrameSuccess                                                
0001c69a  GPIO_pinLowerBound                                               
0001c69b  GPIO_pinUpperBound                                               
0001c6a8  NVS_config                                                       
0001c6b4  RFCC26XX_hwAttrs                                                 
0001c6cc  macCbackEventTbl                                                 
0001c6d8  macSendMsgDataSize                                               
0001c729  LED_count                                                        
0001c72a  NVS_count                                                        
0001c72b  UART2_count                                                      
0001c740  macCmdLen                                                        
0001c79a  aesccmCC26X4HWAttrs                                              
0001c79c  AESCCM_config                                                    
0001c7a4  Cllc_keySource                                                   
0001c7ac  LED_defaultParams                                                
0001c7b4  UART2_config                                                     
0001c7bc  UDMACC26XX_config                                                
0001c7dc  macAuthTagLen                                                    
0001c804  ti_sysbios_knl_Idle_funcList                                     
0001c80c  udmaCC26XXHWAttrs                                                
0001c860  NVS_defaultParams                                                
0001c864  TimestampP_nativeFormat32                                        
0001c868  TimestampP_nativeFormat64                                        
0001c874  macKeySourceLen                                                  
0001c890  ti_sysbios_family_arm_v8m_Hwi_swiTaskKeyAddress                  
0001c894  __c_args__                                                       
0001cbf4  __TI_Handler_Table_Base                                          
0001cc00  __TI_Handler_Table_Limit                                         
0001cc28  __TI_CINIT_Base                                                  
0001cc58  __TI_CINIT_Limit                                                 
0001cc58  __TI_CINIT_Warm                                                  
200002c0  uart2CC26X2Objects                                               
20000470  tBuffer                                                          
20000c70  Cllc_associatedDevList                                           
200010c8  ti_sysbios_knl_Idle_taskStack                                    
200012c8  menuBuff                                                         
20001470  taskTbl                                                          
200016d8  ti_sysbios_family_arm_v8m_Hwi_dispatchTable                      
200017d4  enhancedAckBuf                                                   
200018d0  gpioCallbackFunctions                                            
20001990  gpioUserArgs                                                     
20001a50  LEDObjects                                                       
20001b08  FH_hnd                                                           
20001b90  macPib                                                           
20001c80  aesccmCC26X4Objects                                              
20001ce8  ti_sysbios_knl_ClockSupport_timerStruct                          
20001d48  RF_cmdIEEERx                                                     
20001da0  ti_sysbios_knl_Idle_taskStruct                                   
20001df8  macScan                                                          
20001f8c  CryptoResourceCC26XX_accessSemaphore                             
20001fdc  CryptoResourceCC26XX_operationSemaphore                          
2000202c  cuiMultiMenuData                                                 
20002078  ButtonObjects                                                    
200020c0  NVOCMP_nvHandle                                                  
200022e4  macSecurityPib                                                   
20002360  Collector_statistics                                             
2000239c  dcBucket                                                         
200023d0  macBeaconDevice                                                  
20002404  RF_cmdPropRadioDivSetup                                          
20002434  RF_cmdPropRxAdv                                                  
20002464  macMgmtAction1                                                   
20002494  macSrcExtAddrList                                                
200024c4  ti_sysbios_knl_Swi_readyQs                                       
200024f4  ti_sysbios_knl_Task_readyQs                                      
20002524  macCoord                                                         
20002550  macDevice                                                        
200025c0  RF_cmdIEEECsma                                                   
200025e0  RF_cmdPropTxAdv                                                  
20002600  RF_cmdRadioSetup                                                 
20002620  RF_params                                                        
20002640  macBeacon                                                        
20002660  udmaCC26XXObject                                                 
200026d4  BIOS_heapCallbackObject                                          
200026f0  BIOS_rtsGate                                                     
2000270c  CryptoResourceCC26XX_hwi                                         
20002728  RF_cmdPropCs                                                     
20002744  RF_cmdPropCsSlotted                                              
20002760  macCoordAction2                                                  
2000277c  macReset                                                         
20002798  macSemHandle                                                     
200027b4  macSrcShortAddrList                                              
200027d0  RF_cmdFsRx                                                       
200027e8  RF_cmdFsTx                                                       
20002800  RF_cmdIEEETx                                                     
20002818  macScanAction                                                    
20002858  RF_cmdRxAckCmd                                                   
2000286c  macAckDbg                                                        
20002880  macMgmtAction2                                                   
20002894  macStatistics                                                    
200028c8  macCoordAction3                                                  
200028d8  macData                                                          
200028e8  macDataTxDelay                                                   
200028f8  macFrmFilter                                                     
20002908  macRxOutputIeee                                                  
20002918  coexMetricsStruct                                                
20002924  macMain                                                          
20002930  macRxOutputSubG                                                  
2000293c  ApiMac_extAddr                                                   
20002944  coexOverrideUseCases                                             
2000294c  macCoordAction1                                                  
20002954  macRxDataEntryQueue                                              
20002960  AESCCM_handle                                                    
20002964  HEAPMGR_SIZE                                                     
20002968  PowerCC26XX_swiKey                                               
2000296c  PowerCC26XX_taskKey                                              
20002970  appThread                                                        
20002974  collectorStatusLine                                              
20002978  csfCuiHndl                                                       
2000297c  dcCritical                                                       
20002980  dcLimited                                                        
20002984  dcPtr                                                            
20002988  dcRegulated                                                      
2000298c  dcTimeUsed                                                       
20002990  deviceStatusLine                                                 
20002994  macCryptoDrvTblPtr                                               
20002998  macPhyTxPower                                                    
2000299c  macPrevPeriodRatCount                                            
200029a0  macRfDrvTblPtr                                                   
200029a4  macRxSymbol                                                      
200029a8  macSymbolTimerRollover                                           
200029ac  macSymbolTimerTrigger                                            
200029b0  macThread                                                        
200029b4  macTimerActive                                                   
200029b8  macTxTimestamp                                                   
200029bc  numJoinDevStatusLine                                             
200029c0  pClockHandleEDScan                                               
200029c4  pMacRadioConfig                                                  
200029c8  pMaxPower                                                        
200029cc  pRfMode                                                          
200029d0  pRfPowerTable                                                    
200029d4  rxRadioBufferPtr                                                 
200029d8  ti_sysbios_family_arm_v8m_cc26x4_Timer_funcHookCH1               
200029dc  ti_sysbios_family_arm_v8m_cc26x4_Timer_funcHookCH2               
200029e0  ti_sysbios_knl_Task_defaultStackHeap                             
200029e4  ti_sysbios_runtime_System_atexitHandlers                         
200029e8  timerAlignedQ                                                    
200029ec  timerUnalignedQ                                                  
200029f0  macRxDataEntryOffset                                             
200029f2  macTxCsmaBackoffDelay                                            
200029f4  rxCmdHandle                                                      
200029f6  txCmdHandle                                                      
200029fa  AppTaskId                                                        
200029fb  NVOCMP_size                                                      
200029fc  appTaskId                                                        
200029fd  dcStatus                                                         
200029fe  gAction                                                          
200029ff  lastRxPriority                                                   
20002a00  lastTxPriority                                                   
20002a01  macAckTxActive                                                   
20002a02  macMgmt                                                          
20002a03  macPanCoordinator                                                
20002a04  macPhyChannel                                                    
20002a05  macPwr                                                           
20002a06  macRxActive                                                      
20002a07  macRxEnableFlags                                                 
20002a08  macRxFilter                                                      
20002a09  macRxOutgoingAckFlag                                             
20002a0a  macSpecUsecsPerSymbol                                            
20002a0b  macSrcResIndex                                                   
20002a0c  macSymbolTimerImpending                                          
20002a0d  macTaskId                                                        
20002a0e  macTxActive                                                      
20002a0f  macTxBe                                                          
20002a10  macTxGpInterframeDelay                                           
20002a11  macTxType                                                        
20002a12  macUnitBackoffPeriod                                             
20002a13  nvsCC26XXObjects                                                 
20002a14  rxFhRsl                                                          
20002a15  rxPromiscuousMode                                                
20002a16  rxSeqNum                                                         
20002a17  txAckReq                                                         
20002a18  txSeqn                                                           
20002b00  PowerCC26X2_module                                               
20002c78  gpioPinConfigs                                                   
20002d38  macMRFSKGenPhyTable                                              
20002dd8  savedCllcState                                                   
20002dd9  permitJoining                                                    
20002de0  Csf_events                                                       
20002dec  Csf_keys                                                         
20002e04  csfMainMenu                                                      
20002e44  fhObject                                                         
20002f80  BIOS_Module_state                                                
20002fac  ti_sysbios_family_arm_v8m_Hwi_Module_state                       
20002fe8  ti_sysbios_runtime_Startup_done                                  
20002feb  ti_sysbios_knl_Idle_initDone                                     
20002fec  ti_sysbios_runtime_Memory_defaultHeapInstance                    
20003004  ti_sysbios_runtime_Error_ignore                                  
20003010  ti_sysbios_family_arm_v8m_cc26x4_Timer_Module_state              
2000301c  ti_sysbios_runtime_System_Module_state                           
20003028  ti_sysbios_knl_Swi_Module_state                                  
20003050  ti_sysbios_knl_Clock_Module_state                                
2000311c  txPowerTable_868_pa13                                            
20003186  Collector_events                                                 
20003198  Collector_macCallbacks                                           
200031e0  Main_user1Cfg                                                    
2000329a  Cllc_events                                                      
2000329c  Cllc_devShortAddr                                                
200032ec  appSubMenu                                                       
20003420  commissionSubMenu                                                
20003460  configureSubMenu                                                 
200034a0  ti_sysbios_knl_Task_Module_state                                 
20003518  cuiMultiMenu                                                     
20003549  macBeaconPayload                                                 
200035b0  pOverrides_2gfsk50kbps154g                                       
200035dc  macActionSet                                                     
20003600  lastRatChanA                                                     
20003601  lastRatChanB                                                     
20003602  macRxCmdActive                                                   
20003603  macFsCmdActive                                                   
20003604  macRxPreempted                                                   
20003605  numRfCmd                                                         
20003606  numRxCmd                                                         
20003607  numRxPostCmd                                                     
20003608  ieeeCoexEnabled                                                  
2000360c  lastPostCmd                                                      
20003610  macSfdDetectCback                                                
20003620  macBeaconMargin                                                  
2000366d  ApiMac_gpOffsetToms                                              
2000366e  ApiMac_mtDataReqTxOptionGp                                       
20003684  macStateTbl                                                      
20003698  macUser0Cfg                                                      
200036c0  pMacCbackQueryRetransmit                                         
200036c4  pMacCbackCheckPending                                            
200036cc  RF_cmdNop                                                        
200036dc  RF_cmdNopFg                                                      
200036ec  RF_prop_2gfsk50kbps154g                                          
200036fc  _hposcCoeffs                                                     
2000370c  macCfg                                                           
20003740  taskCnt                                                          
20003744  heapmgrMemFreeTotal                                              
20003748  heapmgrMemFreeError                                              
20003768  RF_handle                                                        
2000376c  macRadioAckIeeeFrame                                             
2000376f  macRadioAckFrame                                                 
20003774  macCsmaRtcTimerId                                                
20003784  RFCC26XX_schedulerPolicy                                         
2000378c  ti_sysbios_gates_GateMutexPri_Module_state                       
20003794  ti_sysbios_heaps_HeapCallback_Module_state                       
2000379c  ti_sysbios_knl_Semaphore_Module_state                            
200037b0  __aeabi_errno                                                    
200037b4  _lock                                                            
200037b8  _unlock                                                          
200037bc  appEvents                                                        
200037c0  macDataBeaconRequeue                                             
200037c4  macDataCheckSched                                                
200037c8  macDataCheckTxTime                                               
200037cc  macDataRequeueIndirect                                           
200037d0  macDataRxBeaconCritical                                          
200037d4  macDataSetSched                                                  
200037d8  macDataTxBeaconComplete                                          
200037dc  macDataTxIndirect                                                
200037e8  macTimerNewRollover                                              
200037ec  macTimerRollover                                                 
200037f0  minTxOffTime                                                     
200037f8  pMacDataTx                                                       
200037fc  pMacEnhancedAck                                                  
20003804  macSrcMatchIsAckAllPending                                       
20003805  macSrcMatchDefaultPendOn                                         
20003808  assoc_resp_no_ack_cnt                                            
2000380b  Main_assertReason                                                
2000380d  bInSwi                                                           
2000380f  csmPhy                                                           
20003810  customMinTxOffEnabled                                            
20003811  dcEnabled                                                        
20003817  macRadioYielded                                                  
20003818  macSrcMatchIsEnabled                                             
20003819  macSrcMatchManualAddressTracking                                 
2000381a  macTxCmdActive                                                   
2000381b  macTxSlottedDelay                                                
2000381c  macTxSlottedDelayFactor                                          
2000381e  numTx                                                            
2000381f  reqAccessAlloc                                                   
20003a00  ti_sysbios_family_arm_v8m_Hwi_ramVectors                         
20003afc  heapStart                                                        
2003fc00  __stack                                                          
2003fc00  heapEnd                                                          
20040000  __STACK_END                                                      
50000000  __ccfg                                                           
ffffffff  __TI_pprof_out_hndl                                              
ffffffff  __TI_prof_data_size                                              
ffffffff  __TI_prof_data_start                                             
ffffffff  __binit__                                                        
ffffffff  __start___llvm_prf_bits                                          
ffffffff  __start___llvm_prf_cnts                                          
ffffffff  __stop___llvm_prf_bits                                           
ffffffff  __stop___llvm_prf_cnts                                           
ffffffff  binit                                                            
UNDEFED   ITM_flush                                                        
UNDEFED   ITM_restore                                                      
UNDEFED   PWM_config                                                       
UNDEFED   PWM_count                                                        
UNDEFED   __mpu_init                                                       

[1330 symbols]
