******************************************************************************
            TI ARM Clang Linker PC v3.2.2                      
******************************************************************************
>> Linked Wed Jul 31 22:01:17 2024

OUTPUT FILE NAME:   <collector_HUB.out>
ENTRY POINT SYMBOL: "ResetISR"  address: 0001edf1


MEMORY CONFIGURATION

         name            origin    length      used     unused   attr    fill
----------------------  --------  ---------  --------  --------  ----  --------
  FLASH                 00000000   00100000  00030b6e  000cf492  R  X
  SRAM                  20000000   00040000  0000be2d  000341d3  RW X
  CCFG                  50000000   00000800  0000007c  00000784  R  X


SEGMENT ALLOCATION MAP

run origin  load origin   length   init length attrs members
----------  ----------- ---------- ----------- ----- -------
00000000    00000000    0001ee66   0001ee66    r-x
  00000000    00000000    0000003c   0000003c    r-- .resetVecs
  00000040    00000040    0001ee26   0001ee26    r-x .text
0001ee68    0001ee68    00000008   00000008    rw-
  0001ee68    0001ee68    00000008   00000008    rw- .args
0001ee70    0001ee70    00001d04   00001d04    r--
  0001ee70    0001ee70    00001970   00001970    r-- .rodata
  000207e0    000207e0    00000394   00000394    r-- .cinit
0004e000    0004e000    00008000   00000000    rw-
  0004e000    0004e000    00008000   00000000    rw- .TI.bound:flashBuf0
000e1000    000e1000    00008000   00000000    rw-
  000e1000    000e1000    00008000   00000000    rw- .TI.bound:flashBuf1
20000000    20000000    00000450   00000000    rw-
  20000000    20000000    00000450   00000000    rw- .bss.1
20000450    20000450    00000020   00000000    rw-
  20000450    20000450    00000010   00000000    rw- .TI.bound:dmaUart1RxControlTableEntry
  20000460    20000460    00000010   00000000    rw- .TI.bound:dmaUart1TxControlTableEntry
20000470    20000470    00005ac1   00000000    rw-
  20000470    20000470    00005ac1   00000000    rw- .bss.2
20006000    20006000    00000cd5   00000000    rw-
  20006000    20006000    00000cd5   00000000    rw- .data
20006d00    20006d00    000001fc   00000000    rw-
  20006d00    20006d00    000001fc   00000000    rw- .ramVecs
2003b000    2003b000    00005000   00000000    rw-
  2003b000    2003b000    00005000   00000000    rw- .stack
50000000    50000000    0000007c   0000007c    r--
  50000000    50000000    0000007c   0000007c    r-- .ccfg


SECTION ALLOCATION MAP

 output                                  attributes/
section   page    origin      length       input sections
--------  ----  ----------  ----------   ----------------
.resetVecs 
*          0    00000000    0000003c     
                  00000000    0000003c     ti_sysbios_config.o (.resetVecs)

.rodata    0    0001ee70    00001970     
                  0001ee70    00000628     rf_multiMode_cc13x4.a : rf_patch_cpe_multi_protocol.c.cc13x4.ticlang.o (.rodata.patchImageMultiProtocol)
                  0001f498    00000008                           : RFCC26X2_multiMode.c.cc13x4.ticlang.o (.rodata..L__const.RF_hwiCpe0Active.activeCmd)
                  0001f4a0    00000101     libc.a : aeabi_ctype.S.obj (.rodata:__aeabi_ctype_table_)
                  0001f5a1    00000100     crc.o (.rodata.crc_table)
                  0001f6a1    000000f8     mac_cfg.o (.rodata.macPibTbl)
                  0001f799    0000008a     ti_sysbios_config.o (.rodata.ti_sysbios_family_arm_v8m_Hwi_Instance_init.err.1)
                  0001f823    00000089     ti_sysbios_config.o (.rodata.ti_sysbios_runtime_Memory_alloc.err)
                  0001f8ac    00000088     mac_cfg.o (.rodata.macPibDefaults)
                  0001f934    00000087     ti_sysbios_config.o (.rodata.ti_sysbios_family_arm_v8m_Hwi_Instance_init.err)
                  0001f9bb    00000072     maclib_secure_cc13x4_tirtos7.a : hmac_global.c.o (.rodata.macIdleSt)
                  0001fa2d    00000072                                    : hmac_global.c.o (.rodata.macScanningSt)
                  0001fa9f    00000072                                    : hmac_global.c.o (.rodata.macStartingSt)
                  0001fb11    00000003     embedded_cli.o (.rodata.str1.107731104096476205821)
                  0001fb14    0000006c     mac_user_config.o (.rodata.macRfDriverTable)
                  0001fb80    00000068     drivers_cc13x4.a : PowerCC26X2.c.obj (.rodata.resourceDB)
                  0001fbe8    00000058     mac_cfg.o (.rodata.macSecurityPibTbl)
                  0001fc40    00000058     ti_drivers_config.o (.rodata.uart2CC26X2HWAttrs)
                  0001fc98    00000050     mac_cfg.o (.rodata.macMRFSKStdPhyTable)
                  0001fce8    00000046     console.o (.rodata.str1.19702299986539912601)
                  0001fd2e    00000045     console.o (.rodata.str1.18229403853647403271)
                  0001fd73    00000043     console.o (.rodata.str1.124339099123255022361)
                  0001fdb6    00000002     cllc.o (.rodata.keyUsageList)
                  0001fdb8    00000040     mac_user_config.o (.rodata.macCryptoDriverTable)
                  0001fdf8    00000040     maclib_secure_cc13x4_tirtos7.a : hmac_global.c.o (.rodata.macTimerRolloverValue)
                  0001fe38    00000040     console.o (.rodata.str1.177911780714010508361)
                  0001fe78    0000003e     console.o (.rodata.str1.154537634631603354661)
                  0001feb6    00000002     drivers_cc13x4.a : UART2CC26X2.c.obj (.rodata.stopBits)
                  0001feb8    00000038     maclib_secure_cc13x4_tirtos7.a : hmac_global.c.o (.rodata.macCmdIncludeFHIe)
                  0001fef0    00000031     embedded_cli.o (.rodata.str1.61364102392489726071)
                  0001ff21    00000003     embedded_cli.o (.rodata.str1.12856399847108679661)
                  0001ff24    00000030     ti_radio_config.o (.rodata.RF_cmdPropRxAdv_2gfsk200kbps154g)
                  0001ff54    0000002f     bindings.o (.rodata.str1.54453938773150735381)
                  0001ff83    0000002e     embedded_cli.o (.rodata.str1.173825616155993455851)
                  0001ffb1    0000002b     console.o (.rodata.str1.117202593779801968171)
                  0001ffdc    0000002a     console.o (.rodata.str1.118433779020092289561)
                  00020006    00000002     embedded_cli.o (.rodata.str1.143641102918279536761)
                  00020008    00000028     drivers_cc13x4.a : NVSCC26XX.c.obj (.rodata.NVSCC26XX_fxnTable)
                  00020030    00000028     ti_radio_config.o (.rodata.RF_cmdPropRadioDivSetup_2gfsk200kbps154g)
                  00020058    00000028     maclib_secure_cc13x4_tirtos7.a : mac_radio.c.o (.rodata.activityObject)
                  00020080    00000026     console.o (.rodata.str1.82911753974822136681)
                  000200a6    00000002     ti_sysbios_config.o (.rodata.str1.71102027280925491351)
                  000200a8    00000024     drivers_cc13x4.a : UART2.c.obj (.rodata.UART2_defaultParams)
                  000200cc    00000024     ti_sysbios_config.o (.rodata.ti_sysbios_knl_Task_Params_default)
                  000200f0    00000023     console.o (.rodata.str1.112170045911579039031)
                  00020113    00000023     bindings.o (.rodata.str1.42728214177340263861)
                  00020136    00000002     console.o (.rodata.str1.74025154271156921711)
                  00020138    00000020     mac_user_config.o (.rodata..L__const.rfSelect.RfCfg)
                  00020158    00000020     ti_radio_config.o (.rodata.RF_cmdPropTxAdv_2gfsk200kbps154g)
                  00020178    00000020     rf_multiMode_cc13x4.a : RFCC26X2_multiMode.c.cc13x4.ticlang.o (.rodata.cst32)
                  00020198    00000020     cllc.o (.rodata.keyDeviceList)
                  000201b8    0000001e     console.o (.rodata.str1.140633853591095507641)
                  000201d6    0000001e     bindings.o (.rodata.str1.161195190691457351541)
                  000201f4    0000001d     ti_sysbios_config.o (.rodata.str1.114093530142707899381)
                  00020211    0000001d     console.o (.rodata.str1.148731930830276395691)
                  0002022e    00000001     ti_drivers_config.o (.rodata.Button_count)
                  0002022f    00000001     ti_drivers_config.o (.rodata.GPIO_pinLowerBound)
                  00020230    0000001c     ti_radio_config.o (.rodata.RF_cmdPropCs_2gfsk200kbps154g)
                  0002024c    0000001c     driverlib.lib : prcm.c.obj (.rodata.g_pui32DCGCRegs)
                  00020268    0000001c                   : prcm.c.obj (.rodata.g_pui32RCGCRegs)
                  00020284    0000001c                   : prcm.c.obj (.rodata.g_pui32SCGCRegs)
                  000202a0    0000001c     console.o (.rodata.str1.135340693881112255621)
                  000202bc    0000001c     ti_sysbios_config.o (.rodata.str1.54136785629011067091)
                  000202d8    0000001c     ti_sysbios_config.o (.rodata.ti_sysbios_family_arm_v8m_cc26x4_Timer_Params_default)
                  000202f4    0000001c     ti_sysbios_config.o (.rodata.ti_sysbios_knl_Mailbox_Params_default)
                  00020310    0000001b     console.o (.rodata.str1.48602567378597882131)
                  0002032b    0000001a     console.o (.rodata.str1.109483738412126489071)
                  00020345    0000001a     console.o (.rodata.str1.98090407489521728901)
                  0002035f    00000001     ti_drivers_config.o (.rodata.GPIO_pinUpperBound)
                  00020360    00000018     ti_drivers_config.o (.rodata.NVS_config)
                  00020378    00000018     drivers_cc13x4.a : PWM.c.obj (.rodata.PWM_defaultParams)
                  00020390    00000018     ti_radio_config.o (.rodata.RF_cmdFs_2gfsk200kbps154g)
                  000203a8    00000018     maclib_secure_cc13x4_tirtos7.a : hmac_global.c.o (.rodata.macSendMsgBufSize)
                  000203c0    00000018     ti_sysbios_config.o (.rodata.ti_sysbios_family_arm_v8m_Hwi_Params_default)
                  000203d8    00000017     embedded_cli.o (.rodata.str1.60117792541136907051)
                  000203ef    00000016     console.o (.rodata.str1.157482613126777534291)
                  00020405    00000016     embedded_cli.o (.rodata.str1.56794714276310652161)
                  0002041b    00000016     control_task.o (.rodata.str1.63111264024442772211)
                  00020431    00000015     console.o (.rodata.str1.109861027652257433771)
                  00020446    00000015     console.o (.rodata.str1.2141151539762549531)
                  0002045b    00000001     ti_drivers_config.o (.rodata.LED_count)
                  0002045c    00000015     console.o (.rodata.str1.37004117601215091994)
                  00020471    00000001     ti_drivers_config.o (.rodata.NVS_count)
                  00020472    00000001     ti_drivers_config.o (.rodata.UART2_count)
                  00020473    00000001     ti_drivers_config.o (.rodata.aesccmCC26X4HWAttrs)
                  00020474    00000014     drivers_cc13x4.a : Button.c.obj (.rodata.Button_defaultParams)
                  00020488    00000014     ti_drivers_config.o (.rodata.PowerCC26X2_config)
                  0002049c    00000014     drivers_cc13x4.a : TRNG.c.obj (.rodata.TRNG_defaultParams)
                  000204b0    00000014     bindings.o (.rodata.str1.157098827610153003181)
                  000204c4    00000013     macTask.o (.rodata.msacbackSizeTable)
                  000204d7    00000013     bindings.o (.rodata.str1.10778172599238569251)
                  000204ea    00000013     embedded_cli.o (.rodata.str1.17592202579311432871)
                  000204fd    00000013     console.o (.rodata.str1.21839946123909661931)
                  00020510    00000013     console.o (.rodata.str1.56170280465575791341)
                  00020523    00000013     control_task.o (.rodata.str1.63830522294738161711)
                  00020536    00000012     console.o (.rodata.str1.58651297034802050711)
                  00020548    00000011     ti_sysbios_config.o (.rodata.str1.111528116657238352481)
                  00020559    00000011     collector.o (.rodata.str1.13089487403221750681)
                  0002056a    00000011     libc.a : _printfi.c.obj (.rodata.str1.44690500295887128011)
                  0002057b    00000011     console.o (.rodata.str1.68093814076132445351)
                  0002058c    00000010     drivers_cc13x4.a : AESCCM.c.obj (.rodata.AESCCM_defaultParams)
                  0002059c    00000010     ti_drivers_config.o (.rodata.ButtonHWAttrs)
                  000205ac    00000010     ti_drivers_config.o (.rodata.Button_config)
                  000205bc    00000010     ti_drivers_config.o (.rodata.GPIO_config)
                  000205cc    00000010     ti_drivers_config.o (.rodata.LED_config)
                  000205dc    00000010     maclib_secure_cc13x4_tirtos7.a : hmac_global.c.o (.rodata.macIEEEPhyTable)
                  000205ec    00000010     ti_drivers_config.o (.rodata.nvsCC26XXHWAttrs)
                  000205fc    0000000f     ti_sysbios_config.o (.rodata.str1.123815885180704396101)
                  0002060b    0000000e     maclib_secure_cc13x4_tirtos7.a : hmac_global.c.o (.rodata.macCmdBufSize)
                  00020619    0000000e                                    : hmac_global.c.o (.rodata.macTxFrameFailed)
                  00020627    0000000e                                    : hmac_global.c.o (.rodata.macTxFrameSuccess)
                  00020635    0000000e     bindings.o (.rodata.str1.78406596750728922571)
                  00020643    0000000d     bindings.o (.rodata.str1.109904896690069623821)
                  00020650    0000000d     bindings.o (.rodata.str1.144095348950462520971)
                  0002065d    0000000d     bindings.o (.rodata.str1.32070044298335701421)
                  0002066a    0000000d     console.o (.rodata.str1.84806106596227001311)
                  00020677    00000001     embedded_cli.o (.rodata.str1.82444801724869462321)
                  00020678    0000000c     drivers_cc13x4.a : Random.c.obj (.rodata..L__const.Random_seedAutomatic.hwAttrs)
                  00020684    0000000c     utc_clock.o (.rodata.EPOCH_convertTime.daysInMonth)
                  00020690    0000000c     ti_drivers_config.o (.rodata.RFCC26XX_hwAttrs)
                  0002069c    0000000c     ti_sysbios_config.o (.rodata.defAttrs)
                  000206a8    0000000c     maclib_secure_cc13x4_tirtos7.a : hmac_global.c.o (.rodata.macCbackEventTbl)
                  000206b4    0000000c                                    : hmac_global.c.o (.rodata.macSendMsgDataSize)
                  000206c0    0000000c     control_task.o (.rodata.str1.20335272819579692351)
                  000206cc    0000000a     drivers_cc13x4.a : Button.c.obj (.rodata..Lswitch.table.Button_gpioCallbackFxn)
                  000206d6    00000002     --HOLE-- [fill = 0]
                  000206d8    0000000a     cllc.o (.rodata.keyIdLookupList)
                  000206e2    0000000a     console.o (.rodata.str1.157847336827218404471)
                  000206ec    0000000a     bindings.o (.rodata.str1.99982223497158117831)
                  000206f6    00000009     maclib_secure_cc13x4_tirtos7.a : hmac_global.c.o (.rodata.macCmdLen)
                  000206ff    00000009     console.o (.rodata.str1.150062874063377985621)
                  00020708    00000009     console.o (.rodata.str1.31906269165783145471)
                  00020711    00000009     console.o (.rodata.str1.79149487584464972151)
                  0002071a    00000002     --HOLE-- [fill = 0]
                  0002071c    00000008     ti_drivers_config.o (.rodata.AESCCM_config)
                  00020724    00000008     cllc.o (.rodata.Cllc_keySource)
                  0002072c    00000008     drivers_cc13x4.a : LED.c.obj (.rodata.LED_defaultParams)
                  00020734    00000008     ti_drivers_config.o (.rodata.UART2_config)
                  0002073c    00000008     ti_drivers_config.o (.rodata.UDMACC26XX_config)
                  00020744    00000008     driverlib.lib : aux_sysif.c.obj (.rodata.cst4)
                  0002074c    00000008     maclib_secure_cc13x4_tirtos7.a : mac_rx.c.o (.rodata.cst4)
                  00020754    00000008     main.o (.rodata.cst8)
                  0002075c    00000008     maclib_secure_cc13x4_tirtos7.a : hmac_global.c.o (.rodata.macAuthTagLen)
                  00020764    00000008     bindings.o (.rodata.str1.174487428670864767921)
                  0002076c    00000008     console.o (.rodata.str1.18789277889791793101)
                  00020774    00000008     ti_sysbios_config.o (.rodata.ti_sysbios_knl_Idle_funcList)
                  0002077c    00000008     ti_drivers_config.o (.rodata.udmaCC26XXHWAttrs)
                  00020784    00000007     ti_sysbios_config.o (.rodata.str1.174580395633770214331)
                  0002078b    00000006     console.o (.rodata.str1.152013950760718497991)
                  00020791    00000006     bindings.o (.rodata.str1.8786097754242680851)
                  00020797    00000005     drivers_cc13x4.a : UART2CC26X2.c.obj (.rodata.parityType)
                  0002079c    00000005                      : UART2CC26X2.c.obj (.rodata.rxFifoThreshold)
                  000207a1    00000005     cllc.o (.rodata.securityLevelEntry)
                  000207a6    00000005     embedded_cli.o (.rodata.str1.174756512096424909541)
                  000207ab    00000005     bindings.o (.rodata.str1.22730360767133370921)
                  000207b0    00000005     bindings.o (.rodata.str1.28206725782978356331)
                  000207b5    00000005     drivers_cc13x4.a : UART2CC26X2.c.obj (.rodata.txFifoThreshold)
                  000207ba    00000004     ti_drivers_config.o (.rodata.LEDHWAttrs)
                  000207be    00000002     --HOLE-- [fill = 0]
                  000207c0    00000004     drivers_cc13x4.a : NVS.c.obj (.rodata.NVS_defaultParams)
                  000207c4    00000004     ti_sysbios_config.o (.rodata.TimestampP_nativeFormat32)
                  000207c8    00000004     ti_sysbios_config.o (.rodata.TimestampP_nativeFormat64)
                  000207cc    00000004     drivers_cc13x4.a : UART2CC26X2.c.obj (.rodata.cst4)
                  000207d0    00000004     maclib_secure_cc13x4_tirtos7.a : hmac_global.c.o (.rodata.macKeySourceLen)
                  000207d4    00000004     embedded_cli.o (.rodata.str1.92385517120831250771)
                  000207d8    00000004     ti_sysbios_config.o (.rodata.ti_sysbios_family_arm_v8m_Hwi_swiTaskKeyAddress)
                  000207dc    00000004     ti_sysbios_config.o (.rodata.ti_sysbios_knl_Clock_tickPeriod)

.cinit     0    000207e0    00000394     
                  000207e0    0000032f     (.cinit..data.load) [load image, compression = lzss]
                  00020b0f    00000001     --HOLE-- [fill = 0]
                  00020b10    0000000c     (__TI_handler_table)
                  00020b1c    00000008     (.cinit..TI.bound:dmaUart1RxControlTableEntry.load) [load image, compression = zero_init]
                  00020b24    00000008     (.cinit..TI.bound:dmaUart1TxControlTableEntry.load) [load image, compression = zero_init]
                  00020b2c    00000008     (.cinit..bss.1.load) [load image, compression = zero_init]
                  00020b34    00000008     (.cinit..bss.2.load) [load image, compression = zero_init]
                  00020b3c    00000008     (.cinit..ramVecs.load) [load image, compression = zero_init]
                  00020b44    00000030     (__TI_cinit_table)

.init_array 
*          0    00000000    00000000     UNINITIALIZED

.TI.bound:flashBuf0 
*          0    0004e000    00008000     UNINITIALIZED
                  0004e000    00008000     ti_drivers_config.o (.TI.bound:flashBuf0)

.TI.bound:flashBuf1 
*          0    000e1000    00008000     UNINITIALIZED
                  000e1000    00008000     ti_drivers_config.o (.TI.bound:flashBuf1)

.data      0    20006000    00000cd5     UNINITIALIZED
                  20006000    00000178     drivers_cc13x4.a : PowerCC26X2.c.obj (.data.PowerCC26X2_module)
                  20006178    000000f0     libc.a : defs.c.obj (.data._ftable)
                  20006268    000000c0     ti_drivers_config.o (.data.gpioPinConfigs)
                  20006328    000000af     ti_radio_config.o (.data.txPowerTable_868_pa13)
                  200063d7    00000001     api_mac.o (.data.ApiMac_gpOffsetToms)
                  200063d8    000000a0     mac_cfg.o (.data.macMRFSKGenPhyTable)
                  20006478    00000078     libsysbm.a : host_device.c.obj (.data._device)
                  200064f0    0000006c     maclib_secure_cc13x4_tirtos7.a : hmac_global.c.o (.data.fhObject)
                  2000655c    00000068     rf_multiMode_cc13x4.a : RFCC26X2_multiMode.c.cc13x4.ticlang.o (.data..L_MergedGlobals.1)
                  200065c4    00000068     ti_sysbios_config.o (.data.ti_sysbios_knl_Clock_Module_state)
                  2000662c    00000064     rf_multiMode_cc13x4.a : RFCC26X2_multiMode.c.cc13x4.ticlang.o (.data..L_MergedGlobals.3)
                  20006690    0000005c     main.o (.data.Main_user1Cfg)
                  200066ec    00000058     rf_multiMode_cc13x4.a : RFCC26X2_multiMode.c.cc13x4.ticlang.o (.data..L_MergedGlobals.2)
                  20006744    00000050     libsysbm.a : host_device.c.obj (.data._stream)
                  20006794    00000048     collector.o (.data.Collector_macCallbacks)
                  200067dc    00000048     cllc.o (.data.macCallbacksCopy)
                  20006824    0000003c     ti_sysbios_config.o (.data.ti_sysbios_family_arm_v8m_Hwi_Module_state)
                  20006860    0000003c     ti_sysbios_config.o (.data.ti_sysbios_knl_Task_Module_state)
                  2000689c    00000038     drivers_cc13x4.a : TRNGCC26XX.c.obj (.data..L_MergedGlobals.1)
                  200068d4    00000034     maclib_secure_cc13x4_tirtos7.a : hmac_global.c.o (.data.macBeaconPayload)
                  20006908    00000030     drivers_cc13x4.a : TRNGCC26XX.c.obj (.data..L_MergedGlobals)
                  20006938    0000002c     ti_sysbios_config.o (.data.BIOS_Module_state)
                  20006964    0000002c     cllc.o (.data.keyTable)
                  20006990    0000002c     ti_radio_config.o (.data.pOverrides_2gfsk200kbps154g)
                  200069bc    00000028     ti_sysbios_config.o (.data.ti_sysbios_knl_Swi_Module_state)
                  200069e4    00000024     maclib_secure_cc13x4_tirtos7.a : hmac_global.c.o (.data.macActionSet)
                  20006a08    00000020                                    : mac.c.o (.data..L_MergedGlobals)
                  20006a28    00000020     mac_cfg.o (.data.macBeaconMargin)
                  20006a48    00000018     maclib_secure_cc13x4_tirtos7.a : mac_duty_cycle.c.o (.data..L_MergedGlobals)
                  20006a60    00000015                                    : mac_rx.c.o (.data..L_MergedGlobals)
                  20006a75    00000003                                    : mac_tx.c.o (.data..L_MergedGlobals.1)
                  20006a78    00000014     ti_sysbios_config.o (.data.defaultPthreadAttrs)
                  20006a8c    00000014     maclib_secure_cc13x4_tirtos7.a : hmac_global.c.o (.data.macStateTbl)
                  20006aa0    00000014     main.o (.data.macUser0Cfg)
                  20006ab4    00000011     cllc.o (.data.chanMask)
                  20006ac5    00000002     maclib_secure_cc13x4_tirtos7.a : mac_autopend.c.o (.data..L_MergedGlobals)
                  20006ac7    00000001     api_mac.o (.data.ApiMac_mtDataReqTxOptionGp)
                  20006ac8    00000010     driverlib.lib : osc.c.obj (.data..L_MergedGlobals)
                  20006ad8    00000010     mac_settings.o (.data.RF_cmdNop)
                  20006ae8    00000010     mac_settings.o (.data.RF_cmdNopFg)
                  20006af8    00000010     ti_radio_config.o (.data.RF_prop_2gfsk200kbps154g)
                  20006b08    00000010     driverlib.lib : osc.c.obj (.data._hposcCoeffs)
                  20006b18    00000010     mac_cfg.o (.data.macCfg)
                  20006b28    0000000c     maclib_osal_tirtos7_cc13x4_26x4.a : osal_port.c.o (.data..L_MergedGlobals.1)
                  20006b34    0000000c     maclib_secure_cc13x4_tirtos7.a : mac.c.o (.data..L_MergedGlobals.1)
                  20006b40    0000000c     drivers_cc13x4.a : NVSCC26XX.c.obj (.data..L_MergedGlobals)
                  20006b4c    0000000c     maclib_osal_tirtos7_cc13x4_26x4.a : osal_port.c.o (.data..L_MergedGlobals)
                  20006b58    0000000c     collector.o (.data.cllcCallbacks)
                  20006b64    0000000c     ti_sysbios_config.o (.data.ti_sysbios_family_arm_v8m_cc26x4_Timer_Module_state)
                  20006b70    0000000c     ti_sysbios_config.o (.data.ti_sysbios_runtime_Error_ignore)
                  20006b7c    0000000c     ti_sysbios_config.o (.data.ti_sysbios_runtime_System_Module_state)
                  20006b88    00000008     maclib_osal_tirtos7_cc13x4_26x4.a : osal_port_timers.c.o (.data..L_MergedGlobals.1)
                  20006b90    00000008     maclib_secure_cc13x4_tirtos7.a : mac_radio.c.o (.data..L_MergedGlobals.1)
                  20006b98    00000008     libc.a : exit.c.obj (.data..L_MergedGlobals)
                  20006ba0    00000008     maclib_osal_tirtos7_cc13x4_26x4.a : osal_port_timers.c.o (.data..L_MergedGlobals)
                  20006ba8    00000008     maclib_secure_cc13x4_tirtos7.a : mac_radio.c.o (.data..L_MergedGlobals)
                  20006bb0    00000008                                    : mac_radio_tx.c.o (.data..L_MergedGlobals)
                  20006bb8    00000008                                    : mac_tx.c.o (.data..L_MergedGlobals)
                  20006bc0    00000008     rf_multiMode_cc13x4.a : RFCC26X2_multiMode.c.cc13x4.ticlang.o (.data..L_MergedGlobals)
                  20006bc8    00000008                           : RFCC26X2_multiMode.c.cc13x4.ticlang.o (.data.RFCC26XX_schedulerPolicy)
                  20006bd0    00000008     ti_sysbios_config.o (.data.ti_sysbios_gates_GateMutexPri_Module_state)
                  20006bd8    00000008     ti_sysbios_config.o (.data.ti_sysbios_heaps_HeapCallback_Module_state)
                  20006be0    00000008     ti_sysbios_config.o (.data.ti_sysbios_knl_Mailbox_Module_state)
                  20006be8    00000008     ti_sysbios_config.o (.data.ti_sysbios_knl_Semaphore_Module_state)
                  20006bf0    00000004     maclib_secure_cc13x4_tirtos7.a : mac_hl_patch.c.o (.data..L_MergedGlobals)
                  20006bf4    00000004     csf.o (.data.Csf_keys)
                  20006bf8    00000004     drivers_cc13x4.a : PowerCC26X2.c.obj (.data.PowerCC26X2_rtcSubSecInc)
                  20006bfc    00000004     rf_multiMode_cc13x4.a : RFCC26X2_multiMode.c.cc13x4.ticlang.o (.data.RF_fsmActiveState.lfClockSourceLast)
                  20006c00    00000004     utc_clock.o (.data.UTC_clockUpdate.timeMSec)
                  20006c04    00000004     utc_clock.o (.data.UTC_timeSeconds)
                  20006c08    00000004     utc_clock.o (.data.UTC_timeUpdateHandler.prevClockTicks)
                  20006c0c    00000004     libc.a : defs.c.obj (.data.__TI_ft_end)
                  20006c10    00000004            : aeabi_portable.c.obj (.data.__aeabi_errno)
                  20006c14    00000004            : _lock.c.obj (.data._lock)
                  20006c18    00000004            : _lock.c.obj (.data._unlock)
                  20006c1c    00000004     api_mac.o (.data.appEvents)
                  20006c20    00000004     control_task.o (.data.control_task_DevInfo_mail_handle)
                  20006c24    00000004     control_task.o (.data.control_task_NotiInfo_handle)
                  20006c28    00000004     control_task.o (.data.control_task_joinedDev_mail_handle)
                  20006c2c    00000004     bindings.o (.data.gmt)
                  20006c30    00000004     csf.o (.data.lastSavedCoordinatorFrameCounter)
                  20006c34    00000004     maclib_secure_cc13x4_tirtos7.a : hmac_global.c.o (.data.macDataBeaconRequeue)
                  20006c38    00000004                                    : hmac_global.c.o (.data.macDataCheckSched)
                  20006c3c    00000004                                    : hmac_global.c.o (.data.macDataCheckTxTime)
                  20006c40    00000004                                    : hmac_global.c.o (.data.macDataRequeueIndirect)
                  20006c44    00000004                                    : hmac_global.c.o (.data.macDataRxBeaconCritical)
                  20006c48    00000004                                    : hmac_global.c.o (.data.macDataSetSched)
                  20006c4c    00000004                                    : hmac_global.c.o (.data.macDataTxBeaconComplete)
                  20006c50    00000004                                    : hmac_global.c.o (.data.macDataTxIndirect)
                  20006c54    00000004     macTask.o (.data.macEvents)
                  20006c58    00000004     maclib_secure_cc13x4_tirtos7.a : mac_symbol_timer.c.o (.data.macSymbolWakeupClock)
                  20006c5c    00000004     macTask.o (.data.macTaskEvents)
                  20006c60    00000004     maclib_secure_cc13x4_tirtos7.a : hmac_global.c.o (.data.macTimerNewRollover)
                  20006c64    00000004                                    : hmac_global.c.o (.data.macTimerRollover)
                  20006c68    00000004                                    : mac.c.o (.data.minTxOffTime)
                  20006c6c    00000004     cllc.o (.data.pCllcCallbacksCopy)
                  20006c70    00000004     api_mac.o (.data.pMacCallbacks)
                  20006c74    00000004     macTask.o (.data.pMacCbackCheckPending)
                  20006c78    00000004     macTask.o (.data.pMacCbackQueryRetransmit)
                  20006c7c    00000004     maclib_secure_cc13x4_tirtos7.a : hmac_global.c.o (.data.pMacDataTx)
                  20006c80    00000004                                    : mac_radio_tx.c.o (.data.pMacEnhancedAck)
                  20006c84    00000004     csf.o (.data.pNV)
                  20006c88    00000004     cllc.o (.data.pPANDesclist)
                  20006c8c    00000004     maclib_secure_cc13x4_tirtos7.a : mac_mcu.c.o (.data.pRandomSeedCB)
                  20006c90    00000004     ti_sysbios_config.o (.data.terminatedList)
                  20006c94    00000004     ti_sysbios_config.o (.data.ti_sysbios_runtime_Memory_defaultHeapInstance)
                  20006c98    00000002     cllc.o (.data.Cllc_devShortAddr)
                  20006c9a    00000002     cllc.o (.data.Cllc_events)
                  20006c9c    00000002     cllc.o (.data.Cllc_numOfDevices)
                  20006c9e    00000002     collector.o (.data.Collector_events)
                  20006ca0    00000002     csf.o (.data.Csf_events)
                  20006ca2    00000002     utc_clock.o (.data.UTC_timeUpdateHandler.remUsTicks)
                  20006ca4    00000002     maclib_secure_cc13x4_tirtos7.a : mac_hl_patch.c.o (.data.assoc_resp_no_ack_cnt)
                  20006ca6    00000002     cllc.o (.data.coordInfoBlock.1)
                  20006ca8    00000002     cllc.o (.data.coordInfoBlock.2)
                  20006caa    00000002     collector.o (.data.devicePanId)
                  20006cac    00000002     mac_cfg.o (.data.symbol_rate_custom)
                  20006cae    00000001     main.o (.data.Main_assertReason)
                  20006caf    00000001     nvocmp.o (.data.NVOCMP_failF)
                  20006cb0    00000001     maclib_secure_cc13x4_tirtos7.a : lmac_global.c.o (.data.bInSwi)
                  20006cb1    00000001     rf_multiMode_cc13x4.a : rf_patch_cpe_multi_protocol.c.cc13x4.ticlang.o (.data.bMultiProtocolPatchEntered)
                  20006cb2    00000001     macTask.o (.data.checkPending)
                  20006cb3    00000001     collector.o (.data.cllcState)
                  20006cb4    00000001     cllc.o (.data.coordInfoBlock.0)
                  20006cb5    00000001     maclib_secure_cc13x4_tirtos7.a : hmac_global.c.o (.data.csmPhy)
                  20006cb6    00000001     cllc.o (.data.coordInfoBlock.3)
                  20006cb7    00000001     maclib_secure_cc13x4_tirtos7.a : mac.c.o (.data.customMinTxOffEnabled)
                  20006cb8    00000001     cllc.o (.data.coordInfoBlock.4)
                  20006cb9    00000001     maclib_secure_cc13x4_tirtos7.a : mac_duty_cycle.c.o (.data.dcEnabled)
                  20006cba    00000001     collector.o (.data.deviceTxMsduHandle)
                  20006cbb    00000001     collector.o (.data.fhEnabled)
                  20006cbc    00000001     bindings.o (.data.gmt_zone)
                  20006cbd    00000001     drivers_cc13x4.a : GPIOCC26X4.c.obj (.data.initCalled)
                  20006cbe    00000001                      : AESCCMCC26X4.c.obj (.data.isInitialized)
                  20006cbf    00000001                      : CryptoResourceCC26XX.c.obj (.data.isInitialized)
                  20006cc0    00000001                      : NVS.c.obj (.data.isInitialized)
                  20006cc1    00000001                      : PWM.c.obj (.data.isInitialized)
                  20006cc2    00000001     maclib_secure_cc13x4_tirtos7.a : lmac_global.c.o (.data.macRadioYielded)
                  20006cc3    00000001                                    : lmac_global.c.o (.data.macSrcMatchIsEnabled)
                  20006cc4    00000001                                    : mac_autopend.c.o (.data.macSrcMatchManualAddressTracking)
                  20006cc5    00000001                                    : mac.c.o (.data.macTxCmdActive)
                  20006cc6    00000001                                    : lmac_global.c.o (.data.macTxSlottedDelay)
                  20006cc7    00000001                                    : mac_tx.c.o (.data.macTxSlottedDelayFactor)
                  20006cc8    00000001                                    : mac_tx.c.o (.data.npdb)
                  20006cc9    00000001                                    : mac_tx.c.o (.data.numTx)
                  20006cca    00000001     csf.o (.data.permitJoining)
                  20006ccb    00000001     macTask.o (.data.queryRetransmit)
                  20006ccc    00000001     maclib_secure_cc13x4_tirtos7.a : mac.c.o (.data.reqAccessAlloc)
                  20006ccd    00000001     collector.o (.data.restarted)
                  20006cce    00000001     control_task.o (.data.save_par)
                  20006ccf    00000001     csf.o (.data.savedCllcState)
                  20006cd0    00000001     collector.o (.data.sendMsg.map_index)
                  20006cd1    00000001     csf.o (.data.started)
                  20006cd2    00000001     api_mac.o (.data.subAttributeReadId)
                  20006cd3    00000001     ti_sysbios_config.o (.data.ti_sysbios_knl_Idle_initDone)
                  20006cd4    00000001     ti_sysbios_config.o (.data.ti_sysbios_runtime_Startup_done)

.ramVecs   0    20006d00    000001fc     UNINITIALIZED
                  20006d00    000000fc     driverlib.lib : interrupt.c.obj (.ramVecs)
                  20006dfc    00000004     --HOLE--
                  20006e00    000000fc     ti_sysbios_config.o (.ramVecs)

.sysmem    0    20006efc    00000000     UNINITIALIZED

.nonretenvar 
*          0    20006efc    00000000     UNINITIALIZED

.stack     0    2003b000    00005000     UNINITIALIZED
                  2003b000    00000004     sysbios.a : boot_cortex_m.c.obj (.stack)
                  2003b004    00004ffc     --HOLE--

.ccfg      0    50000000    0000007c     
                  50000000    0000007c     ti_devices_config.o (.ccfg)

.text      0    00000040    0001ee26     
                  00000040    00000b0e     nvocmp.o (.text.NVOCMP_compactPage)
                  00000b4e    00000002     ti_sysbios_config.o (.text.BIOS_nullFunc)
                  00000b50    00000840     embedded_cli.o (.text.embeddedCliProcess)
                  00001390    00000810     nvocmp.o (.text.NVOCMP_initNvApi)
                  00001ba0    00000744     maclib_secure_cc13x4_tirtos7.a : mac_rx.c.o (.text.macRxFrameIsr)
                  000022e4    00000664     api_mac.o (.text.ApiMac_processIncoming)
                  00002948    00000604     collector.o (.text.Collector_process)
                  00002f4c    00000594     maclib_secure_cc13x4_tirtos7.a : mac_radio_tx.c.o (.text.macRadioTxGo)
                  000034e0    00000480     rf_multiMode_cc13x4.a : RFCC26X2_multiMode.c.cc13x4.ticlang.o (.text.RF_fsmActiveState)
                  00003960    000003d4     ti_sysbios_config.o (.text.ti_sysbios_runtime_System_doPrint)
                  00003d34    0000038c     embedded_cli.o (.text.onHelp)
                  000040c0    00000358     maclib_secure_cc13x4_tirtos7.a : mac_rx.c.o (.text.rxPayloadIsr)
                  00004418    0000032c     nvocmp.o (.text.NVOCMP_addItem)
                  00004744    0000031c     maclib_secure_cc13x4_tirtos7.a : mac_hl_patch.c.o (.text.macWrapperAddDevice)
                  00004a60    000002f4                                    : mac.c.o (.text.macRxCb)
                  00004d54    000002ec                                    : mac_mgmt.c.o (.text.macBuildHeader)
                  00005040    000002e8                                    : mac_radio_tx.c.o (.text.macRadioCsmaTxCb)
                  00005328    00000018     driverlib.lib : aes.c.obj (.text.AESReadAuthenticationModeIV)
                  00005340    000002dc     libc.a : strcmp_t2.S.obj (.text:strcmp)
                  0000561c    000002c6     cllc.o (.text.Cllc_process)
                  000058e2    00000002     ti_drivers_config.o (.text.Board_initHook)
                  000058e4    000002c6     macTask.o (.text.macTaskFxn)
                  00005baa    00000002     csf.o (.text.Csf_deviceConfigUpdate)
                  00005bac    000002c4     nvocmp.o (.text.NVOCMP_findItem)
                  00005e70    00000270     collector.o (.text.processSensorData)
                  000060e0    00000268     maclib_secure_cc13x4_tirtos7.a : mac_radio.c.o (.text.macRadioInitSubG)
                  00006348    00000268     libc.a : _printfi.c.obj (.text:__TI_printfi_minimal)
                  000065b0    00000254     console.o (.text.setTimeEpoch)
                  00006804    0000024c     rf_multiMode_cc13x4.a : RFCC26X2_multiMode.c.cc13x4.ticlang.o (.text.RF_open)
                  00006a50    0000024c     ti_sysbios_config.o (.text.ti_sysbios_runtime_Startup_exec)
                  00006c9c    0000022e     mac_settings.o (.text.rfSetConfigSubG)
                  00006eca    00000002     csf.o (.text.Csf_deviceDisassocUpdate)
                  00006ecc    00000228     maclib_secure_cc13x4_tirtos7.a : mac_security_pib.c.o (.text.MAC_MlmeSetSecurityReq)
                  000070f4    00000222     ti_sysbios_config.o (.text.ti_sysbios_family_arm_v8m_Hwi_Instance_init)
                  00007316    00000002     csf.o (.text.Csf_deviceNotActiveUpdate)
                  00007318    0000021c     maclib_secure_cc13x4_tirtos7.a : mac_radio_tx.c.o (.text.macRadioTxRequestTxAck)
                  00007534    00000218     cllc.o (.text.Cllc_restoreNetwork)
                  0000774c    00000210     maclib_secure_cc13x4_tirtos7.a : mac.c.o (.text.macSendReceiveCmdSubG)
                  0000795c    00000202     console.o (.text.consoleTask_)
                  00007b5e    00000002     csf.o (.text.Csf_displayError)
                  00007b60    000001fc     drivers_cc13x4.a : AESCCMCC26X4.c.obj (.text.AESCCM_addAADInternal)
                  00007d5c    000001f0                      : UART2CC26X2.c.obj (.text.UART2CC26X2_hwiIntFxn)
                  00007f4c    000001ec     maclib_secure_cc13x4_tirtos7.a : mac_hl_patch.c.o (.text.macTxCompleteCallback)
                  00008138    000001e8     rf_multiMode_cc13x4.a : RFCC26X2_multiMode.c.cc13x4.ticlang.o (.text.RF_scheduleCmd)
                  00008320    000001dc                           : RFCC26X2_multiMode.c.cc13x4.ticlang.o (.text.RF_dispatchNextCmd)
                  000084fc    000001da     collector.o (.text.dataCnfCB)
                  000086d6    000001d8     nvocmp.o (.text.NVOCMP_erase)
                  000088ae    00000002     csf.o (.text.Csf_toggleResponseReceived)
                  000088b0    000001d8     maclib_secure_cc13x4_tirtos7.a : mac_security_pib.c.o (.text.macSecurityPibReset)
                  00008a88    000001d4     drivers_cc13x4.a : UART2.c.obj (.text.UART2_readTimeout)
                  00008c5c    000001d0     maclib_secure_cc13x4_tirtos7.a : mac.c.o (.text.macSendReceiveCmdIeee)
                  00008e2c    000001d0     ti_sysbios_config.o (.text.ti_sysbios_knl_Clock_workFuncDynamic)
                  00008ffc    000001ce     nvocmp.o (.text.NVOCMP_cleanPage)
                  000091ca    00000002     rf_multiMode_cc13x4.a : rfc.c.cc13x4.ticlang.o (.text.NOROM_RFCCpePatchReset)
                  000091cc    000001bc     maclib_secure_cc13x4_tirtos7.a : mac_pib.c.o (.text.MAC_MlmeSetReq)
                  00009388    000001b6     ti_sysbios_config.o (.text.pthread_create)
                  0000953e    00000002     rf_multiMode_cc13x4.a : RFCC26X2_multiMode.c.cc13x4.ticlang.o (.text.RF_defaultCallback)
                  00009540    000001ac     maclib_secure_cc13x4_tirtos7.a : mac_tx.c.o (.text.macTxFrame)
                  000096ec    000001a2     control_task.o (.text.controlTask_)
                  0000988e    00000002     drivers_cc13x4.a : UART2CC26X2.c.obj (.text.UART2CC26X2_eventCallback)
                  00009890    0000019c     embedded_cli.o (.text.onAutocompleteRequest)
                  00009a2c    0000019c     ti_sysbios_config.o (.text.ti_sysbios_family_arm_v8m_cc26x4_Timer_construct)
                  00009bc8    00000194     drivers_cc13x4.a : PowerCC26X2_calibrateRCOSC.c.obj (.text.PowerCC26X2_auxISR)
                  00009d5c    00000194     maclib_secure_cc13x4_tirtos7.a : mac_hl_patch.c.o (.text.macWrapperAddKeyInitFCtr)
                  00009ef0    0000018a     csf.o (.text.Csf_processEvents)
                  0000a07a    00000002     libclang_rt.builtins.a : aeabi_div0.c.obj (.text.__aeabi_ldiv0)
                  0000a07c    00000188     maclib_secure_cc13x4_tirtos7.a : mac_security_pib.c.o (.text.MAC_MlmeGetSecurityReq)
                  0000a204    00000184     drivers_cc13x4.a : UART2CC26X2.c.obj (.text.UART2_open)
                  0000a388    00000184     maclib_secure_cc13x4_tirtos7.a : mac_hl_patch.c.o (.text.macIncomingFrameSecurityMaterialRetrieval)
                  0000a50c    00000180     libc.a : fwrite.c.obj (.text.fwrite)
                  0000a68c    00000178     nvocmp.o (.text.NVOCMP_getDstPage)
                  0000a804    00000174     drivers_cc13x4.a : UART2.c.obj (.text.UART2_writeTimeoutBlocking)
                  0000a978    00000168     maclib_secure_cc13x4_tirtos7.a : mac_mgmt.c.o (.text.macBuildCommonReq)
                  0000aae0    00000160                                    : mac_hl_patch.c.o (.text.MAC_McpsDataReq)
                  0000ac40    00000160                                    : mac_scan.c.o (.text.macApiScanReq)
                  0000ada0    00000160                                    : mac_tx.c.o (.text.txCsmaDelay)
                  0000af00    0000015c     utc_clock.o (.text.EPOCH_convertTime)
                  0000b05c    0000014c     rf_multiMode_cc13x4.a : RFCC26X2_multiMode.c.cc13x4.ticlang.o (.text.RF_radioOpDoneCb)
                  0000b1a8    00000148     drivers_cc13x4.a : PowerCC26X2.c.obj (.text.Power_sleep)
                  0000b2f0    00000148     maclib_secure_cc13x4_tirtos7.a : mac_data.c.o (.text.macDataTxSend)
                  0000b438    00000146     macTask.o (.text.MAC_CbackEvent)
                  0000b57e    00000144     rf_multiMode_cc13x4.a : RFCC26X2_multiMode.c.cc13x4.ticlang.o (.text.RF_updatePaConfiguration)
                  0000b6c2    00000002     libc.a : _lock.c.obj (.text._nop)
                  0000b6c4    00000144     maclib_secure_cc13x4_tirtos7.a : mac_hl_patch.c.o (.text.macIncomingFrameSecurity)
                  0000b808    00000142     embedded_cli.o (.text.embeddedCliNew)
                  0000b94a    00000002     drivers_cc13x4.a : PowerCC26X2.c.obj (.text.emptyClockFunc)
                  0000b94c    00000140     nvocmp.o (.text.NVOCMP_eraseNvApi)
                  0000ba8c    00000140     maclib_secure_cc13x4_tirtos7.a : mac_radio_tx.c.o (.text.macRadioLbtTxCb)
                  0000bbcc    0000013c     rf_multiMode_cc13x4.a : RFCC26X2_multiMode.c.cc13x4.ticlang.o (.text.RF_abortCmd)
                  0000bd08    00000136     csf.o (.text.Csf_deviceUpdate)
                  0000be3e    00000002     drivers_cc13x4.a : CryptoResourceCC26XX.c.obj (.text.errorSpin)
                  0000be40    00000134     rf_multiMode_cc13x4.a : RFCC26X2_multiMode.c.cc13x4.ticlang.o (.text.RF_ratSetupChannel)
                  0000bf74    00000134     maclib_secure_cc13x4_tirtos7.a : mac_mgmt.c.o (.text.macSetDefaultsByPhyID)
                  0000c0a8    00000130     drivers_cc13x4.a : AESCCMCC26X4.c.obj (.text.AESCCM_addDataInternal)
                  0000c1d8    0000012c     rf_multiMode_cc13x4.a : RFCC26X2_multiMode.c.cc13x4.ticlang.o (.text.RF_close)
                  0000c304    0000012c     maclib_secure_cc13x4_tirtos7.a : mac_hl_patch.c.o (.text.macRxBeaconCritical)
                  0000c430    0000012c     ti_sysbios_config.o (.text.ti_sysbios_knl_Semaphore_pend)
                  0000c55c    0000012a     nvocmp.o (.text.NVOCMP_updateItemApi)
                  0000c686    00000002     maclib_secure_cc13x4_tirtos7.a : mac_pwr.c.o (.text.macApiPwrOnReq)
                  0000c688    00000128     drivers_cc13x4.a : Button.c.obj (.text.Button_clockTimeoutHandler)
                  0000c7b0    00000128     maclib_secure_cc13x4_tirtos7.a : mac_data.c.o (.text.macAllocTxBuffer)
                  0000c8d8    00000128                                    : mac_coord.c.o (.text.macBuildBeacon)
                  0000ca00    00000128                                    : mac_hl_patch.c.o (.text.macWrapperDeleteDevice)
                  0000cb28    00000124     rf_multiMode_cc13x4.a : RFCC26X2_multiMode.c.cc13x4.ticlang.o (.text.RF_fsmSetupState)
                  0000cc4c    00000124     drivers_cc13x4.a : TRNGCC26XX.c.obj (.text.TRNGCC26XX_hwiFxn)
                  0000cd70    00000124     maclib_secure_cc13x4_tirtos7.a : mac_radio.c.o (.text.macRadioInitIeee)
                  0000ce94    00000120                                    : mac_duty_cycle.c.o (.text.macDutyCycleInit)
                  0000cfb4    0000011e     collector.o (.text.sendMsg)
                  0000d0d2    00000002     maclib_secure_cc13x4_tirtos7.a : mac_mcu.c.o (.text.macMcuBitReverse)
                  0000d0d4    0000011c     drivers_cc13x4.a : NVSCC26XX.c.obj (.text.NVSCC26XX_write)
                  0000d1f0    0000011c     ti_sysbios_config.o (.text.ti_sysbios_knl_Mailbox_Instance_init)
                  0000d30c    0000011a     nvocmp.o (.text.NVOCMP_readContItemApi)
                  0000d426    00000002     maclib_secure_cc13x4_tirtos7.a : mac_mgmt.c.o (.text.macNoAction)
                  0000d428    00000118     drivers_cc13x4.a : PowerCC26X2.c.obj (.text.Power_init)
                  0000d540    00000118     rf_multiMode_cc13x4.a : RFCC26X2_multiMode.c.cc13x4.ticlang.o (.text.RF_decodeOverridePointers)
                  0000d658    00000118     drivers_cc13x4.a : UART2.c.obj (.text.UART2_writeTimeoutNonblocking)
                  0000d770    00000116     cllc.o (.text.assocIndCb)
                  0000d886    00000002     maclib_secure_cc13x4_tirtos7.a : mac_radio.c.o (.text.macRadioSetRE)
                  0000d888    00000114     driverlib.lib : setup_rom.c.obj (.text.NOROM_SetupAfterColdResetWakeupFromShutDownCfg3)
                  0000d99c    00000114     nvocmp.o (.text.NVOCMP_createItemApi)
                  0000dab0    00000114     maclib_secure_cc13x4_tirtos7.a : mac_tx.c.o (.text.txComplete)
                  0000dbc4    00000110     drivers_cc13x4.a : GPIOCC26X4.c.obj (.text.GPIO_init)
                  0000dcd4    00000110                      : LED.c.obj (.text.LED_open)
                  0000dde4    00000110     maclib_secure_cc13x4_tirtos7.a : mac_ie_build.c.o (.text.macBuildPayloadIes)
                  0000def4    0000010c     driverlib.lib : setup_rom.c.obj (.text.NOROM_SetupAfterColdResetWakeupFromShutDownCfg2)
                  0000e000    0000010c     drivers_cc13x4.a : PowerCC26X2_calibrateRCOSC.c.obj (.text.PowerCC26X2_calibrate)
                  0000e10c    0000010c     ti_sysbios_config.o (.text.ti_sysbios_knl_Task_Instance_finalize)
                  0000e218    0000010a     ti_sysbios_config.o (.text.ti_sysbios_knl_Clock_startI)
                  0000e322    00000002     maclib_secure_cc13x4_tirtos7.a : mac_radio_tx.c.o (.text.macRadioTxCancelTxAck)
                  0000e324    00000108     drivers_cc13x4.a : AESCCMCC26X4.c.obj (.text.AESCCM_getResult)
                  0000e42c    00000108     maclib_secure_cc13x4_tirtos7.a : mac_coord.c.o (.text.macBuildAssociateRsp)
                  0000e534    00000108                                    : mac_hl_patch.c.o (.text.macBuildDataFrame)
                  0000e63c    00000106     csf.o (.text.Csf_init)
                  0000e742    00000104     csf.o (.text.Csf_removeDeviceListItem)
                  0000e846    00000104     nvocmp.o (.text.NVOCMP_deleteItemApi)
                  0000e94a    00000002     --HOLE-- [fill = 0]
                  0000e94c    00000104     sysbios.a : Hwi_asm_gcc.s.obj (.text.ti_sysbios_family_arm_v8m_Hwi_dispatch)
                  0000ea50    00000100     driverlib.lib : setup.c.obj (.text.NOROM_SetupTrimDevice)
                  0000eb50    00000100     nvocmp.o (.text.NVOCMP_setItemInactive)
                  0000ec50    00000100     rf_multiMode_cc13x4.a : RFCC26X2_multiMode.c.cc13x4.ticlang.o (.text.RF_fsmPowerUpState)
                  0000ed50    00000100     maclib_secure_cc13x4_tirtos7.a : mac_data.c.o (.text.macRxCompleteCallback)
                  0000ee50    00000100                                    : mac_hl_patch.c.o (.text.macScanNextChan)
                  0000ef50    000000fc     nvocmp.o (.text.NVOCMP_writeItemApi)
                  0000f04c    000000fc     rf_multiMode_cc13x4.a : RFCC26X2_multiMode.c.cc13x4.ticlang.o (.text.RF_hwiCpe0Active)
                  0000f148    000000fa     embedded_cli.o (.text.getAutocompletedCommand)
                  0000f242    00000002     --HOLE-- [fill = 0]
                  0000f244    000000f6     ti_sysbios_config.o (.text.PowerCC26XX_standbyPolicy)
                  0000f33a    00000002     --HOLE-- [fill = 0]
                  0000f33c    000000f6     embedded_cli.o (.text.embeddedCliPrint)
                  0000f432    000000f4     csf.o (.text.Csf_updateFrameCounter)
                  0000f526    00000002     --HOLE-- [fill = 0]
                  0000f528    000000f4     drivers_cc13x4.a : TRNGCC26XX.c.obj (.text.TRNG_getRandom)
                  0000f61c    000000f4     maclib_secure_cc13x4_tirtos7.a : mac_coord.c.o (.text.macStartBegin)
                  0000f710    000000f2     ti_sysbios_config.o (.text.ti_sysbios_knl_Clock_init)
                  0000f802    000000f0     collector.o (.text.Collector_sendConfigRequest)
                  0000f8f2    00000002     --HOLE-- [fill = 0]
                  0000f8f4    000000f0     drivers_cc13x4.a : UART2CC26X2.c.obj (.text.UART2Support_dmaStartRx)
                  0000f9e4    000000ec     maclib_secure_cc13x4_tirtos7.a : mac.c.o (.text.macSetupRATChanCompare)
                  0000fad0    000000e6     collector.o (.text.Collector_init)
                  0000fbb6    00000002     --HOLE-- [fill = 0]
                  0000fbb8    000000e4     drivers_cc13x4.a : AESCCMCC26X4.c.obj (.text.AESCCM_startOperation)
                  0000fc9c    000000e4                      : Button.c.obj (.text.Button_open)
                  0000fd80    000000e4     csf.o (.text.Csf_getDeviceItem)
                  0000fe64    000000e4     maclib_secure_cc13x4_tirtos7.a : mac_tx.c.o (.text.macTxChannelBusyCallback)
                  0000ff48    000000e4     ti_sysbios_config.o (.text.ti_sysbios_gates_GateMutexPri_enter)
                  0001002c    000000e2     api_mac.o (.text.ApiMac_mlmeSetReqArray)
                  0001010e    000000e2     nvocmp.o (.text.NVOCMP_readItemApi)
                  000101f0    000000e2     ti_sysbios_config.o (.text.ti_sysbios_knl_Swi_restoreHwi)
                  000102d2    00000002     --HOLE-- [fill = 0]
                  000102d4    000000e0     driverlib.lib : sys_ctrl.c.obj (.text.NOROM_SysCtrlStandby)
                  000103b4    000000e0     drivers_cc13x4.a : UART2CC26X2.c.obj (.text.UART2CC26X2_initHw)
                  00010494    000000e0     maclib_secure_cc13x4_tirtos7.a : mac_coord.c.o (.text.macIndirectExpire)
                  00010574    000000e0                                    : mac_hl_patch.c.o (.text.macOutgoingFrameKeyDescRetrieval)
                  00010654    000000e0                                    : mac_tx.c.o (.text.txCsmaPrep)
                  00010734    000000dc     ti_sysbios_config.o (.text.ClockP_create)
                  00010810    000000dc     rf_multiMode_cc13x4.a : RFCC26X2_multiMode.c.cc13x4.ticlang.o (.text.RF_control)
                  000108ec    000000dc     maclib_secure_cc13x4_tirtos7.a : mac_mgmt.c.o (.text.macBuildDisassociateReq)
                  000109c8    000000da     ti_sysbios_config.o (.text.ti_sysbios_knl_Task_postInit)
                  00010aa2    00000002     --HOLE-- [fill = 0]
                  00010aa4    000000d8     maclib_secure_cc13x4_tirtos7.a : mac_hl_patch.c.o (.text.macCcmStarTransform)
                  00010b7c    000000d8                                    : mac_scan.c.o (.text.macScanRxBeacon)
                  00010c54    000000d8     libc.a : setvbuf.c.obj (.text.setvbuf)
                  00010d2c    000000d4     maclib_secure_cc13x4_tirtos7.a : mac_data.c.o (.text.MAC_McpsDataAlloc)
                  00010e00    000000d0     drivers_cc13x4.a : PowerCC26X2.c.obj (.text.configureXOSCHF)
                  00010ed0    000000d0     maclib_secure_cc13x4_tirtos7.a : mac_hl_patch.c.o (.text.macEdScanISR)
                  00010fa0    000000d0                                    : mac_radio_tx.c.o (.text.macRadioTxAckCb)
                  00011070    000000d0                                    : mac_radio_tx.c.o (.text.macRadioTxPrepCsmaSlottedSubG)
                  00011140    000000d0                                    : mac_symbol_timer.c.o (.text.macSymbolTimerUpdateWakeup)
                  00011210    000000d0     ti_sysbios_config.o (.text.ti_sysbios_knl_Task_sleep)
                  000112e0    000000cc     nvocmp.o (.text.NVOCMP_readItem)
                  000113ac    000000cc     maclib_secure_cc13x4_tirtos7.a : mac_mgmt.c.o (.text.macCommStatusInd)
                  00011478    000000ca     ti_sysbios_config.o (.text.SwiP_construct)
                  00011542    00000002     --HOLE-- [fill = 0]
                  00011544    000000ca     collector.o (.text.processConfigResponse)
                  0001160e    00000002     --HOLE-- [fill = 0]
                  00011610    000000ca     cllc.o (.text.scanCnfCb)
                  000116da    00000002     --HOLE-- [fill = 0]
                  000116dc    000000c8     maclib_secure_cc13x4_tirtos7.a : mac_hl_patch.c.o (.text.macOutgoingFrameSecurity)
                  000117a4    000000c8                                    : mac_main.c.o (.text.macSendDataMsg)
                  0001186c    000000c8     collector.o (.text.processDataRetry)
                  00011934    000000c6     ti_sysbios_config.o (.text.HwiP_construct)
                  000119fa    00000002     --HOLE-- [fill = 0]
                  000119fc    000000c6     collector.o (.text.dataIndCB)
                  00011ac2    000000c4     control_task.o (.text.control_Task_Noti_Info_mail)
                  00011b86    00000002     --HOLE-- [fill = 0]
                  00011b88    000000c4     maclib_secure_cc13x4_tirtos7.a : mac_hl_patch.c.o (.text.macBuildHeaderIes)
                  00011c4c    000000c4                                    : mac_duty_cycle.c.o (.text.macDutyCycleNotify)
                  00011d10    000000c4     embedded_cli.o (.text.printLiveAutocompletion)
                  00011dd4    000000c0     drivers_cc13x4.a : GPIOCC26XX.c.obj (.text.GPIO_setConfigAndMux)
                  00011e94    000000c0     driverlib.lib : aes.c.obj (.text.NOROM_AESWriteToKeyStore)
                  00011f54    000000c0     maclib_secure_cc13x4_tirtos7.a : mac_tx.c.o (.text.macTxRequestCsmaRtcDelay)
                  00012014    000000c0                                    : mac_radio.c.o (.text.scheduleNopWakeupCmd)
                  000120d4    000000be     control_task.o (.text.control_task_mail_post_DevInfo)
                  00012192    00000002     --HOLE-- [fill = 0]
                  00012194    000000be     ti_sysbios_config.o (.text.ti_sysbios_knl_Swi_runLoop)
                  00012252    000000be     ti_sysbios_config.o (.text.ti_sysbios_knl_Task_Instance_init)
                  00012310    000000bc     ti_sysbios_config.o (.text.BIOS_startFunc)
                  000123cc    000000bc     drivers_cc13x4.a : PowerCC26X2.c.obj (.text.Power_setDependency)
                  00012488    000000bc     rf_multiMode_cc13x4.a : RFCC26X2_multiMode.c.cc13x4.ticlang.o (.text.RF_swiHw)
                  00012544    000000bc     drivers_cc13x4.a : UART2CC26X2.c.obj (.text.UART2Support_dmaStartTx)
                  00012600    000000bc     utc_clock.o (.text.UTC_timeUpdateHandler)
                  000126bc    000000ba     ti_sysbios_config.o (.text.ti_sysbios_knl_Task_setPri)
                  00012776    00000002     --HOLE-- [fill = 0]
                  00012778    000000b8     maclib_secure_cc13x4_tirtos7.a : mac_mgmt.c.o (.text.MAC_MlmeResetReq)
                  00012830    000000b8                                    : mac_coord.c.o (.text.macStartSetParams)
                  000128e8    000000b8                                    : mac_tx.c.o (.text.macTxRequestCsmaDelay)
                  000129a0    000000b4     drivers_cc13x4.a : PowerCC26X2.c.obj (.text.Power_releaseDependency)
                  00012a54    000000b4     maclib_secure_cc13x4_tirtos7.a : mac.c.o (.text.macGetRFCmdDuration)
                  00012b08    000000b0                                    : mac_data.c.o (.text.macApiDataReq)
                  00012bb8    000000b0                                    : mac_mgmt.c.o (.text.macBuildBeaconNotifyInd)
                  00012c68    000000b0                                    : mac_ie_build.c.o (.text.macBuildPayloadCoexistIe)
                  00012d18    000000b0     libclang_rt.builtins.a : udivmoddi4.S.obj (.text)
                  00012dc8    000000ae     bindings.o (.text.allDevicesInNetwork)
                  00012e76    000000ae     control_task.o (.text.control_taskInit)
                  00012f24    000000ac     cllc.o (.text.Cllc_init)
                  00012fd0    000000ac     rf_multiMode_cc13x4.a : RFCC26X2_multiMode.c.cc13x4.ticlang.o (.text.RF_pendCmd)
                  0001307c    000000ac     maclib_secure_cc13x4_tirtos7.a : mac_hl_patch.c.o (.text.macAutoPendMaintainSrcMatchTable)
                  00013128    000000ac                                    : mac_data.c.o (.text.macDataTxEnqueue)
                  000131d4    000000ac     ti_sysbios_config.o (.text.ti_sysbios_knl_Task_restore)
                  00013280    000000aa     ti_sysbios_config.o (.text.ti_sysbios_knl_Task_startup)
                  0001332a    00000002     --HOLE-- [fill = 0]
                  0001332c    000000a8     drivers_cc13x4.a : AESCCMCC26X4.c.obj (.text.AESCCM_hwiFxn)
                  000133d4    000000a8     csf.o (.text.Csf_getDevice)
                  0001347c    000000a8     csf.o (.text.Csf_getDeviceExtAdd)
                  00013524    000000a8     maclib_secure_cc13x4_tirtos7.a : mac_hl_patch.c.o (.text.macApiStartReq)
                  000135cc    000000a8                                    : mac_coord.c.o (.text.macCoordReset)
                  00013674    000000a8                                    : mac_rx.c.o (.text.macRxInit)
                  0001371c    000000a8                                    : mac_tx.c.o (.text.macTxStartQueuedFrame)
                  000137c4    000000a4                                    : mac_autopend.c.o (.text.MAC_SrcMatchAddEntry)
                  00013868    000000a4     maclib_osal_tirtos7_cc13x4_26x4.a : osal_port.c.o (.text.OsalPort_heapMalloc)
                  0001390c    000000a4     rf_multiMode_cc13x4.a : RFCC26X2_multiMode.c.cc13x4.ticlang.o (.text.RF_initRadioSetup)
                  000139b0    000000a4     maclib_secure_cc13x4_tirtos7.a : mac_hl_patch.c.o (.text.macDataTxComplete)
                  00013a54    000000a4                                    : mac_hl_patch.c.o (.text.macMgmtReset)
                  00013af8    000000a2     ti_sysbios_config.o (.text.ti_sysbios_runtime_Memory_alloc)
                  00013b9a    00000002     --HOLE-- [fill = 0]
                  00013b9c    000000a0     rf_multiMode_cc13x4.a : RFCC26X2_multiMode.c.cc13x4.ticlang.o (.text.RF_calculateDispatchTime)
                  00013c3c    000000a0                           : RFCC26X2_multiMode.c.cc13x4.ticlang.o (.text.RF_requestAccess)
                  00013cdc    000000a0     maclib_secure_cc13x4_tirtos7.a : mac_hl_patch.c.o (.text.macAutoPendAddSrcMatchTableEntry)
                  00013d7c    000000a0                                    : mac_coord.c.o (.text.macBuildPendAddr)
                  00013e1c    000000a0                                    : mac_hl_patch.c.o (.text.macCbackForEvent)
                  00013ebc    000000a0     cllc.o (.text.orphanIndCb)
                  00013f5c    000000a0     ti_sysbios_config.o (.text.ti_sysbios_knl_Swi_post)
                  00013ffc    0000009c     driverlib.lib : setup.c.obj (.text.TrimAfterColdResetWakeupFromShutDown)
                  00014098    0000009c     cllc.o (.text.beaconNotifyIndCb)
                  00014134    0000009c     maclib_secure_cc13x4_tirtos7.a : mac_mgmt.c.o (.text.macBuildWSAsyncReq)
                  000141d0    00000098     cllc.o (.text.Cllc_securityInit)
                  00014268    00000098     nvocmp.o (.text.NVOCMP_getItemLenApi)
                  00014300    00000098     rf_multiMode_cc13x4.a : RFCC26X2_multiMode.c.cc13x4.ticlang.o (.text.RF_defaultSubmitPolicy)
                  00014398    00000098     ti_sysbios_config.o (.text._pthread_cleanupFxn)
                  00014430    00000098     maclib_secure_cc13x4_tirtos7.a : mac_hl_patch.c.o (.text.macIncomingSecurityLevelChecking)
                  000144c8    00000098                                    : mac_mgmt.c.o (.text.macRxBeacon)
                  00014560    00000098                                    : mac_timer.c.o (.text.macSymbolTimerTriggerCallback)
                  000145f8    00000098     ti_sysbios_config.o (.text.ti_sysbios_knl_Mailbox_post)
                  00014690    00000098     ti_sysbios_config.o (.text.ti_sysbios_knl_Task_restoreHwi)
                  00014728    00000096     rf_multiMode_cc13x4.a : RFCC26X2_multiMode.c.cc13x4.ticlang.o (.text.RF_verifyGap)
                  000147be    00000002     --HOLE-- [fill = 0]
                  000147c0    00000094     maclib_secure_cc13x4_tirtos7.a : mac_hl_patch.c.o (.text.MAC_MlmeScanReq)
                  00014854    00000094     rf_multiMode_cc13x4.a : RFCC26X2_multiMode.c.cc13x4.ticlang.o (.text.RF_ratRestartChannels)
                  000148e8    00000094     ti_sysbios_config.o (.text._pthread_removeThreadKeys)
                  0001497c    00000094     maclib_secure_cc13x4_tirtos7.a : mac_coord.c.o (.text.macApiPurgeReq)
                  00014a10    00000094                                    : mac_coord.c.o (.text.macBuildRealign)
                  00014aa4    00000094     macTask.o (.text.macTaskInit)
                  00014b38    00000094     ti_sysbios_config.o (.text.ti_sysbios_gates_GateMutexPri_leave)
                  00014bcc    00000092     embedded_cli.o (.text.embeddedCliTokenizeArgs)
                  00014c5e    00000092     ti_sysbios_config.o (.text.ti_sysbios_knl_Semaphore_post)
                  00014cf0    00000092     ti_sysbios_config.o (.text.ti_sysbios_knl_Task_exit)
                  00014d82    00000002     --HOLE-- [fill = 0]
                  00014d84    00000090     rf_multiMode_cc13x4.a : RFCC26X2_multiMode.c.cc13x4.ticlang.o (.text.RF_getTxPower)
                  00014e14    00000090     maclib_secure_cc13x4_tirtos7.a : mac_coord.c.o (.text.macIndirectSend)
                  00014ea4    00000090                                    : mac_autopend.c.o (.text.macSrcMatchCheckSrcAddr)
                  00014f34    00000090                                    : mac.c.o (.text.macStopCmd)
                  00014fc4    00000090     ti_sysbios_config.o (.text.ti_sysbios_knl_Swi_restore)
                  00015054    0000008e     main.o (.text.collectorTask_)
                  000150e2    00000002     --HOLE-- [fill = 0]
                  000150e4    0000008e     collector.o (.text.commStatusIndCB)
                  00015172    00000002     --HOLE-- [fill = 0]
                  00015174    0000008e     collector.o (.text.processTrackingResponse)
                  00015202    0000008c     nvocmp.o (.text.NVOCMP_readHeader)
                  0001528e    00000002     --HOLE-- [fill = 0]
                  00015290    0000008c     drivers_cc13x4.a : TRNGCC26XX.c.obj (.text.TRNG_construct)
                  0001531c    0000008c                      : NVSCC26XX.c.obj (.text.doErase)
                  000153a8    0000008c     maclib_secure_cc13x4_tirtos7.a : mac_radio_tx.c.o (.text.macRadioFHEncryptFrame)
                  00015434    0000008c     ti_sysbios_config.o (.text.ti_sysbios_knl_Task_enter)
                  000154c0    0000008a     ti_sysbios_config.o (.text.ti_sysbios_knl_Swi_startup)
                  0001554a    00000002     --HOLE-- [fill = 0]
                  0001554c    00000088     rf_multiMode_cc13x4.a : RFCC26X2_multiMode.c.cc13x4.ticlang.o (.text.RF_cmdDispatchTime)
                  000155d4    00000088                           : RFCC26X2_multiMode.c.cc13x4.ticlang.o (.text.RF_discardPendCmd)
                  0001565c    00000088     maclib_secure_cc13x4_tirtos7.a : mac_hl_patch.c.o (.text.macCcmDecrypt)
                  000156e4    00000088                                    : mac_hl_patch.c.o (.text.macCcmStarInverseTransform)
                  0001576c    00000088                                    : mac_radio_tx.c.o (.text.macRadioSendImmAck)
                  000157f4    00000088                                    : mac_radio.c.o (.text.macRadioUpdateChannel)
                  0001587c    00000086     ti_sysbios_config.o (.text.ClockP_construct)
                  00015902    00000002     --HOLE-- [fill = 0]
                  00015904    00000084     api_mac.o (.text.ApiMac_init)
                  00015988    00000084     maclib_secure_cc13x4_tirtos7.a : mac_coord.c.o (.text.MAC_InitCoord)
                  00015a0c    00000084     nvocmp.o (.text.NVOCMP_getFreeNvApi)
                  00015a90    00000084     rf_multiMode_cc13x4.a : RFCC26X2_multiMode.c.cc13x4.ticlang.o (.text.RF_getInfo)
                  00015b14    00000084                           : RFCC26X2_multiMode.c.cc13x4.ticlang.o (.text.RF_yield)
                  00015b98    00000084     maclib_secure_cc13x4_tirtos7.a : mac_hl_patch.c.o (.text.macBlacklistChecking)
                  00015c1c    00000084                                    : mac_hl_patch.c.o (.text.macCcmEncrypt)
                  00015ca0    00000082     main.o (.text.main)
                  00015d22    00000002     --HOLE-- [fill = 0]
                  00015d24    00000080     drivers_cc13x4.a : GPIOCC26X4.c.obj (.text.GPIO_hwiIntFxn)
                  00015da4    00000080     nvocmp.o (.text.NVOCMP_changePageState)
                  00015e24    00000080     maclib_osal_tirtos7_cc13x4_26x4.a : osal_port.c.o (.text.OsalPort_setTimer)
                  00015ea4    00000080     maclib_secure_cc13x4_tirtos7.a : mac_data.c.o (.text.macFrameDurationSubG)
                  00015f24    00000080                                    : mac_coord.c.o (.text.macRxDataReq)
                  00015fa4    00000080                                    : mac_tx.c.o (.text.macTxDoneCallback)
                  00016024    0000007e     nvocmp.o (.text.NVOCMP_loadApiPtrs)
                  000160a2    00000002     --HOLE-- [fill = 0]
                  000160a4    0000007c     driverlib.lib : setup_rom.c.obj (.text.NOROM_SetupStepVddrTrimTo)
                  00016120    0000007c     rf_multiMode_cc13x4.a : RFCC26X2_multiMode.c.cc13x4.ticlang.o (.text.RF_ratDisableChannel)
                  0001619c    0000007c     maclib_secure_cc13x4_tirtos7.a : mac_mcu.c.o (.text.macMcuOverflowSetPeriod)
                  00016218    0000007c                                    : mac_pwr.c.o (.text.macPwrVote)
                  00016294    0000007c                                    : mac.c.o (.text.macSetupReceiveCmd)
                  00016310    0000007a     ti_drivers_config.o (.text.Board_shutDownExtFlash)
                  0001638a    0000007a     nvocmp.o (.text.NVOCMP_compactNvApi)
                  00016404    0000007a     ti_sysbios_config.o (.text.ti_sysbios_knl_TaskSupport_start)
                  0001647e    00000002     --HOLE-- [fill = 0]
                  00016480    00000078     driverlib.lib : chipinfo.c.obj (.text.NOROM_ChipInfo_GetChipType)
                  000164f8    00000078     drivers_cc13x4.a : NVSCC26XX.c.obj (.text.NVSCC26XX_open)
                  00016570    00000078     rf_multiMode_cc13x4.a : RFCC26X2_multiMode.c.cc13x4.ticlang.o (.text.RF_ratFreeChannel)
                  000165e8    00000078     maclib_secure_cc13x4_tirtos7.a : mac.c.o (.text.macRequestBackoff)
                  00016660    00000078                                    : mac_symbol_timer.c.o (.text.macSymbolTimerInit)
                  000166d8    00000078     ti_sysbios_config.o (.text.ti_sysbios_family_arm_v8m_Hwi_dispatchC)
                  00016750    00000076     ti_sysbios_config.o (.text.HwiP_destruct)
                  000167c6    00000076     drivers_cc13x4.a : UART2CC26X2.c.obj (.text.UART2Support_dmaStopTx)
                  0001683c    00000074     maclib_osal_tirtos7_cc13x4_26x4.a : osal_port.c.o (.text.OsalPort_heapInit)
                  000168b0    00000074     rf_multiMode_cc13x4.a : RFCC26X2_multiMode.c.cc13x4.ticlang.o (.text.RF_hwiHw)
                  00016924    00000074     libc.a : fclose.c.obj (.text.__TI_closefile)
                  00016998    00000074     maclib_secure_cc13x4_tirtos7.a : mac_hl_patch.c.o (.text.macKeyDescriptorLookup)
                  00016a0c    00000074                                    : mac_mcu.c.o (.text.macMcuOverflowSetCompare)
                  00016a80    00000074                                    : mac_radio_tx.c.o (.text.macRadioTxEnhAckCb)
                  00016af4    00000074                                    : mac_ie_parse.c.o (.text.macUpdateHeaderIEPtr)
                  00016b68    00000074     ti_sysbios_config.o (.text.ti_sysbios_knl_Mailbox_pend)
                  00016bdc    00000072     drivers_cc13x4.a : LED.c.obj (.text.LED_startBlinking)
                  00016c4e    00000002     --HOLE-- [fill = 0]
                  00016c50    00000072     cllc.o (.text.disassocCnfCb)
                  00016cc2    00000072     ti_sysbios_config.o (.text.pthread_mutex_lock)
                  00016d34    00000070     drivers_cc13x4.a : AESCCMCC26X4.c.obj (.text.AESCCM_waitForResult)
                  00016da4    00000070     driverlib.lib : interrupt.c.obj (.text.NOROM_IntDisable)
                  00016e14    00000070     maclib_osal_tirtos7_cc13x4_26x4.a : osal_port.c.o (.text.OsalPort_pwrmgrTaskState)
                  00016e84    00000070     cllc.o (.text.disassocIndCb)
                  00016ef4    00000070     maclib_secure_cc13x4_tirtos7.a : mac_duty_cycle.c.o (.text.macDutyCycleTimerCB)
                  00016f64    00000070                                    : mac_radio.c.o (.text.macRadioStartScan)
                  00016fd4    00000070                                    : mac_timer.c.o (.text.macTimerUpdateSymbolTimer)
                  00017044    00000070     libc.a : copy_decompress_lzss.c.obj (.text:decompress:lzss)
                  000170b4    0000006e     cllc.o (.text.Cllc_setJoinPermit)
                  00017122    00000002     --HOLE-- [fill = 0]
                  00017124    0000006c     drivers_cc13x4.a : AESCCMCC26X4.c.obj (.text.AESCCM_construct)
                  00017190    0000006c     driverlib.lib : interrupt.c.obj (.text.NOROM_IntEnable)
                  000171fc    0000006c                   : sys_ctrl.c.obj (.text.NOROM_SysCtrl_DCDC_VoltageConditionalControl)
                  00017268    0000006c     rf_multiMode_cc13x4.a : RFCC26X2_multiMode.c.cc13x4.ticlang.o (.text.RF_issueRadioFreeCb)
                  000172d4    0000006c     drivers_cc13x4.a : Random.c.obj (.text.Random_seedAutomatic)
                  00017340    0000006c     rf_multiMode_cc13x4.a : rf_patch_cpe_multi_protocol.c.cc13x4.ticlang.o (.text.configureMultiProtocolPatch)
                  000173ac    0000006c     maclib_secure_cc13x4_tirtos7.a : mac_mgmt.c.o (.text.macApiDisassociateReq)
                  00017418    0000006c                                    : mac_duty_cycle.c.o (.text.macDutyCycleByteToUSec)
                  00017484    0000006c                                    : mac_rx_onoff.c.o (.text.macRxOffRequest)
                  000174f0    0000006c                                    : mac.c.o (.text.macSetupFsCmd)
                  0001755c    0000006c     drivers_cc13x4.a : PowerCC26X2.c.obj (.text.oscillatorISR)
                  000175c8    0000006c     par.o (.text.par_save)
                  00017634    00000068     drivers_cc13x4.a : PowerCC26X2_calibrateRCOSC_helpers.c.obj (.text.PowerCC26X2_updateSubSecInc)
                  0001769c    00000068     rf_multiMode_cc13x4.a : RFCC26X2_multiMode.c.cc13x4.ticlang.o (.text.RF_detachOverrides)
                  00017704    00000068     libc.a : fseek.c.obj (.text.fseeko)
                  0001776c    00000068            : getdevice.c.obj (.text.getdevice)
                  000177d4    00000068     maclib_secure_cc13x4_tirtos7.a : mac_mgmt.c.o (.text.macDisassocComplete)
                  0001783c    00000068                                    : mac_low_level.c.o (.text.macLowLevelInit)
                  000178a4    00000068                                    : mac_radio.c.o (.text.macRadioPowerDown)
                  0001790c    00000068                                    : mac_scan.c.o (.text.macScanStartTimer)
                  00017974    00000068                                    : mac_timer.c.o (.text.macTimerSetRollover)
                  000179dc    00000068                                    : mac_tx.c.o (.text.macTxGetDefaultMinTxOffTime)
                  00017a44    00000064     csf.o (.text.Csf_getFrameCounter)
                  00017aa8    00000064     libsysbm.a : hostrename.c.obj (.text.HOSTrename)
                  00017b0c    00000064     maclib_secure_cc13x4_tirtos7.a : mac_mgmt.c.o (.text.MAC_Init)
                  00017b70    00000064     maclib_osal_tirtos7_cc13x4_26x4.a : osal_port.c.o (.text.OsalPort_clearEvent)
                  00017bd4    00000064     drivers_cc13x4.a : PowerCC26X2_calibrateRCOSC.c.obj (.text.PowerCC26X2_initiateCalibration)
                  00017c38    00000064     rf_multiMode_cc13x4.a : RFCC26X2_multiMode.c.cc13x4.ticlang.o (.text.RF_attachOverrides)
                  00017c9c    00000064                           : RFCC26X2_multiMode.c.cc13x4.ticlang.o (.text.RF_dispatchNextEvent)
                  00017d00    00000064                           : RFCC26X2_multiMode.c.cc13x4.ticlang.o (.text.RF_hwiCpe0PowerFsm)
                  00017d64    00000064     drivers_cc13x4.a : UDMACC26XX.c.obj (.text.UDMACC26XX_open)
                  00017dc8    00000064     maclib_secure_cc13x4_tirtos7.a : mac_mcu.c.o (.text.macMcuInit)
                  00017e2c    00000064                                    : mac_radio_tx.c.o (.text.macRadioTxPrepLbt)
                  00017e90    00000064                                    : mac_rx.c.o (.text.macRxHaltCleanup)
                  00017ef4    00000064                                    : mac_timer.c.o (.text.macTimerRealign)
                  00017f58    00000064     ti_sysbios_config.o (.text.pthread_exit)
                  00017fbc    00000064     ti_sysbios_config.o (.text.ti_sysbios_knl_Semaphore_pendTimeout)
                  00018020    00000062     rf_multiMode_cc13x4.a : RFCC26X2_multiMode.c.cc13x4.ticlang.o (.text.RF_syncCb)
                  00018082    00000002     --HOLE-- [fill = 0]
                  00018084    00000062     par.o (.text.par_load)
                  000180e6    00000002     --HOLE-- [fill = 0]
                  000180e8    00000060     drivers_cc13x4.a : CryptoResourceCC26XX.c.obj (.text.CryptoResourceCC26XX_constructRTOSObjects)
                  00018148    00000060     driverlib.lib : setup_rom.c.obj (.text.NOROM_SetupAfterColdResetWakeupFromShutDownCfg1)
                  000181a8    00000060     maclib_osal_tirtos7_cc13x4_26x4.a : osal_port.c.o (.text.OsalPort_setEvent)
                  00018208    00000060     ti_sysbios_config.o (.text.SemaphoreP_createBinary)
                  00018268    00000060     libc.a : _io_perm.c.obj (.text.__TI_wrt_ok)
                  000182c8    00000060     libsysbm.a : close.c.obj (.text.close)
                  00018328    00000060     maclib_secure_cc13x4_tirtos7.a : mac_beacon_device.c.o (.text.macBeaconSyncLoss)
                  00018388    00000060                                    : mac_data.c.o (.text.macDataReset)
                  000183e8    00000060                                    : mac_main.c.o (.text.macExecute)
                  00018448    00000060                                    : mac_scan.c.o (.text.macScanComplete)
                  000184a8    00000060                                    : mac_main.c.o (.text.macSendMsg)
                  00018508    00000060                                    : mac_symbol_timer.c.o (.text.macSymbolTimerPeriodIsr)
                  00018568    00000060                                    : mac_hl_patch.c.o (.text.macTrackPeriodCallback)
                  000185c8    0000005e     rf_multiMode_cc13x4.a : rfc.c.cc13x4.ticlang.o (.text.NOROM_RFCAnaDivTxOverride)
                  00018626    0000005e     drivers_cc13x4.a : UART2CC26X2.c.obj (.text.UART2Support_dmaStopRx)
                  00018684    0000005e     ti_sysbios_config.o (.text.ti_sysbios_family_arm_v8m_cc26x4_Timer_dynamicMultiStub)
                  000186e2    00000002     --HOLE-- [fill = 0]
                  000186e4    0000005c     cllc.o (.text.Cllc_removeDevice)
                  00018740    0000005c     maclib_secure_cc13x4_tirtos7.a : mac_hl_patch.c.o (.text.MAC_ResumeReq)
                  0001879c    0000005c     driverlib.lib : setup_rom.c.obj (.text.NOROM_SetupGetTrimForAmpcompCtrl)
                  000187f8    0000005c     maclib_osal_tirtos7_cc13x4_26x4.a : osal_port.c.o (.text.OsalPort_msgReceive)
                  00018854    0000005c     maclib_secure_cc13x4_tirtos7.a : mac_mgmt.c.o (.text.macBuildWSAsyncMsg)
                  000188b0    0000005c                                    : mac_sleep.c.o (.text.macCanSleep)
                  0001890c    0000005c                                    : mac_coord.c.o (.text.macIndirectTxFrame)
                  00018968    0000005c                                    : mac_mgmt.c.o (.text.macRxDisassoc)
                  000189c4    0000005c                                    : mac_ie_parse.c.o (.text.macUpdatePayloadIEPtr)
                  00018a20    0000005c     sysbios.a : Hwi_asm_switch_gcc.s.obj (.text.ti_sysbios_family_arm_v8m_Hwi_initStacks)
                  00018a7c    0000005a     csf.o (.text.Csf_networkUpdate)
                  00018ad6    00000002     --HOLE-- [fill = 0]
                  00018ad8    0000005a     embedded_cli.o (.text.embeddedCliGetToken)
                  00018b32    00000002     --HOLE-- [fill = 0]
                  00018b34    00000058     drivers_cc13x4.a : Button.c.obj (.text.Button_gpioCallbackFxn)
                  00018b8c    00000058     maclib_osal_tirtos7_cc13x4_26x4.a : osal_port.c.o (.text.HEAPMGR_GETLARGESTFREEBUF)
                  00018be4    00000058     libsysbm.a : hostlseek.c.obj (.text.HOSTlseek)
                  00018c3c    00000058                : hostopen.c.obj (.text.HOSTopen)
                  00018c94    00000058     driverlib.lib : osc.c.obj (.text.NOROM_OSCHF_AttemptToSwitchToXosc)
                  00018cec    00000058                   : setup_rom.c.obj (.text.NOROM_SetupGetTrimForAnabypassValue1)
                  00018d44    00000058     maclib_osal_tirtos7_cc13x4_26x4.a : osal_port.c.o (.text.OsalPort_msgSend)
                  00018d9c    00000058     rf_multiMode_cc13x4.a : RFCC26X2_multiMode.c.cc13x4.ticlang.o (.text.RF_applyRfCorePatch)
                  00018df4    00000058     drivers_cc13x4.a : TRNGCC26XX.c.obj (.text.TRNG_init)
                  00018e4c    00000058     maclib_secure_cc13x4_tirtos7.a : mac_coord.c.o (.text.macApiOrphanRsp)
                  00018ea4    00000058                                    : mac_radio_tx.c.o (.text.macRadioTxBackoffBoundary)
                  00018efc    00000058                                    : mac_radio_tx.c.o (.text.macRadioTxGoLbt)
                  00018f54    00000058                                    : mac_rx_onoff.c.o (.text.macRxOn)
                  00018fac    00000056     ti_sysbios_config.o (.text.BIOS_exitFunc)
                  00019002    00000002     --HOLE-- [fill = 0]
                  00019004    00000056     ti_drivers_config.o (.text.Board_sendExtFlashByte)
                  0001905a    00000056     drivers_cc13x4.a : StructRingBuf.c.obj (.text.StructRingBuf_put)
                  000190b0    00000056     maclib_osal_tirtos7_cc13x4_26x4.a : util_timer.c.o (.text.UtilTimer_construct)
                  00019106    00000054     csf.o (.text.Csf_stateChangeUpdate)
                  0001915a    00000002     --HOLE-- [fill = 0]
                  0001915c    00000054     libsysbm.a : hostread.c.obj (.text.HOSTread)
                  000191b0    00000054                : hostwrite.c.obj (.text.HOSTwrite)
                  00019204    00000054     maclib_secure_cc13x4_tirtos7.a : mac_autopend.c.o (.text.MAC_SrcMatchEnable)
                  00019258    00000054     drivers_cc13x4.a : TRNGCC26XX.c.obj (.text.TRNGCC26XX_startTrng)
                  000192ac    00000054     console.o (.text.cli_printf)
                  00019300    00000054     maclib_secure_cc13x4_tirtos7.a : mac_beacon.c.o (.text.macBeaconSetupCap)
                  00019354    00000054                                    : mac_hl_patch.c.o (.text.macIncomingKeyUsagePolicyChecking)
                  000193a8    00000054                                    : mac_coord.c.o (.text.macIndirectRequeueFrame)
                  000193fc    00000054                                    : mac_radio_tx.c.o (.text.macRadioTxPrepSlotted)
                  00019450    00000054                                    : mac.c.o (.text.macRequestSFDTimeout)
                  000194a4    00000054                                    : mac_timer.c.o (.text.macTimerAddTimer)
                  000194f8    00000054                                    : mac_timer.c.o (.text.macTimerCancel)
                  0001954c    00000054                                    : mac_tx.c.o (.text.macTxAckReceivedCallback)
                  000195a0    00000054     ti_sysbios_config.o (.text.pthread_mutex_init)
                  000195f4    00000052     nvocmp.o (.text.NVOCMP_findPage)
                  00019646    00000052     ti_sysbios_config.o (.text.ti_sysbios_knl_Mailbox_create)
                  00019698    00000050     drivers_cc13x4.a : AESCCMCC26X4.c.obj (.text.AESCCM_setNonce)
                  000196e8    00000050     rf_multiMode_cc13x4.a : RFCC26X2_multiMode.c.cc13x4.ticlang.o (.text.RF_wakeupNotification)
                  00019738    00000050     libc.a : fflush.c.obj (.text.__TI_doflush)
                  00019788    00000050     maclib_secure_cc13x4_tirtos7.a : mac_data.c.o (.text.macCheckIndPacket)
                  000197d8    00000050                                    : mac_hl_patch.c.o (.text.macCheckPhyRate)
                  00019828    00000050                                    : mac_radio.c.o (.text.macRadioSetChannel)
                  00019878    00000050                                    : mac_radio_tx.c.o (.text.macRadioTxPrepCsmaSlottedIeee)
                  000198c8    00000050                                    : mac_radio.c.o (.text.macRadioUpdateTxPower)
                  00019918    00000050                                    : mac_timer.c.o (.text.macTimerGetNextTimer)
                  00019968    00000050     console.o (.text.onCommand)
                  000199b8    00000050     maclib_secure_cc13x4_tirtos7.a : mac_rx.c.o (.text.rxPostRxUpdates)
                  00019a08    00000050     ti_sysbios_config.o (.text.sem_init)
                  00019a58    0000004e     ti_sysbios_config.o (.text.ClockP_getTimeout)
                  00019aa6    0000004e     bindings.o (.text.displayTime)
                  00019af4    0000004c     maclib_secure_cc13x4_tirtos7.a : mac_autopend.c.o (.text.MAC_SrcMatchAckAllPending)
                  00019b40    0000004c     driverlib.lib : interrupt.c.obj (.text.NOROM_IntPendClear)
                  00019b8c    0000004c                   : setup_rom.c.obj (.text.NOROM_SetupSetCacheModeAccordingToCcfgSetting)
                  00019bd8    0000004c     drivers_cc13x4.a : NVSCC26XX.c.obj (.text.NVSCC26XX_read)
                  00019c24    0000004c     rf_multiMode_cc13x4.a : RFCC26X2_multiMode.c.cc13x4.ticlang.o (.text.RF_fsmXOSCState)
                  00019c70    0000004c                           : RFCC26X2_multiMode.c.cc13x4.ticlang.o (.text.RF_getCurrentTime)
                  00019cbc    0000004c     drivers_cc13x4.a : StructRingBuf.c.obj (.text.StructRingBuf_get)
                  00019d08    0000004c     maclib_secure_cc13x4_tirtos7.a : mac_radio.c.o (.text.macGetRadioTxPowerReg)
                  00019d54    0000004c                                    : mac_coord.c.o (.text.macIndirectMark)
                  00019da0    0000004c                                    : mac_radio_tx.c.o (.text.macRadioSendEnhAck)
                  00019dec    0000004c                                    : mac_radio_tx.c.o (.text.macRadioTxHandleAck)
                  00019e38    0000004c                                    : mac_radio.c.o (.text.macRadioWakeupCb)
                  00019e84    0000004c                                    : mac_symbol_timer.c.o (.text.macSymbolTimerEventHandler)
                  00019ed0    0000004c                                    : mac_timer.c.o (.text.macSymbolTimerRolloverCallback)
                  00019f1c    0000004c     drivers_cc13x4.a : PowerCC26X2.c.obj (.text.switchXOSCHF)
                  00019f68    0000004c     ti_sysbios_config.o (.text.ti_sysbios_knl_Task_sleepTimeout)
                  00019fb4    0000004a     collector.o (.text.Collector_sendToggleLedRequest)
                  00019ffe    00000048     ti_sysbios_config.o (.text.BIOS_atExitFunc)
                  0001a046    00000002     --HOLE-- [fill = 0]
                  0001a048    00000048     maclib_secure_cc13x4_tirtos7.a : mac_autopend.c.o (.text.MAC_SrcMatchSetDefaultPend)
                  0001a090    00000048     driverlib.lib : chipinfo.c.obj (.text.NOROM_ChipInfo_GetHwRevision)
                  0001a0d8    00000048     rf_multiMode_cc13x4.a : rfc.c.cc13x4.ticlang.o (.text.NOROM_RFCSynthPowerDown)
                  0001a120    00000048     drivers_cc13x4.a : NVS.c.obj (.text.NVS_open)
                  0001a168    00000048     maclib_osal_tirtos7_cc13x4_26x4.a : osal_port.c.o (.text.OsalPort_heapFree)
                  0001a1b0    00000048     drivers_cc13x4.a : PowerCC26X2.c.obj (.text.PowerCC26XX_switchXOSC_HF)
                  0001a1f8    00000048                      : UART2.c.obj (.text.UART2_readFull)
                  0001a240    00000048     maclib_secure_cc13x4_tirtos7.a : mac_main.c.o (.text.macMainReset)
                  0001a288    00000046     drivers_cc13x4.a : RingBuf.c.obj (.text.RingBuf_put)
                  0001a2ce    00000044     csf.o (.text.Csf_setBroadcastClock)
                  0001a312    00000044     csf.o (.text.Csf_setConfigClock)
                  0001a356    00000044     csf.o (.text.Csf_setJoinPermitClock)
                  0001a39a    00000044     csf.o (.text.Csf_setTrackingClock)
                  0001a3de    00000002     --HOLE-- [fill = 0]
                  0001a3e0    00000044     libsysbm.a : hostunlink.c.obj (.text.HOSTunlink)
                  0001a424    00000044     driverlib.lib : prcm.c.obj (.text.NOROM_PRCMPowerDomainsAllOff)
                  0001a468    00000044                   : prcm.c.obj (.text.NOROM_PRCMPowerDomainsAllOn)
                  0001a4ac    00000044     drivers_cc13x4.a : NVSCC26XX.c.obj (.text.NVSCC26XX_init)
                  0001a4f0    00000044                      : PWM.c.obj (.text.PWM_init)
                  0001a534    00000044     rf_multiMode_cc13x4.a : RFCC26X2_multiMode.c.cc13x4.ticlang.o (.text.RF_TxPowerTable_findValue)
                  0001a578    00000044                           : RFCC26X2_multiMode.c.cc13x4.ticlang.o (.text.RF_cmdGet)
                  0001a5bc    00000044     utc_clock.o (.text.UTC_init)
                  0001a600    00000044     collector.o (.text.cllcDeviceJoiningCB)
                  0001a644    00000044     maclib_secure_cc13x4_tirtos7.a : mac_radio_tx.c.o (.text.macRadioTxPrepCsmaUnslottedSubG)
                  0001a688    00000044                                    : mac.c.o (.text.macRatDisableChannels)
                  0001a6cc    00000044                                    : mac_rx.c.o (.text.macRxNokIsr)
                  0001a710    00000044                                    : mac.c.o (.text.macSendFsCmd)
                  0001a754    00000044                                    : mac_coord.c.o (.text.macStartContinue)
                  0001a798    00000042     cllc.o (.text.Cllc_addSecDevice)
                  0001a7da    00000042     ti_sysbios_config.o (.text.HwiP_enableInterrupt)
                  0001a81c    00000042     console.o (.text.console_taskInit)
                  0001a85e    00000042     api_mac.o (.text.convertTxOptions)
                  0001a8a0    00000042     maclib_secure_cc13x4_tirtos7.a : mac_mgmt.c.o (.text.macDestSAddrCmp)
                  0001a8e2    00000040     cllc.o (.text.Cllc_startNetwork)
                  0001a922    00000002     --HOLE-- [fill = 0]
                  0001a924    00000040     maclib_secure_cc13x4_tirtos7.a : mac_pib.c.o (.text.MAC_MlmeGetReq)
                  0001a964    00000040     maclib_osal_tirtos7_cc13x4_26x4.a : osal_port.c.o (.text.OsalPort_deleteTimer)
                  0001a9a4    00000040                                       : osal_port.c.o (.text.OsalPort_msgEnqueueMax)
                  0001a9e4    00000040     drivers_cc13x4.a : PWM.c.obj (.text.PWM_open)
                  0001aa24    00000040                      : PowerCC26X2_calibrateRCOSC.c.obj (.text.PowerCC26X2_RCOSC_clockFunc)
                  0001aa64    00000040     libc.a : atoi.c.obj (.text.atoi)
                  0001aaa4    00000040     drivers_cc13x4.a : LED.c.obj (.text.clockTimeoutHandler)
                  0001aae4    00000040     maclib_secure_cc13x4_tirtos7.a : mac_coord.c.o (.text.macRxAssociateReq)
                  0001ab24    00000040                                    : mac_hl_patch.c.o (.text.macSetDefaultsByPatch)
                  0001ab64    00000040                                    : mac_symbol_timer.c.o (.text.macSymbolTimerRealignIeee)
                  0001aba4    00000040                                    : mac_symbol_timer.c.o (.text.macSymbolTimerRealignSubG)
                  0001abe4    00000040                                    : mac_timer.c.o (.text.macTimerUpdActive)
                  0001ac24    00000040                                    : mac_tx.c.o (.text.macTxFrameIsr)
                  0001ac64    00000040                                    : mac_tx.c.o (.text.macTxTimestampCallback)
                  0001aca4    00000040     collector.o (.text.processIdentifyLedRequest)
                  0001ace4    00000040     maclib_secure_cc13x4_tirtos7.a : mac_tx.c.o (.text.txGo)
                  0001ad24    0000003e     csf.o (.text.Csf_getNetworkInformation)
                  0001ad62    0000003e     csf.o (.text.Csf_getNumDeviceListEntries)
                  0001ada0    0000003e     csf.o (.text.Csf_identifyLED)
                  0001adde    0000003e     drivers_cc13x4.a : LED.c.obj (.text.LED_setBrightnessLevel)
                  0001ae1c    0000003e                      : LED.c.obj (.text.LED_setOff)
                  0001ae5a    0000003e     maclib_secure_cc13x4_tirtos7.a : mac_mgmt.c.o (.text.macDestAddrCmp)
                  0001ae98    0000003e     cllc.o (.text.startCnfCb)
                  0001aed6    00000002     --HOLE-- [fill = 0]
                  0001aed8    0000003c     drivers_cc13x4.a : GPIO.c.obj (.text.GPIO_resetConfig)
                  0001af14    0000003c     libsysbm.a : hostclose.c.obj (.text.HOSTclose)
                  0001af50    0000003c     maclib_secure_cc13x4_tirtos7.a : mac_autopend.c.o (.text.MAC_SrcMatchCheckResult)
                  0001af8c    0000003c     driverlib.lib : osc.c.obj (.text.NOROM_OSC_HPOSCRelativeFrequencyOffsetGet)
                  0001afc8    0000003c     rf_multiMode_cc13x4.a : RFCC26X2_multiMode.c.cc13x4.ticlang.o (.text.RF_updatePowerupDuration)
                  0001b004    0000003c     embedded_cli.o (.text.embeddedCliAddBinding)
                  0001b040    0000003c     maclib_secure_cc13x4_tirtos7.a : mac_pib.c.o (.text.macMRFSKGetPhyDesc)
                  0001b07c    0000003c                                    : mac_radio.c.o (.text.macRadioSetPanCoordinator)
                  0001b0b8    0000003c                                    : mac_radio.c.o (.text.macRadioSetPanID)
                  0001b0f4    0000003c                                    : mac_rx_onoff.c.o (.text.macRxDisable)
                  0001b130    0000003c                                    : mac_tx.c.o (.text.macTxDecrypt)
                  0001b16c    0000003c                                    : mac_main.c.o (.text.mac_msg_deallocate)
                  0001b1a8    0000003c     sysbios.a : TaskSupport_asm_gcc.s.obj (.text.ti_sysbios_knl_TaskSupport_swap)
                  0001b1e4    0000003c     libc.a : vsnprintf.c.obj (.text.vsnprintf)
                  0001b220    0000003a     collector.o (.text.cllcStartedCB)
                  0001b25a    0000003a     ti_sysbios_config.o (.text.malloc)
                  0001b294    00000038     csf.o (.text.Csf_initializeConfigClock)
                  0001b2cc    00000038     drivers_cc13x4.a : LED.c.obj (.text.LED_setOn)
                  0001b304    00000038     maclib_secure_cc13x4_tirtos7.a : mac_autopend.c.o (.text.MAC_SrcMatchDeleteEntry)
                  0001b33c    00000038     driverlib.lib : aux_sysif.c.obj (.text.NOROM_AUXSYSIFOpModeChange)
                  0001b374    00000038                   : osc.c.obj (.text.NOROM_OSCClockSourceSet)
                  0001b3ac    00000038                   : osc.c.obj (.text.OSCHfSourceSwitch)
                  0001b3e4    00000038     maclib_osal_tirtos7_cc13x4_26x4.a : osal_port.c.o (.text.OsalPort_waitEvent)
                  0001b41c    00000038     drivers_cc13x4.a : Random.c.obj (.text.Random_getNumber)
                  0001b454    00000038                      : RingBuf.c.obj (.text.RingBuf_putAdvance)
                  0001b48c    00000038     ti_sysbios_config.o (.text.SemaphoreP_constructBinary)
                  0001b4c4    00000038     ti_sysbios_config.o (.text.SwiP_setPriority)
                  0001b4fc    00000038     drivers_cc13x4.a : UART2.c.obj (.text.UART2_rxEnable)
                  0001b534    00000038     embedded_cli.o (.text.embeddedCliReceiveChar)
                  0001b56c    00000038     maclib_secure_cc13x4_tirtos7.a : mac_beacon_device.c.o (.text.macBeaconStopTrack)
                  0001b5a4    00000038                                    : mac_data.c.o (.text.macDataRxInd)
                  0001b5dc    00000038                                    : mac_beacon_device.c.o (.text.macIncomingNonSlottedTx)
                  0001b614    00000038                                    : mac_radio.c.o (.text.macRadioNeedAdjustPower)
                  0001b64c    00000038                                    : mac_radio.c.o (.text.macRadioSetIEEEAddr)
                  0001b684    00000038                                    : mac_data.c.o (.text.macRxCheckMACPendingCallback)
                  0001b6bc    00000038                                    : mac_symbol_timer.c.o (.text.macSymbolTimerCount)
                  0001b6f4    00000038                                    : mac_symbol_timer.c.o (.text.macSymbolTimerCreate)
                  0001b72c    00000038                                    : mac_tx.c.o (.text.macTxAckNotReceivedCallback)
                  0001b764    00000038                                    : mac_tx.c.o (.text.macTxFrameRetransmit)
                  0001b79c    00000038                                    : mac_tx.c.o (.text.macTxUpdateIE)
                  0001b7d4    00000038     sysbios.a : Hwi_asm_gcc.s.obj (.text.ti_sysbios_family_arm_v8m_Hwi_excHandlerAsm)
                  0001b80c    00000038     libc.a : autoinit.c.obj (.text:__TI_auto_init_nobinit_nopinit)
                  0001b844    00000036     drivers_cc13x4.a : CryptoUtils.c.obj (.text.CryptoUtils_buffersMatch)
                  0001b87a    00000036     csf.o (.text.Csf_initializeBroadcastClock)
                  0001b8b0    00000036     csf.o (.text.Csf_initializeIdentifyClock)
                  0001b8e6    00000036     csf.o (.text.Csf_initializeTrackingClock)
                  0001b91c    00000036     par.o (.text.par_init)
                  0001b952    00000036     ti_sysbios_config.o (.text.pthread_mutex_unlock)
                  0001b988    00000034     drivers_cc13x4.a : AESCCMCC26X4.c.obj (.text.AESCCM_cleanup)
                  0001b9bc    00000034                      : AESCCMCC26X4.c.obj (.text.AESGetDefaultCCMCtrlValue)
                  0001b9f0    00000034     driverlib.lib : prcm.c.obj (.text.NOROM_PRCMPowerDomainOff)
                  0001ba24    00000034                   : trng.c.obj (.text.NOROM_TRNGConfigure)
                  0001ba58    00000034     maclib_osal_tirtos7_cc13x4_26x4.a : osal_port_timers.c.o (.text.OsalPortTimers_cleanUpTimers)
                  0001ba8c    00000034                                       : osal_port.c.o (.text.OsalPort_registerTask)
                  0001bac0    00000034     drivers_cc13x4.a : PowerCC26X2_calibrateRCOSC_helpers.c.obj (.text.PowerCC26X2_setAclkRefSrc)
                  0001baf4    00000034                      : PowerCC26X2.c.obj (.text.Power_releaseConstraint)
                  0001bb28    00000034     rf_multiMode_cc13x4.a : RFCC26X2_multiMode.c.cc13x4.ticlang.o (.text.RF_powerConstraintRelease)
                  0001bb5c    00000034                           : RFCC26X2_multiMode.c.cc13x4.ticlang.o (.text.RF_runDirectImmediateCmd)
                  0001bb90    00000034     libc.a : fopen.c.obj (.text.__TI_cleanup)
                  0001bbc4    00000034     libsysbm.a : trgmsg.c.obj (.text.__TI_writemsg)
                  0001bbf8    00000034     drivers_cc13x4.a : NVSCC26XX.c.obj (.text.disableFlashCache)
                  0001bc2c    00000034     maclib_secure_cc13x4_tirtos7.a : mac_mgmt.c.o (.text.macApiWSAsyncReq)
                  0001bc60    00000034                                    : mac_duty_cycle.c.o (.text.macDutyCycleUpdateTransmission)
                  0001bc94    00000034                                    : mac_radio.c.o (.text.macRadioPowerUp)
                  0001bcc8    00000034                                    : mac_radio.c.o (.text.macRadioStopScan)
                  0001bcfc    00000034                                    : mac_radio_tx.c.o (.text.macRadioTxGoSlottedCsma)
                  0001bd30    00000034                                    : mac_radio_tx.c.o (.text.macRadioTxPrepGreenPower)
                  0001bd64    00000034                                    : mac_coord.c.o (.text.macRxBeaconReq)
                  0001bd98    00000034                                    : mac_scan.c.o (.text.macScanCnfInit)
                  0001bdcc    00000034                                    : mac_autopend.c.o (.text.macSrcMatchSetEnableBit)
                  0001be00    00000034                                    : mac_autopend.c.o (.text.macSrcMatchSetPendEnBit)
                  0001be34    00000034                                    : mac_symbol_timer.c.o (.text.macSymbolTimerSetTrigger)
                  0001be68    00000034                                    : mac_tx.c.o (.text.macTxAbortIsr)
                  0001be9c    00000034     sysbios.a : boot_cortex_m.c.obj (.text:_c_int00)
                  0001bed0    00000032     maclib_secure_cc13x4_tirtos7.a : mac_autopend.c.o (.text.MAC_SrcMatchSetPend)
                  0001bf02    00000032     ti_sysbios_config.o (.text.SemaphoreP_delete)
                  0001bf34    00000032     ti_sysbios_config.o (.text.ti_sysbios_runtime_System_exit)
                  0001bf66    00000032     ti_sysbios_config.o (.text.ti_sysbios_runtime_System_printf)
                  0001bf98    00000030     drivers_cc13x4.a : AESCCMCC26X4.c.obj (.text.AESCCM_generateIntermediateDigest)
                  0001bfc8    00000030     csf.o (.text.Csf_CLI_closenetwork)
                  0001bff8    00000030     csf.o (.text.Csf_CLI_opennetwork)
                  0001c028    00000030     drivers_cc13x4.a : GPIOCC26XX.c.obj (.text.GPIO_setInterruptConfig)
                  0001c058    00000030     driverlib.lib : aes.c.obj (.text.NOROM_AESStartDMAOperation)
                  0001c088    00000030                   : prcm.c.obj (.text.NOROM_PRCMPowerDomainOn)
                  0001c0b8    00000030                   : sys_ctrl.c.obj (.text.NOROM_SysCtrlIdle)
                  0001c0e8    00000030     drivers_cc13x4.a : NVSCC26XX.c.obj (.text.NVSCC26XX_erase)
                  0001c118    00000030     maclib_osal_tirtos7_cc13x4_26x4.a : osal_port.c.o (.text.OsalPort_msgExtract)
                  0001c148    00000030     drivers_cc13x4.a : PowerCC26X2_helpers.c.obj (.text.PowerCC26X2_oscDisableQualifiers)
                  0001c178    00000030                      : PowerCC26X2_calibrateRCOSC_helpers.c.obj (.text.PowerCC26X2_setTdcClkSrc24M)
                  0001c1a8    00000030     ti_sysbios_config.o (.text.PowerCC26XX_schedulerDisable)
                  0001c1d8    00000030     drivers_cc13x4.a : PowerCC26X2.c.obj (.text.Power_setConstraint)
                  0001c208    00000030     rf_multiMode_cc13x4.a : RFCC26X2_multiMode.c.cc13x4.ticlang.o (.text.RF_checkCmdFsError)
                  0001c238    00000030     libsysbm.a : trgmsg.c.obj (.text.__TI_readmsg)
                  0001c268    00000030     libc.a : vsnprintf.c.obj (.text._outs)
                  0001c298    00000030     embedded_cli.o (.text.embeddedCliNewDefault)
                  0001c2c8    00000030     maclib_secure_cc13x4_tirtos7.a : mac_hl_patch.c.o (.text.macDeviceDescriptorLookup)
                  0001c2f8    00000030                                    : mac_data.c.o (.text.macFrameDurationIeee)
                  0001c328    00000030                                    : mac_tx.c.o (.text.macHandleTxAck)
                  0001c358    00000030                                    : mac_radio.c.o (.text.macRadioLimitTxPower)
                  0001c388    00000030                                    : mac_radio_tx.c.o (.text.macRadioTxPrepCsmaUnslottedIeee)
                  0001c3b8    00000030                                    : mac.c.o (.text.macSetUserConfig)
                  0001c3e8    00000030                                    : mac_timer.c.o (.text.macTimerInit)
                  0001c418    00000030                                    : mac_timer.c.o (.text.macTimerRecalcUnaligned)
                  0001c448    00000030     drivers_cc13x4.a : PowerCC26X2.c.obj (.text.notify)
                  0001c478    00000030     csf.o (.text.processKeyChangeCallback)
                  0001c4a8    0000002e     csf.o (.text.Csf_CLI_formnetwork)
                  0001c4d6    0000002e     rf_multiMode_cc13x4.a : RFCC26X2_multiMode.c.cc13x4.ticlang.o (.text.RF_calculateDeltaTimeUs)
                  0001c504    0000002e     drivers_cc13x4.a : RingBuf.c.obj (.text.RingBuf_getConsume)
                  0001c532    0000002e                      : RingBuf.c.obj (.text.RingBuf_putPointer)
                  0001c560    0000002e     maclib_secure_cc13x4_tirtos7.a : mac_coord.c.o (.text.macRxOrphan)
                  0001c58e    0000002c     ti_sysbios_config.o (.text.ClockP_delete)
                  0001c5ba    0000002c     csf.o (.text.Csf_getDeviceShort)
                  0001c5e6    00000002     --HOLE-- [fill = 0]
                  0001c5e8    0000002c     driverlib.lib : aes.c.obj (.text.NOROM_AESReadFromKeyStore)
                  0001c614    0000002c                   : aes.c.obj (.text.NOROM_AESReadTag)
                  0001c640    0000002c                   : osc.c.obj (.text.NOROM_OSCHF_SwitchToRcOscTurnOffXosc)
                  0001c66c    0000002c                   : udma.c.obj (.text.NOROM_uDMAChannelAttributeDisable)
                  0001c698    0000002c     drivers_cc13x4.a : NVS.c.obj (.text.NVS_init)
                  0001c6c4    0000002c                      : PowerCC26X2_helpers.c.obj (.text.PowerCC26X2_releasePeriphDependency)
                  0001c6f0    0000002c                      : PowerCC26X2_helpers.c.obj (.text.PowerCC26X2_setPeriphDependency)
                  0001c71c    0000002c                      : PowerCC26X2_helpers.c.obj (.text.PowerCC26X2_setSubSecIncToXoscLf)
                  0001c748    0000002c     rf_multiMode_cc13x4.a : RFCC26X2_multiMode.c.cc13x4.ticlang.o (.text.RF_executeDirectImmediateCmd)
                  0001c774    0000002c     drivers_cc13x4.a : TRNGCC26XX.c.obj (.text.TRNGCC26XX_stopTrng)
                  0001c7a0    0000002c                      : UART2CC26X2.c.obj (.text.UART2CC26X2_getRxData)
                  0001c7cc    0000002c                      : UART2CC26X2.c.obj (.text.UART2Support_enableInts)
                  0001c7f8    0000002c     libc.a : getdevice.c.obj (.text.finddevice)
                  0001c824    0000002c     libsysbm.a : lseek.c.obj (.text.lseek)
                  0001c850    0000002c     maclib_secure_cc13x4_tirtos7.a : mac_coord.c.o (.text.macApiAssociateRsp)
                  0001c87c    0000002c                                    : mac_duty_cycle.c.o (.text.macDutyCycleCheck)
                  0001c8a8    0000002c                                    : mac_radio.c.o (.text.macRadioPowerUpWait)
                  0001c8d4    0000002c                                    : mac.c.o (.text.macRatCb_B)
                  0001c900    0000002c                                    : mac.c.o (.text.macRatDisableChannelB)
                  0001c92c    0000002c                                    : mac_rx_onoff.c.o (.text.macRxHardDisable)
                  0001c958    0000002c                                    : mac_mgmt.c.o (.text.macSetDefaultsByRE)
                  0001c984    0000002c                                    : mac_symbol_timer.c.o (.text.macSymbolTimerBCWakeUp)
                  0001c9b0    0000002c                                    : mac_symbol_timer.c.o (.text.macSymbolTimerICallTimerCback)
                  0001c9dc    0000002c                                    : mac_timer.c.o (.text.macTimerAligned)
                  0001ca08    0000002c     rf_multiMode_cc13x4.a : rf_patch_cpe_multi_protocol.c.cc13x4.ticlang.o (.text.rf_patch_cpe_multi_protocol)
                  0001ca34    0000002c     libsysbm.a : unlink.c.obj (.text.unlink)
                  0001ca60    0000002c                : write.c.obj (.text.write)
                  0001ca8c    0000002a     driverlib.lib : ddi.c.obj (.text.NOROM_DDI16BitfieldWrite)
                  0001cab6    00000002     --HOLE-- [fill = 0]
                  0001cab8    0000002a     maclib_osal_tirtos7_cc13x4_26x4.a : osal_port.c.o (.text.OsalPort_buildUint32)
                  0001cae2    0000002a     drivers_cc13x4.a : TRNGCC26XX.c.obj (.text.TRNG_generateKey)
                  0001cb0c    0000002a                      : UART2CC26X2.c.obj (.text.UART2Support_powerRelConstraint)
                  0001cb36    0000002a     maclib_secure_cc13x4_tirtos7.a : mac_radio.c.o (.text.macRadioComputeLQI)
                  0001cb60    0000002a                                    : mac_radio.c.o (.text.radioComputeED)
                  0001cb8a    00000028     drivers_cc13x4.a : List.c.obj (.text.List_remove)
                  0001cbb2    00000002     --HOLE-- [fill = 0]
                  0001cbb4    00000028     maclib_secure_cc13x4_tirtos7.a : mac_security_pib.c.o (.text.MAC_MlmeGetPointerSecurityReq)
                  0001cbdc    00000028     driverlib.lib : aon_batmon.c.obj (.text.NOROM_AONBatMonTemperatureGetDegC)
                  0001cc04    00000028                   : aon_event.c.obj (.text.NOROM_AONEventMcuWakeUpSet)
                  0001cc2c    00000028                   : osc.c.obj (.text.NOROM_OSCClockSourceGet)
                  0001cc54    00000028     maclib_osal_tirtos7_cc13x4_26x4.a : osal_port.c.o (.text.OsalPort_heapGetStats)
                  0001cc7c    00000028                                       : osal_port.c.o (.text.OsalPort_msgEnqueue)
                  0001cca4    00000028     drivers_cc13x4.a : PowerCC26X2.c.obj (.text.PowerCC26XX_isStableXOSC_HF)
                  0001cccc    00000028     rf_multiMode_cc13x4.a : RFCC26X2_multiMode.c.cc13x4.ticlang.o (.text.RF_cmdStoreEvents)
                  0001ccf4    00000028     maclib_secure_cc13x4_tirtos7.a : mac_pib.c.o (.text.macPibReset)
                  0001cd1c    00000028                                    : mac_rx_onoff.c.o (.text.macRxOff)
                  0001cd44    00000028                                    : mac.c.o (.text.macSetTxPowerVal)
                  0001cd6c    00000028                                    : mac_tx.c.o (.text.macTxInit)
                  0001cd94    00000028     libc.a : memmov.c.obj (.text.memmove)
                  0001cdbc    00000028     mac_user_config.o (.text.rfSelect)
                  0001cde4    00000028     ti_sysbios_config.o (.text.ti_sysbios_knl_Task_construct)
                  0001ce0c    00000026     ti_sysbios_config.o (.text.ClockP_getSystemTicks)
                  0001ce32    00000026     drivers_cc13x4.a : List.c.obj (.text.List_insert)
                  0001ce58    00000026     maclib_osal_tirtos7_cc13x4_26x4.a : osal_port.c.o (.text.OsalPort_msgDequeue)
                  0001ce7e    00000026     drivers_cc13x4.a : UART2CC26X2.c.obj (.text.UART2Support_powerSetConstraint)
                  0001cea4    00000026     maclib_secure_cc13x4_tirtos7.a : mac_low_level.c.o (.text.macLowLevelDiags)
                  0001ceca    00000026     collector.o (.text.pollIndCB)
                  0001cef0    00000026     maclib_secure_cc13x4_tirtos7.a : saddr.c.o (.text.sAddrCmp)
                  0001cf16    00000024     drivers_cc13x4.a : AESCCMCC26X4.c.obj (.text.AESCCM_setOperationInProgress)
                  0001cf3a    00000024                      : List.c.obj (.text.List_put)
                  0001cf5e    00000024                      : List.c.obj (.text.List_putHead)
                  0001cf82    00000002     --HOLE-- [fill = 0]
                  0001cf84    00000024     driverlib.lib : aes.c.obj (.text.NOROM_AESWaitForIRQFlags)
                  0001cfa8    00000024                   : prcm.c.obj (.text.NOROM_PRCMPeripheralDeepSleepDisable)
                  0001cfcc    00000024                   : prcm.c.obj (.text.NOROM_PRCMPeripheralRunDisable)
                  0001cff0    00000024                   : prcm.c.obj (.text.NOROM_PRCMPeripheralSleepDisable)
                  0001d014    00000024                   : uart.c.obj (.text.NOROM_UARTConfigSetExpClk)
                  0001d038    00000024     maclib_osal_tirtos7_cc13x4_26x4.a : osal_port.c.o (.text.OsalPort_msgAllocate)
                  0001d05c    00000024     drivers_cc13x4.a : PowerCC26X2.c.obj (.text.Power_registerNotify)
                  0001d080    00000024     rf_multiMode_cc13x4.a : RFCC26X2_multiMode.c.cc13x4.ticlang.o (.text.RF_clkPowerUp)
                  0001d0a4    00000024                           : RFCC26X2_multiMode.c.cc13x4.ticlang.o (.text.RF_hwiCpe0ChangePhy)
                  0001d0c8    00000024                           : RFCC26X2_multiMode.c.cc13x4.ticlang.o (.text.RF_isStateTransitionAllowed)
                  0001d0ec    00000024                           : RFCC26X2_multiMode.c.cc13x4.ticlang.o (.text.RF_searchAndReplacePAOverride)
                  0001d110    00000024     ti_sysbios_config.o (.text.SemaphoreP_destruct)
                  0001d134    00000024     embedded_cli.o (.text.embeddedCliGetTokenCount)
                  0001d158    00000024     maclib_secure_cc13x4_tirtos7.a : mac_mgmt.c.o (.text.macApiPending)
                  0001d17c    00000024                                    : mac_mgmt.c.o (.text.macCoordAddrCmp)
                  0001d1a0    00000024                                    : mac_radio.c.o (.text.macRadioSwInit)
                  0001d1c4    00000024                                    : mac.c.o (.text.macRatCb_A)
                  0001d1e8    00000024                                    : mac_rx_onoff.c.o (.text.macRxSoftDisable)
                  0001d20c    00000024                                    : mac_rx_onoff.c.o (.text.macRxSoftEnable)
                  0001d230    00000024                                    : mac.c.o (.text.macSetCurrChan)
                  0001d254    00000024                                    : mac_coord.c.o (.text.macStartComplete)
                  0001d278    00000024                                    : mac_symbol_timer.c.o (.text.macSymbolTimerRestore)
                  0001d29c    00000024                                    : mac_symbol_timer.c.o (.text.macSymbolTimerSetRollover)
                  0001d2c0    00000022     drivers_cc13x4.a : AESCCMCC26X4.c.obj (.text.AESCCM_setLengths)
                  0001d2e2    00000022                      : LED.c.obj (.text.LED_stopBlinking)
                  0001d304    00000022                      : List.c.obj (.text.List_get)
                  0001d326    00000022     ti_sysbios_config.o (.text.PowerCC26XX_schedulerRestore)
                  0001d348    00000022     rf_multiMode_cc13x4.a : RFCC26X2_multiMode.c.cc13x4.ticlang.o (.text.RF_queueEnd)
                  0001d36a    00000022     drivers_cc13x4.a : RingBuf.c.obj (.text.RingBuf_getPointer)
                  0001d38c    00000022                      : UART2CC26X2.c.obj (.text.UART2Support_sendData)
                  0001d3ae    00000022                      : UART2.c.obj (.text.UART2_read)
                  0001d3d0    00000022     crc.o (.text.crc_update)
                  0001d3f2    00000022     cllc.o (.text.dataIndCb)
                  0001d414    00000022     drivers_cc13x4.a : Button.c.obj (.text.msToTicks)
                  0001d436    00000022     csf.o (.text.processBroadcastTimeoutCallback)
                  0001d458    00000022     csf.o (.text.processConfigTimeoutCallback)
                  0001d47a    00000022     csf.o (.text.processTrackingTimeoutCallback)
                  0001d49c    00000022     maclib_secure_cc13x4_tirtos7.a : saddr.c.o (.text.sAddrExtCmp)
                  0001d4be    00000022     bindings.o (.text.setWatchsTime)
                  0001d4e0    00000022     sysbios.a : Hwi_asm_switch_gcc.s.obj (.text.ti_sysbios_family_arm_v8m_Hwi_switchAndRunFunc)
                  0001d502    00000022     console.o (.text.writeChar)
                  0001d524    00000020     cllc.o (.text.Cllc_setChanMask)
                  0001d544    00000020     maclib_secure_cc13x4_tirtos7.a : mac_hl_patch.c.o (.text.MAC_AbortScan)
                  0001d564    00000020     driverlib.lib : prcm.c.obj (.text.NOROM_PRCMPeripheralDeepSleepEnable)
                  0001d584    00000020                   : prcm.c.obj (.text.NOROM_PRCMPeripheralRunEnable)
                  0001d5a4    00000020                   : prcm.c.obj (.text.NOROM_PRCMPeripheralSleepEnable)
                  0001d5c4    00000020     rf_multiMode_cc13x4.a : rfc.c.cc13x4.ticlang.o (.text.NOROM_RFCDoorbellSendTo)
                  0001d5e4    00000020                           : rfc.c.cc13x4.ticlang.o (.text.NOROM_RFCOverrideSearch)
                  0001d604    00000020     driverlib.lib : setup_rom.c.obj (.text.NOROM_SetupGetTrimForXoscHfCtl)
                  0001d624    00000020                   : setup_rom.c.obj (.text.NOROM_SetupSetAonRtcSubSecInc)
                  0001d644    00000020                   : chipinfo.c.obj (.text.NOROM_ThisLibraryIsFor_CC13x4_CC26x4_HaltIfViolated)
                  0001d664    00000020     drivers_cc13x4.a : PowerCC26X2_helpers.c.obj (.text.PowerCC26X2_disableTCXOQual)
                  0001d684    00000020                      : PowerCC26X2_helpers.c.obj (.text.PowerCC26X2_enableTCXOQual)
                  0001d6a4    00000020                      : PowerCC26X2.c.obj (.text.Power_unregisterNotify)
                  0001d6c4    00000020     rf_multiMode_cc13x4.a : RFCC26X2_multiMode.c.cc13x4.ticlang.o (.text.RF_cmdAlloc)
                  0001d6e4    00000020                           : RFCC26X2_multiMode.c.cc13x4.ticlang.o (.text.RF_getRssi)
                  0001d704    00000020                           : RFCC26X2_multiMode.c.cc13x4.ticlang.o (.text.RF_invokeGlobalCallback)
                  0001d724    00000020                           : RFCC26X2_multiMode.c.cc13x4.ticlang.o (.text.RF_ratIsRunning)
                  0001d744    00000020                           : RFCC26X2_multiMode.c.cc13x4.ticlang.o (.text.RF_setTxPower)
                  0001d764    00000020     maclib_secure_cc13x4_tirtos7.a : mac_radio.c.o (.text.macGetRadioState)
                  0001d784    00000020                                    : mac_mcu.c.o (.text.macMcuTimerCapture)
                  0001d7a4    00000020                                    : mac_hl_patch.c.o (.text.macPibIndex)
                  0001d7c4    00000020                                    : mac_radio.c.o (.text.macRadioSetShortAddr)
                  0001d7e4    00000020                                    : mac_data.c.o (.text.macRxCheckPendingCallback)
                  0001d804    00000020                                    : mac_rx_onoff.c.o (.text.macRxEnable)
                  0001d824    00000020                                    : mac_rx_onoff.c.o (.text.macRxOnOffInit)
                  0001d844    00000020                                    : mac_rx.c.o (.text.macRxSFDTimerExpiry)
                  0001d864    00000020                                    : mac_symbol_timer.c.o (.text.macSymbolTimerSetTriggerRollover)
                  0001d884    00000020                                    : mac_timer.c.o (.text.macTimer)
                  0001d8a4    00000020     par.o (.text.par_erase)
                  0001d8c4    00000020     ti_sysbios_config.o (.text.pthread_attr_init)
                  0001d8e4    0000001e     ti_sysbios_config.o (.text.BIOS_rtsLock)
                  0001d902    0000001e     maclib_osal_tirtos7_cc13x4_26x4.a : osal_port.c.o (.text.OsalPort_msgDeallocate)
                  0001d920    0000001e     drivers_cc13x4.a : UART2.c.obj (.text.UART2_writeTimeout)
                  0001d93e    00000002     --HOLE-- [fill = 0]
                  0001d940    0000001e     libclang_rt.builtins.a : ashldi3.S.obj (.text.__ashldi3)
                  0001d95e    0000001e     ti_sysbios_config.o (.text.free)
                  0001d97c    0000001e     maclib_secure_cc13x4_tirtos7.a : mac_scan.c.o (.text.macScanFailedInProgress)
                  0001d99a    0000001e     libc.a : memccpy.c.obj (.text.memccpy)
                  0001d9b8    0000001c     ti_sysbios_config.o (.text.ClockP_destruct)
                  0001d9d4    0000001c     drivers_cc13x4.a : GPIOCC26XX.c.obj (.text.GPIO_read)
                  0001d9f0    0000001c                      : GPIO.c.obj (.text.GPIO_setCallback)
                  0001da0c    0000001c     ti_sysbios_config.o (.text.HwiP_setPriority)
                  0001da28    0000001c     driverlib.lib : ddi.c.obj (.text.NOROM_DDI16BitfieldRead)
                  0001da44    0000001c                   : osc.c.obj (.text.NOROM_OSCHF_TurnOnXosc)
                  0001da60    0000001c                   : prcm.c.obj (.text.NOROM_PRCMDeepSleep)
                  0001da7c    0000001c                   : sys_ctrl.c.obj (.text.NOROM_SysCtrlResetSourceGet)
                  0001da98    0000001c     nvocmp.o (.text.NVOCMP_expectCompApi)
                  0001dab4    0000001c     maclib_osal_tirtos7_cc13x4_26x4.a : osal_port.c.o (.text.OsalPort_memcmp)
                  0001dad0    0000001c     drivers_cc13x4.a : PowerCC26X2_helpers.c.obj (.text.PowerCC26X2_getOscHfSourceReady)
                  0001daec    0000001c                      : PowerCC26X2_calibrateRCOSC_helpers.c.obj (.text.PowerCC26X2_writeCtrim)
                  0001db08    0000001c                      : PowerCC26X2_calibrateRCOSC_helpers.c.obj (.text.PowerCC26X2_writeCtrimFract)
                  0001db24    0000001c                      : PowerCC26X2_calibrateRCOSC_helpers.c.obj (.text.PowerCC26X2_writeCtrimFractEn)
                  0001db40    0000001c                      : PowerCC26X2_calibrateRCOSC_helpers.c.obj (.text.PowerCC26X2_writeRtrim)
                  0001db5c    0000001c                      : PowerCC26X2.c.obj (.text.Power_getTransitionLatency)
                  0001db78    0000001c     rf_multiMode_cc13x4.a : RFCC26X2_multiMode.c.cc13x4.ticlang.o (.text.RF_clkInactivityCallback)
                  0001db94    0000001c                           : RFCC26X2_multiMode.c.cc13x4.ticlang.o (.text.RF_getPAOverrideOffsetAndValue)
                  0001dbb0    0000001c                           : RFCC26X2_multiMode.c.cc13x4.ticlang.o (.text.RF_powerConstraintSet)
                  0001dbcc    0000001c                           : RFCC26X2_multiMode.c.cc13x4.ticlang.o (.text.RF_swiFsm)
                  0001dbe8    0000001c     ti_sysbios_config.o (.text.SwiP_destruct)
                  0001dc04    0000001c     bindings.o (.text.eraseDevInfo)
                  0001dc20    0000001c     maclib_secure_cc13x4_tirtos7.a : mac_data.c.o (.text.macDataRxMemAlloc)
                  0001dc3c    0000001c                                    : mac_mcu.c.o (.text.macMcuOverflowCapture)
                  0001dc58    0000001c                                    : mac.c.o (.text.macNopBackoffTimerExpiry)
                  0001dc74    0000001c                                    : mac_radio.c.o (.text.macRadioSelectConfig)
                  0001dc90    0000001c                                    : mac_rx.c.o (.text.macRxAckTxDoneCallback)
                  0001dcac    0000001c                                    : mac_symbol_timer.c.o (.text.macSymbolTimerPowerDown)
                  0001dcc8    0000001c     drivers_cc13x4.a : NVSCC26XX.c.obj (.text.restoreFlashCache)
                  0001dce4    0000001c     maclib_secure_cc13x4_tirtos7.a : mac_rx.c.o (.text.rxDone)
                  0001dd00    0000001c     ti_sysbios_config.o (.text.ti_sysbios_knl_Task_Params_init)
                  0001dd1c    0000001a     ti_sysbios_config.o (.text.BIOS_rtsUnlock)
                  0001dd36    0000001a     cllc.o (.text.Cllc_securityFill)
                  0001dd50    0000001a     drivers_cc13x4.a : LED.c.obj (.text.LED_toggle)
                  0001dd6a    0000001a     macTask.o (.text.MAC_CbackCheckPending)
                  0001dd84    0000001a     macTask.o (.text.MAC_CbackQueryRetransmit)
                  0001dd9e    0000001a     driverlib.lib : uart.c.obj (.text.NOROM_UARTDisable)
                  0001ddb8    0000001a                   : udma.c.obj (.text.NOROM_uDMAChannelSizeGet)
                  0001ddd2    0000001a     maclib_osal_tirtos7_cc13x4_26x4.a : osal_port.c.o (.text.OsalPort_msgPush)
                  0001ddec    0000001a     api_mac.o (.text.copyApiMacAddrToMacAddr)
                  0001de06    0000001a     maclib_secure_cc13x4_tirtos7.a : mac_hl_patch.c.o (.text.macCheckPhyMode)
                  0001de20    0000001a     ti_sysbios_config.o (.text.ti_sysbios_knl_Idle_loop)
                  0001de3a    00000002     --HOLE-- [fill = 0]
                  0001de3c    00000018     driverlib.lib : aes.c.obj (.text.AESWriteKey3)
                  0001de54    00000018     drivers_cc13x4.a : CryptoUtils.c.obj (.text.CryptoUtils_memset)
                  0001de6c    00000018                      : GPIOCC26XX.c.obj (.text.GPIO_disableInt)
                  0001de84    00000018     maclib_secure_cc13x4_tirtos7.a : mac_mgmt.c.o (.text.MAC_EnableFH)
                  0001de9c    00000018     driverlib.lib : aes.c.obj (.text.NOROM_AESSetInitializationVector)
                  0001deb4    00000018                   : trng.c.obj (.text.NOROM_TRNGNumberGet)
                  0001decc    00000018     drivers_cc13x4.a : NVSCC26XX.c.obj (.text.NVSCC26XX_getAttrs)
                  0001dee4    00000018                      : NVSCC26XX.c.obj (.text.NVSCC26XX_lock)
                  0001defc    00000018                      : PowerCC26X2.c.obj (.text.PowerCC26XX_calibrate)
                  0001df14    00000018                      : PowerCC26X2.c.obj (.text.Power_idleFunc)
                  0001df2c    00000018     rf_multiMode_cc13x4.a : RFCC26X2_multiMode.c.cc13x4.ticlang.o (.text.RF_ScheduleCmdParams_init)
                  0001df44    00000018                           : RFCC26X2_multiMode.c.cc13x4.ticlang.o (.text.RF_cancelCmd)
                  0001df5c    00000018                           : RFCC26X2_multiMode.c.cc13x4.ticlang.o (.text.RF_restartClockTimeout)
                  0001df74    00000018     ti_sysbios_config.o (.text.SwiP_or)
                  0001df8c    00000018     maclib_osal_tirtos7_cc13x4_26x4.a : mac_util.c.o (.text.Util_clearEvent)
                  0001dfa4    00000018                                       : mac_util.c.o (.text.Util_setEvent)
                  0001dfbc    00000018     libc.a : vsnprintf.c.obj (.text._outc)
                  0001dfd4    00000018     maclib_secure_cc13x4_tirtos7.a : mac_beacon.c.o (.text.macBeaconReset)
                  0001dfec    00000018                                    : mac_data.c.o (.text.macFrameDuration)
                  0001e004    00000018                                    : mac_mgmt.c.o (.text.macGetMyAddrMode)
                  0001e01c    00000018                                    : mac_radio.c.o (.text.macRadioInit)
                  0001e034    00000018                                    : mac_radio_tx.c.o (.text.macRadioTxPrepCsmaSlotted)
                  0001e04c    00000018                                    : mac_radio_tx.c.o (.text.macRadioTxPrepCsmaUnslotted)
                  0001e064    00000018                                    : mac.c.o (.text.macSendReceiveCmd)
                  0001e07c    00000018                                    : mac_symbol_timer.c.o (.text.macSymbolTimerRealign)
                  0001e094    00000018                                    : mac_hl_patch.c.o (.text.macWrapper8ByteUnused)
                  0001e0ac    00000018     sysbios.a : TaskSupport_asm_gcc.s.obj (.text.ti_sysbios_knl_TaskSupport_glue)
                  0001e0c4    00000018     maclib_secure_cc13x4_tirtos7.a : mac_tx.c.o (.text.txCsmaGo)
                  0001e0dc    00000018     drivers_cc13x4.a : UART2CC26X2.c.obj (.text.uartDmaDisable)
                  0001e0f4    00000018                      : UART2CC26X2.c.obj (.text.uartDmaEnable)
                  0001e10c    00000016     ti_drivers_config.o (.text.Board_init)
                  0001e122    00000016     ti_sysbios_config.o (.text.ClockP_start)
                  0001e138    00000016     ti_sysbios_config.o (.text.HwiP_interruptsEnabled)
                  0001e14e    00000016     drivers_cc13x4.a : List.c.obj (.text.List_clearList)
                  0001e164    00000016     rf_multiMode_cc13x4.a : RFCC26X2_multiMode.c.cc13x4.ticlang.o (.text.RF_ratCompare)
                  0001e17a    00000016     drivers_cc13x4.a : TRNGCC26XX.c.obj (.text.TRNGCC26XX_startJob)
                  0001e190    00000016     maclib_secure_cc13x4_tirtos7.a : mac_radio.c.o (.text.macRadioSetTxPower)
                  0001e1a6    00000016                                    : mac_timer.c.o (.text.macTimerRemoveTimer)
                  0001e1bc    00000016     bindings.o (.text.onCloseNWK)
                  0001e1d2    00000016     bindings.o (.text.onFormNWK)
                  0001e1e8    00000016     bindings.o (.text.onOpenNWK)
                  0001e1fe    00000002     --HOLE-- [fill = 0]
                  0001e200    00000014     drivers_cc13x4.a : AESCCMCC26X4.c.obj (.text.AESCCM_init)
                  0001e214    00000014     api_mac.o (.text.ApiMac_mlmeSetReqBool)
                  0001e228    00000014     api_mac.o (.text.ApiMac_mlmeSetReqUint16)
                  0001e23c    00000014     api_mac.o (.text.ApiMac_mlmeSetReqUint8)
                  0001e250    00000014     api_mac.o (.text.ApiMac_mlmeSetSecurityReqUint16)
                  0001e264    00000014     cllc.o (.text.Cllc_securityCheck)
                  0001e278    00000014     csf.o (.text.Csf_openNwk)
                  0001e28c    00000014     ti_sysbios_config.o (.text.HwiP_post)
                  0001e2a0    00000014     ti_sysbios_config.o (.text.HwiP_setFunc)
                  0001e2b4    00000014     maclib_secure_cc13x4_tirtos7.a : mac_autopend.c.o (.text.MAC_SrcMatchCheckAllPending)
                  0001e2c8    00000014     driverlib.lib : aon_rtc.c.obj (.text.NOROM_AONRTCCurrent64BitValueGet)
                  0001e2dc    00000014                   : setup_rom.c.obj (.text.NOROM_SetupGetTrimForRcOscLfRtuneCtuneTrim)
                  0001e2f0    00000014     rf_multiMode_cc13x4.a : RFCC26X2_multiMode.c.cc13x4.ticlang.o (.text.RF_dbellSyncOnAck)
                  0001e304    00000014                           : RFCC26X2_multiMode.c.cc13x4.ticlang.o (.text.RF_flushCmd)
                  0001e318    00000014     drivers_cc13x4.a : TRNGCC26XX.c.obj (.text.TRNG_close)
                  0001e32c    00000014                      : UART2CC26X2.c.obj (.text.UART2CC26X2_postNotifyFxn)
                  0001e340    00000014     libclang_rt.builtins.a : aeabi_uldivmod.S.obj (.text.__aeabi_uldivmod)
                  0001e354    00000014     libc.a : args_main.c.obj (.text._args_main)
                  0001e368    00000014     maclib_secure_cc13x4_tirtos7.a : mac_mgmt.c.o (.text.macConflictSyncLossInd)
                  0001e37c    00000014                                    : mac_data.c.o (.text.macDataSend)
                  0001e390    00000014                                    : mac_main.c.o (.text.macMainReserve)
                  0001e3a4    00000014                                    : mac_rx_onoff.c.o (.text.macRxOnRequest)
                  0001e3b8    00000014                                    : mac_main.c.o (.text.macStateIdleOrPolling)
                  0001e3cc    00000014                                    : mac_main.c.o (.text.macStateScanning)
                  0001e3e0    00000014                                    : mac_symbol_timer.c.o (.text.macSymbolSetupPwrMgmt)
                  0001e3f4    00000014                                    : mac_mgmt.c.o (.text.macWSAsyncCnf)
                  0001e408    00000014     libc.a : fwrite.c.obj (.text.memchr)
                  0001e41c    00000014     maclib_secure_cc13x4_tirtos7.a : mac_rx.c.o (.text.rxDiscardFrame)
                  0001e430    00000014     drivers_cc13x4.a : Button.c.obj (.text.timediff)
                  0001e444    00000012     ti_sysbios_config.o (.text.ClockP_getCpuFreq)
                  0001e456    00000012     csf.o (.text.Csf_closeNwk)
                  0001e468    00000012     main.o (.text.Main_excHandler)
                  0001e47a    00000012     driverlib.lib : uart.c.obj (.text.NOROM_UARTCharPutNonBlocking)
                  0001e48c    00000012     drivers_cc13x4.a : NVS.c.obj (.text.NVS_write)
                  0001e49e    00000012     rf_multiMode_cc13x4.a : RFCC26X2_multiMode.c.cc13x4.ticlang.o (.text.RF_getCmdOp)
                  0001e4b0    00000012     drivers_cc13x4.a : StructRingBuf.c.obj (.text.StructRingBuf_construct)
                  0001e4c2    00000012     ti_sysbios_config.o (.text._pthread_runStub)
                  0001e4d4    00000012     main.o (.text.assertHandler)
                  0001e4e6    00000012     cllc.o (.text.commStatusIndCb)
                  0001e4f8    00000012     maclib_secure_cc13x4_tirtos7.a : mac_data.c.o (.text.macCheckSched)
                  0001e50a    00000012                                    : mac_symbol_timer.c.o (.text.macSymbolTimerCompareIsr)
                  0001e51c    00000012     ti_sysbios_config.o (.text.pthread_attr_setschedparam)
                  0001e52e    00000012     maclib_secure_cc13x4_tirtos7.a : saddr.c.o (.text.sAddrCpy)
                  0001e540    00000012     ti_sysbios_config.o (.text.ti_sysbios_family_arm_v8m_cc26x4_Timer_dynamicStub)
                  0001e552    00000012     ti_sysbios_config.o (.text.ti_sysbios_knl_Mailbox_Params_init)
                  0001e564    00000012     maclib_secure_cc13x4_tirtos7.a : mac_tx.c.o (.text.txLbtPrep)
                  0001e576    00000012     libc.a : memcpy_t2.S.obj (.text:TI_memcpy_small)
                  0001e588    00000010     drivers_cc13x4.a : AESCCM.c.obj (.text.AESCCM_Params_init)
                  0001e598    00000010                      : AESCCM.c.obj (.text.AESCCM_open)
                  0001e5a8    00000010                      : Button.c.obj (.text.Button_Params_init)
                  0001e5b8    00000010                      : GPIOCC26XX.c.obj (.text.GPIO_write)
                  0001e5c8    00000010     ti_sysbios_config.o (.text.HwiP_Params_init)
                  0001e5d8    00000010     maclib_secure_cc13x4_tirtos7.a : mac_autopend.c.o (.text.MAC_SrcMatchSetManualAddressTracking)
                  0001e5e8    00000010     driverlib.lib : ioc.c.obj (.text.NOROM_IOCPortConfigureSet)
                  0001e5f8    00000010     rf_multiMode_cc13x4.a : rfc.c.cc13x4.ticlang.o (.text.NOROM_RFCCpeIntGetAndClear)
                  0001e608    00000010                           : rfc.c.cc13x4.ticlang.o (.text.NOROM_RFCHwIntGetAndClear)
                  0001e618    00000010     driverlib.lib : vims.c.obj (.text.NOROM_VIMSModeGet)
                  0001e628    00000010     drivers_cc13x4.a : AESCCMCC26X4.c.obj (.text.OUTLINED_FUNCTION_0)
                  0001e638    00000010                      : GPIOCC26XX.c.obj (.text.OUTLINED_FUNCTION_0)
                  0001e648    00000010     maclib_secure_cc13x4_tirtos7.a : mac_mgmt.c.o (.text.OUTLINED_FUNCTION_0)
                  0001e658    00000010                                    : mac_tx.c.o (.text.OUTLINED_FUNCTION_1)
                  0001e668    00000010                                    : mac_hl_patch.c.o (.text.OUTLINED_FUNCTION_3)
                  0001e678    00000010     rf_multiMode_cc13x4.a : RFCC26X2_multiMode.c.cc13x4.ticlang.o (.text.OUTLINED_FUNCTION_3)
                  0001e688    00000010     maclib_osal_tirtos7_cc13x4_26x4.a : osal_port.c.o (.text.OsalPort_memcpy)
                  0001e698    00000010     drivers_cc13x4.a : PWM.c.obj (.text.PWM_Params_init)
                  0001e6a8    00000010                      : PowerCC26X2_helpers.c.obj (.text.PowerCC26X2_oscCtlClearXtal)
                  0001e6b8    00000010                      : PowerCC26X2_helpers.c.obj (.text.PowerCC26X2_prcmEnableCacheRetention)
                  0001e6c8    00000010                      : PowerCC26X2_calibrateRCOSC_helpers.c.obj (.text.PowerCC26X2_readCtrim)
                  0001e6d8    00000010                      : PowerCC26X2_calibrateRCOSC_helpers.c.obj (.text.PowerCC26X2_readCtrimFract)
                  0001e6e8    00000010                      : PowerCC26X2_calibrateRCOSC_helpers.c.obj (.text.PowerCC26X2_readRtrim)
                  0001e6f8    00000010                      : PowerCC26X2_helpers.c.obj (.text.PowerCC26X2_switchToTCXO)
                  0001e708    00000010                      : RingBuf.c.obj (.text.RingBuf_construct)
                  0001e718    00000010     ti_sysbios_config.o (.text.SwiP_Params_init)
                  0001e728    00000010     ti_sysbios_config.o (.text.SwiP_disable)
                  0001e738    00000010     drivers_cc13x4.a : UART2CC26X2.c.obj (.text.UART2Support_txDone)
                  0001e748    00000010     maclib_secure_cc13x4_tirtos7.a : mac_data.c.o (.text.macDataTxTimeAvailable)
                  0001e758    00000010                                    : mac_coord.c.o (.text.macRxPanConflict)
                  0001e768    00000010                                    : mac_main.c.o (.text.macSetEvent16)
                  0001e778    00000010                                    : mac_main.c.o (.text.macSetEvent)
                  0001e788    00000010     ti_sysbios_config.o (.text.pthread_mutexattr_init)
                  0001e798    00000010     ti_sysbios_config.o (.text.ti_sysbios_family_arm_v8m_Hwi_excHandler)
                  0001e7a8    00000010     libc.a : copy_zero_init.c.obj (.text:decompress:ZI)
                  0001e7b8    0000000e     drivers_cc13x4.a : AESCCMCC26X4.c.obj (.text.AESCCM_close)
                  0001e7c6    0000000e     csf.o (.text.Csf_PostAppSem)
                  0001e7d4    0000000e     csf.o (.text.Csf_deviceSensorDataUpdate)
                  0001e7e2    0000000e     drivers_cc13x4.a : LED.c.obj (.text.LED_Params_init)
                  0001e7f0    0000000e                      : NVS.c.obj (.text.NVS_read)
                  0001e7fe    0000000e                      : PowerCC26X2.c.obj (.text.OUTLINED_FUNCTION_0)
                  0001e80c    0000000e     rf_multiMode_cc13x4.a : RFCC26X2_multiMode.c.cc13x4.ticlang.o (.text.OUTLINED_FUNCTION_0)
                  0001e81a    0000000e                           : RFCC26X2_multiMode.c.cc13x4.ticlang.o (.text.OUTLINED_FUNCTION_4)
                  0001e828    0000000e                           : RFCC26X2_multiMode.c.cc13x4.ticlang.o (.text.RF_RatConfigCompare_init)
                  0001e836    0000000e     drivers_cc13x4.a : StructRingBuf.c.obj (.text.StructRingBuf_isFull)
                  0001e844    0000000e                      : UART2.c.obj (.text.UART2_write)
                  0001e852    0000000e     maclib_osal_tirtos7_cc13x4_26x4.a : mac_util.c.o (.text.Util_buildUint32)
                  0001e860    0000000e     collector.o (.text.cllcStateChangedCB)
                  0001e86e    0000000e     maclib_secure_cc13x4_tirtos7.a : mac_low_level.c.o (.text.macLowLevelBufferInit)
                  0001e87c    0000000e                                    : mac_low_level.c.o (.text.macLowLevelReset)
                  0001e88a    0000000e                                    : mac_low_level.c.o (.text.macLowLevelResume)
                  0001e898    0000000e     csf.o (.text.processIdentifyTimeoutCallback)
                  0001e8a6    0000000e     ti_sysbios_config.o (.text.pthread_self)
                  0001e8b4    0000000e     ti_sysbios_config.o (.text.sem_wait)
                  0001e8c2    0000000e     libsysbm.a : hostrename.c.obj (.text.strcpy)
                  0001e8d0    0000000e     libc.a : _printfi.c.obj (.text.strlen)
                  0001e8de    0000000e     libsysbm.a : hostrename.c.obj (.text.strlen)
                  0001e8ec    0000000e     drivers_cc13x4.a : PowerCC26X2.c.obj (.text.switchToTCXO)
                  0001e8fa    0000000e     ti_sysbios_config.o (.text.ti_sysbios_knl_Clock_tick)
                  0001e908    0000000e     libc.a : memset_t2.S.obj (.text:TI_memset_small)
                  0001e916    0000000e            : copy_decompress_none.c.obj (.text:decompress:none)
                  0001e924    0000000c     api_mac.o (.text.ApiMac_registerCallbacks)
                  0001e930    0000000c     ti_sysbios_config.o (.text.BIOS_linkedWithIncorrectBootLibrary)
                  0001e93c    0000000c     ti_sysbios_config.o (.text.BIOS_start)
                  0001e948    0000000c     drivers_cc13x4.a : CryptoKeyPlaintext.c.obj (.text.CryptoKeyPlaintext_initBlankKey)
                  0001e954    0000000c                      : CryptoKeyPlaintext.c.obj (.text.CryptoKeyPlaintext_initKey)
                  0001e960    0000000c     csf.o (.text.Csf_isConfigTimerActive)
                  0001e96c    0000000c     csf.o (.text.Csf_isTrackingTimerActive)
                  0001e978    0000000c     ti_sysbios_config.o (.text.HwiP_disable)
                  0001e984    0000000c     maclib_secure_cc13x4_tirtos7.a : mac_autopend.c.o (.text.MAC_SrcMatchCheckManualAddressTracking)
                  0001e990    0000000c     driverlib.lib : osc.c.obj (.text.NOROM_OSC_HPOSCRelativeFrequencyOffsetToRFCoreFormatConvert)
                  0001e99c    0000000c     drivers_cc13x4.a : NVSCC26XX.c.obj (.text.NVSCC26XX_unlock)
                  0001e9a8    0000000c                      : UART2CC26X2.c.obj (.text.OUTLINED_FUNCTION_0)
                  0001e9b4    0000000c     maclib_secure_cc13x4_tirtos7.a : mac.c.o (.text.OUTLINED_FUNCTION_0)
                  0001e9c0    0000000c                                    : mac_radio_tx.c.o (.text.OUTLINED_FUNCTION_0)
                  0001e9cc    0000000c                                    : mac_hl_patch.c.o (.text.OUTLINED_FUNCTION_2)
                  0001e9d8    0000000c     maclib_osal_tirtos7_cc13x4_26x4.a : osal_port_timers.c.o (.text.OsalPortTimers_registerCleanupEvent)
                  0001e9e4    0000000c                                       : osal_port.c.o (.text.OsalPort_stopTimer)
                  0001e9f0    0000000c     drivers_cc13x4.a : PowerCC26X2.c.obj (.text.Power_getConstraintMask)
                  0001e9fc    0000000c     rf_multiMode_cc13x4.a : RFCC26X2_multiMode.c.cc13x4.ticlang.o (.text.RF_Params_init)
                  0001ea08    0000000c     ti_sysbios_config.o (.text.SwiP_getTrigger)
                  0001ea14    0000000c     drivers_cc13x4.a : UART2CC26X2.c.obj (.text.UART2Support_disableTx)
                  0001ea20    0000000c                      : UART2CC26X2.c.obj (.text.UART2Support_enableRx)
                  0001ea2c    0000000c                      : UART2CC26X2.c.obj (.text.UART2Support_enableTx)
                  0001ea38    0000000c                      : UART2.c.obj (.text.UART2_Params_init)
                  0001ea44    0000000c     utc_clock.o (.text.UTC_getClock)
                  0001ea50    0000000c     utc_clock.o (.text.UTC_setClock)
                  0001ea5c    0000000c     libc.a : _lock.c.obj (.text._register_lock)
                  0001ea68    0000000c            : _lock.c.obj (.text._register_unlock)
                  0001ea74    0000000c     maclib_secure_cc13x4_tirtos7.a : mac_mgmt.c.o (.text.macDefaultAction)
                  0001ea80    0000000c                                    : mac_mgmt.c.o (.text.macIsCsmOperational)
                  0001ea8c    0000000c                                    : mac_main.c.o (.text.macMainSetTaskId)
                  0001ea98    0000000c                                    : mac_pwr.c.o (.text.macPwrReset)
                  0001eaa4    0000000c                                    : mac_rx.c.o (.text.macRxSequenceNum)
                  0001eab0    0000000c     bindings.o (.text.onClearCLI)
                  0001eabc    0000000c     maclib_osal_tirtos7_cc13x4_26x4.a : osal_port.c.o (.text.osalHeapInitFxn)
                  0001eac8    0000000c     ti_sysbios_config.o (.text.pthread_attr_setdetachstate)
                  0001ead4    0000000a     drivers_cc13x4.a : AESCCM.c.obj (.text.AESCCM_Operation_init)
                  0001eade    0000000a     ti_sysbios_config.o (.text.ClockP_Params_init)
                  0001eae8    0000000a     csf.o (.text.Csf_free)
                  0001eaf2    0000000a     maclib_secure_cc13x4_tirtos7.a : mac_coord.c.o (.text.MAC_MlmeAssociateRsp)
                  0001eafc    0000000a                                    : mac_coord.c.o (.text.MAC_MlmeOrphanRsp)
                  0001eb06    0000000a     driverlib.lib : vims.c.obj (.text.NOROM_VIMSModeSet)
                  0001eb10    0000000a     drivers_cc13x4.a : Button.c.obj (.text.OUTLINED_FUNCTION_0)
                  0001eb1a    0000000a     maclib_secure_cc13x4_tirtos7.a : mac_rx.c.o (.text.OUTLINED_FUNCTION_0)
                  0001eb24    0000000a                                    : mac.c.o (.text.OUTLINED_FUNCTION_1)
                  0001eb2e    0000000a                                    : mac_mgmt.c.o (.text.OUTLINED_FUNCTION_1)
                  0001eb38    0000000a                                    : mac_radio_tx.c.o (.text.OUTLINED_FUNCTION_1)
                  0001eb42    0000000a                                    : mac_rx.c.o (.text.OUTLINED_FUNCTION_1)
                  0001eb4c    0000000a                                    : mac_hl_patch.c.o (.text.OUTLINED_FUNCTION_4)
                  0001eb56    0000000a     rf_multiMode_cc13x4.a : RFCC26X2_multiMode.c.cc13x4.ticlang.o (.text.OUTLINED_FUNCTION_5)
                  0001eb60    0000000a                           : RFCC26X2_multiMode.c.cc13x4.ticlang.o (.text.OUTLINED_FUNCTION_6)
                  0001eb6a    0000000a     maclib_osal_tirtos7_cc13x4_26x4.a : osal_port.c.o (.text.OsalPort_enterCS)
                  0001eb74    0000000a     drivers_cc13x4.a : PowerCC26X2_helpers.c.obj (.text.PowerCC26X2_sysCtrlStandby)
                  0001eb7e    0000000a     ti_sysbios_config.o (.text.SemaphoreP_pend)
                  0001eb88    0000000a     drivers_cc13x4.a : UART2CC26X2.c.obj (.text.UDMACC26XX_disableAttribute)
                  0001eb92    0000000a                      : UDMACC26XX.c.obj (.text.UDMACC26XX_hwiIntFxn)
                  0001eb9c    0000000a     maclib_osal_tirtos7_cc13x4_26x4.a : mac_util.c.o (.text.Util_copyExtAddr)
                  0001eba6    00000002     --HOLE-- [fill = 0]
                  0001eba8    0000000a     libclang_rt.builtins.a : aeabi_memset.S.obj (.text.__aeabi_memset)
                  0001ebb2    0000000a     maclib_secure_cc13x4_tirtos7.a : mac_data.c.o (.text.macDataRxMemFree)
                  0001ebbc    0000000a                                    : mac_mcu.c.o (.text.macMcuRandomByte)
                  0001ebc6    0000000a                                    : mac_data.c.o (.text.macSetSched)
                  0001ebd0    0000000a     ti_sysbios_config.o (.text.sem_post)
                  0001ebda    00000008     maclib_secure_cc13x4_tirtos7.a : mac_coord.c.o (.text.MAC_MlmeStartReq)
                  0001ebe2    00000008                                    : mac_mgmt.c.o (.text.MAC_MlmeSyncReq)
                  0001ebea    00000008     driverlib.lib : cpu.c.obj (.text.NOROM_CPUcpsid)
                  0001ebf2    00000008                   : cpu.c.obj (.text.NOROM_CPUcpsie)
                  0001ebfa    00000008     drivers_cc13x4.a : NVSCC26XX.c.obj (.text.NVSCC26XX_close)
                  0001ec02    00000008     rf_multiMode_cc13x4.a : RFCC26X2_multiMode.c.cc13x4.ticlang.o (.text.OUTLINED_FUNCTION_1)
                  0001ec0a    00000008     maclib_secure_cc13x4_tirtos7.a : mac_mgmt.c.o (.text.OUTLINED_FUNCTION_2)
                  0001ec12    00000008     rf_multiMode_cc13x4.a : RFCC26X2_multiMode.c.cc13x4.ticlang.o (.text.OUTLINED_FUNCTION_2)
                  0001ec1a    00000008     drivers_cc13x4.a : PowerCC26X2_helpers.c.obj (.text.PowerCC26X2_oschfTrySwitchToXosc)
                  0001ec22    00000008     maclib_osal_tirtos7_cc13x4_26x4.a : util_timer.c.o (.text.UtilTimer_setTimeout)
                  0001ec2a    00000008                                       : mac_util.c.o (.text.Util_breakUint32)
                  0001ec32    00000002     --HOLE-- [fill = 0]
                  0001ec34    00000008     libc.a : aeabi_portable.c.obj (.text.__aeabi_errno_addr)
                  0001ec3c    00000008     libclang_rt.builtins.a : aeabi_memset.S.obj (.text.__aeabi_memclr)
                  0001ec44    00000008     maclib_secure_cc13x4_tirtos7.a : mac_symbol_timer.c.o (.text.macCsmaTimerExpiry)
                  0001ec4c    00000008                                    : mac_mgmt.c.o (.text.macGetCSMPhy)
                  0001ec54    00000008                                    : mac_pib.c.o (.text.macIEEEGetPhyDesc)
                  0001ec5c    00000008                                    : mac.c.o (.text.macRxBackoffTimerExpiry)
                  0001ec64    00000008                                    : mac.c.o (.text.macTxBackoffTimerExpiry)
                  0001ec6c    00000008     ti_sysbios_config.o (.text.pthread_attr_setstacksize)
                  0001ec74    00000008     ti_sysbios_config.o (.text.ti_sysbios_knl_Mailbox_getNumPendingMsgs)
                  0001ec7c    00000006     drivers_cc13x4.a : AESCCMCC26X4.c.obj (.text.AESCCM_oneStepDecrypt)
                  0001ec82    00000006                      : AESCCMCC26X4.c.obj (.text.AESCCM_oneStepEncrypt)
                  0001ec88    00000006                      : Button.c.obj (.text.Button_setCallback)
                  0001ec8e    00000006     ti_sysbios_config.o (.text.ClockP_stop)
                  0001ec94    00000006     drivers_cc13x4.a : GPIOCC26XX.c.obj (.text.GPIO_setConfig)
                  0001ec9a    00000006     ti_sysbios_config.o (.text.HwiP_restore)
                  0001eca0    00000006     driverlib.lib : cpu.c.obj (.text.NOROM_CPUdelay)
                  0001eca6    00000006     drivers_cc13x4.a : NVSCC26XX.c.obj (.text.NVSCC26XX_control)
                  0001ecac    00000006                      : NVS.c.obj (.text.NVS_Params_init)
                  0001ecb2    00000006                      : NVS.c.obj (.text.NVS_erase)
                  0001ecb8    00000006                      : NVS.c.obj (.text.NVS_getAttrs)
                  0001ecbe    00000006                      : UART2.c.obj (.text.OUTLINED_FUNCTION_0)
                  0001ecc4    00000006     maclib_secure_cc13x4_tirtos7.a : mac_tx.c.o (.text.OUTLINED_FUNCTION_0)
                  0001ecca    00000006                                    : mac_hl_patch.c.o (.text.OUTLINED_FUNCTION_1)
                  0001ecd0    00000006     rf_multiMode_cc13x4.a : RFCC26X2_multiMode.c.cc13x4.ticlang.o (.text.OUTLINED_FUNCTION_7)
                  0001ecd6    00000006     maclib_osal_tirtos7_cc13x4_26x4.a : osal_port.c.o (.text.OsalPort_clockFunc)
                  0001ecdc    00000006                                       : osal_port.c.o (.text.OsalPort_leaveCS)
                  0001ece2    00000006     drivers_cc13x4.a : PWM.c.obj (.text.PWM_close)
                  0001ece8    00000006                      : PWM.c.obj (.text.PWM_setDuty)
                  0001ecee    00000006                      : PWM.c.obj (.text.PWM_start)
                  0001ecf4    00000006     rf_multiMode_cc13x4.a : RFCC26X2_multiMode.c.cc13x4.ticlang.o (.text.RF_RatConfigOutput_init)
                  0001ecfa    00000006                           : RFCC26X2_multiMode.c.cc13x4.ticlang.o (.text.RF_clkReqAccess)
                  0001ed00    00000006                           : RFCC26X2_multiMode.c.cc13x4.ticlang.o (.text.RF_runDirectCmd)
                  0001ed06    00000006                           : RFCC26X2_multiMode.c.cc13x4.ticlang.o (.text.RF_runImmediateCmd)
                  0001ed0c    00000006     maclib_osal_tirtos7_cc13x4_26x4.a : mac_util.c.o (.text.Util_buildUint16)
                  0001ed12    00000006     maclib_secure_cc13x4_tirtos7.a : mac_mgmt.c.o (.text.macApiBadState)
                  0001ed18    00000006                                    : mac_mgmt.c.o (.text.macApiUnsupported)
                  0001ed1e    00000006                                    : mac_radio_tx.c.o (.text.macRadioTxGoGreenPower)
                  0001ed24    00000006                                    : mac_radio_tx.c.o (.text.macRadioTxGoSlotted)
                  0001ed2a    00000006                                    : mac_mgmt.c.o (.text.macSecCpy)
                  0001ed30    00000006                                    : mac_hl_patch.c.o (.text.macTxBackoffHandler)
                  0001ed36    00000006                                    : mac_mgmt.c.o (.text.macTxCsmaDelay)
                  0001ed3c    00000006     maclib_osal_tirtos7_cc13x4_26x4.a : osal_port.c.o (.text.osalHeapAllocFxn)
                  0001ed42    00000006                                       : osal_port.c.o (.text.osalHeapFreeFxn)
                  0001ed48    00000006                                       : osal_port.c.o (.text.osalHeapGetStatsFxn)
                  0001ed4e    00000006     maclib_secure_cc13x4_tirtos7.a : saddr.c.o (.text.sAddrExtCpy)
                  0001ed54    00000006     ti_sysbios_config.o (.text.ti_sysbios_family_arm_v8m_Hwi_doSwiRestore)
                  0001ed5a    00000006     ti_sysbios_config.o (.text.ti_sysbios_family_arm_v8m_Hwi_doTaskRestore)
                  0001ed60    00000006     ti_sysbios_config.o (.text.ti_sysbios_heaps_HeapCallback_alloc)
                  0001ed66    00000006     ti_sysbios_config.o (.text.ti_sysbios_heaps_HeapCallback_free)
                  0001ed6c    00000006     ti_sysbios_config.o (.text.ti_sysbios_heaps_HeapCallback_getStats)
                  0001ed72    00000006     ti_sysbios_config.o (.text.ti_sysbios_heaps_HeapCallback_isBlocking)
                  0001ed78    00000004     api_mac.o (.text.ApiMac_mcpsDataReq)
                  0001ed7c    00000004     api_mac.o (.text.ApiMac_mlmeAssociateRsp)
                  0001ed80    00000004     api_mac.o (.text.ApiMac_mlmeGetReqArray)
                  0001ed84    00000004     api_mac.o (.text.ApiMac_mlmeGetReqUint16)
                  0001ed88    00000004     api_mac.o (.text.ApiMac_mlmeGetReqUint32)
                  0001ed8c    00000004     api_mac.o (.text.ApiMac_mlmeGetReqUint8)
                  0001ed90    00000004     api_mac.o (.text.ApiMac_mlmeOrphanRsp)
                  0001ed94    00000004     api_mac.o (.text.ApiMac_mlmeScanReq)
                  0001ed98    00000004     api_mac.o (.text.ApiMac_mlmeSetSecurityReqArray)
                  0001ed9c    00000004     api_mac.o (.text.ApiMac_mlmeSetSecurityReqStruct)
                  0001eda0    00000004     api_mac.o (.text.ApiMac_mlmeStartReq)
                  0001eda4    00000004     api_mac.o (.text.ApiMac_secAddDevice)
                  0001eda8    00000004     api_mac.o (.text.ApiMac_secAddKeyInitFrameCounter)
                  0001edac    00000004     api_mac.o (.text.ApiMac_secDeleteDevice)
                  0001edb0    00000004     ti_sysbios_config.o (.text.ClockP_getSystemTickPeriod)
                  0001edb4    00000004     ti_sysbios_config.o (.text.ClockP_isActive)
                  0001edb8    00000004     ti_sysbios_config.o (.text.ClockP_setTimeout)
                  0001edbc    00000004     csf.o (.text.Csf_malloc)
                  0001edc0    00000004     driverlib.lib : ddi.c.obj (.text.NOROM_DDI32RegWrite)
                  0001edc4    00000004     rf_multiMode_cc13x4.a : rfc.c.cc13x4.ticlang.o (.text.NOROM_RFCOverrideUpdate)
                  0001edc8    00000004     maclib_osal_tirtos7_cc13x4_26x4.a : osal_port.c.o (.text.OsalPort_free)
                  0001edcc    00000004                                       : osal_port.c.o (.text.OsalPort_malloc)
                  0001edd0    00000004     drivers_cc13x4.a : PowerCC26X2_helpers.c.obj (.text.PowerCC26X2_oscClockSourceGet)
                  0001edd4    00000004                      : PowerCC26X2_helpers.c.obj (.text.PowerCC26X2_oschfSwitchToRcosc)
                  0001edd8    00000004                      : PowerCC26X2_helpers.c.obj (.text.PowerCC26X2_setPeriphDeepSleepEnable)
                  0001eddc    00000004                      : PowerCC26X2_helpers.c.obj (.text.PowerCC26X2_sysCtrlGetResetSource)
                  0001ede0    00000004                      : PowerCC26X2_helpers.c.obj (.text.PowerCC26X2_sysCtrlIdle)
                  0001ede4    00000004                      : PowerCC26X2_helpers.c.obj (.text.PowerCC26X2_sysCtrlUpdateVoltageRegulator)
                  0001ede8    00000004                      : PowerCC26X2_helpers.c.obj (.text.PowerCC26X2_turnOnXosc)
                  0001edec    00000004     rf_multiMode_cc13x4.a : RFCC26X2_multiMode.c.cc13x4.ticlang.o (.text.RF_defaultExecutionPolicy)
                  0001edf0    00000004     ti_sysbios_config.o (.text.ResetISR)
                  0001edf4    00000004     drivers_cc13x4.a : RingBuf.c.obj (.text.RingBuf_getCount)
                  0001edf8    00000004     ti_sysbios_config.o (.text.SemaphoreP_post)
                  0001edfc    00000004     ti_sysbios_config.o (.text.SwiP_restore)
                  0001ee00    00000004     drivers_cc13x4.a : TRNGCC26XX.c.obj (.text.TRNG_generateEntropy)
                  0001ee04    00000004     maclib_osal_tirtos7_cc13x4_26x4.a : util_timer.c.o (.text.UtilTimer_isActive)
                  0001ee08    00000004                                       : util_timer.c.o (.text.UtilTimer_start)
                  0001ee0c    00000004                                       : util_timer.c.o (.text.UtilTimer_stop)
                  0001ee10    00000004                                       : mac_util.c.o (.text.Util_hiUint16)
                  0001ee14    00000004                                       : mac_util.c.o (.text.Util_loUint16)
                  0001ee18    00000004     libclang_rt.builtins.a : aeabi_memcpy.S.obj (.text.__aeabi_memcpy)
                  0001ee1c    00000004                            : aeabi_memmove.S.obj (.text.__aeabi_memmove)
                  0001ee20    00000004     ti_sysbios_config.o (.text._system_post_cinit)
                  0001ee24    00000004     ti_sysbios_config.o (.text._system_pre_init)
                  0001ee28    00000004     drivers_cc13x4.a : PowerCC26X2.c.obj (.text.configureRFCoreClocks)
                  0001ee2c    00000004     libc.a : fseek.c.obj (.text.fseek)
                  0001ee30    00000004     maclib_secure_cc13x4_tirtos7.a : mac_mgmt.c.o (.text.macBcTimerHandler)
                  0001ee34    00000004                                    : mac_data.c.o (.text.macDataTxDelayCallback)
                  0001ee38    00000004                                    : mac_hl_patch.c.o (.text.macPibCheckByPatch)
                  0001ee3c    00000004                                    : mac_radio.c.o (.text.macRadioRandomByte)
                  0001ee40    00000004                                    : mac_hl_patch.c.o (.text.macRxBackoffHandler)
                  0001ee44    00000004                                    : mac_symbol_timer.c.o (.text.macSymbolTimerPwrNotify)
                  0001ee48    00000004                                    : mac_symbol_timer.c.o (.text.macSymbolTimerReset)
                  0001ee4c    00000004                                    : mac_tx.c.o (.text.macTxAckIsr)
                  0001ee50    00000004     drivers_cc13x4.a : PowerCC26X2.c.obj (.text.nopResourceHandler)
                  0001ee54    00000004     collector.o (.text.orphanIndCb)
                  0001ee58    00000004     maclib_osal_tirtos7_cc13x4_26x4.a : osal_port.c.o (.text.osalHeapIsBlockingFxn)
                  0001ee5c    00000004     libsysbm.a : remove.c.obj (.text.remove)
                  0001ee60    00000004     bindings.o (.text.setTime)
                  0001ee64    00000002     ti_sysbios_config.o (.text.ti_sysbios_runtime_System_exitSpin)

__llvm_prf_cnts 
*          0    20000000    00000000     UNINITIALIZED

__llvm_prf_bits 
*          0    20000000    00000000     UNINITIALIZED

.TI.bound:dmaUart1RxControlTableEntry 
*          0    20000450    00000010     UNINITIALIZED
                  20000450    00000010     ti_drivers_config.o (.TI.bound:dmaUart1RxControlTableEntry)

.TI.bound:dmaUart1TxControlTableEntry 
*          0    20000460    00000010     UNINITIALIZED
                  20000460    00000010     ti_drivers_config.o (.TI.bound:dmaUart1TxControlTableEntry)

.args      0    0001ee68    00000008     
                  0001ee68    00000008     --HOLE-- [fill = 0]

.bss.1     0    20000000    00000450     UNINITIALIZED
                  20000000    000002c0     rf_multiMode_cc13x4.a : RFCC26X2_multiMode.c.cc13x4.ticlang.o (.bss.RF_cmdPool)
                  200002c0    00000170     (.common:uart2CC26X2Objects)
                  20000430    00000020     ti_drivers_config.o (.bss.uart2RxRingBuffer0)

.bss.2     0    20000470    00005ac1     UNINITIALIZED
                  20000470    00001400     (.common:consoleTaskStack)
                  20001870    00001400     (.common:controlTaskStack)
                  20002c70    00000800     (.common:collectorTaskStack)
                  20003470    00000800     (.common:tBuffer)
                  20003c70    000005dc     (.common:control_task_dev_info)
                  2000424c    00000258     (.common:Cllc_associatedDevList)
                  200044a4    00000004     nvocmp.o (.bss.NVOCMP_nvsHandle)
                  200044a8    00000200     (.common:ti_sysbios_knl_Idle_taskStack)
                  200046a8    00000168     (.common:taskTbl)
                  20004810    00000120     libsysbm.a : trgmsg.c.obj (.bss:_CIOBUF_)
                  20004930    00000100     maclib_secure_cc13x4_tirtos7.a : mac_radio.c.o (.bss.RF_object)
                  20004a30    000000fc     (.common:ti_sysbios_family_arm_v8m_Hwi_dispatchTable)
                  20004b2c    000000fa     (.common:enhancedAckBuf)
                  20004c26    00000002                                    : mac_hl_patch.c.o (.bss.macEdScanISR.scanDurationMs)
                  20004c28    000000c0     (.common:gpioCallbackFunctions)
                  20004ce8    000000c0     (.common:gpioUserArgs)
                  20004da8    000000b8     (.common:LEDObjects)
                  20004e60    000000a0     libc.a : defs.c.obj (.bss.__TI_tmpnams)
                  20004f00    00000088     (.common:FH_hnd)
                  20004f88    00000088     (.common:macPib)
                  20005010    00000068     rf_multiMode_cc13x4.a : RFCC26X2_multiMode.c.cc13x4.ticlang.o (.bss.RF_ratModule)
                  20005078    00000064     (.common:aesccmCC26X4Objects)
                  200050dc    00000004     nvocmp.o (.bss.NVOCMP_voltCheckFptr)
                  200050e0    00000060     (.common:ti_sysbios_knl_ClockSupport_timerStruct)
                  20005140    00000058     (.common:RF_cmdIEEERx)
                  20005198    00000058     (.common:collectorTask)
                  200051f0    00000058     (.common:consoleTask)
                  20005248    00000058     (.common:controlTask)
                  200052a0    00000058     (.common:ti_sysbios_knl_Idle_taskStruct)
                  200052f8    00000054     (.common:macScan)
                  2000534c    00000050     (.common:CryptoResourceCC26XX_accessSemaphore)
                  2000539c    00000050     (.common:CryptoResourceCC26XX_operationSemaphore)
                  200053ec    00000048     (.common:ButtonObjects)
                  20005434    00000046     (.common:NVOCMP_nvHandle)
                  2000547a    00000002     maclib_secure_cc13x4_tirtos7.a : mac_radio.c.o (.bss.macSavedPanID)
                  2000547c    00000044     rf_multiMode_cc13x4.a : RFCC26X2_multiMode.c.cc13x4.ticlang.o (.bss.RF_clkInactivityObj)
                  200054c0    00000044                           : RFCC26X2_multiMode.c.cc13x4.ticlang.o (.bss.RF_clkPowerUpObj)
                  20005504    00000044     csf.o (.bss.broadcastClkStruct)
                  20005548    00000044     csf.o (.bss.configClkStruct)
                  2000558c    00000044     csf.o (.bss.identifyClkStruct)
                  200055d0    00000044     csf.o (.bss.joinClkStruct)
                  20005614    00000044     csf.o (.bss.trackingClkStruct)
                  20005658    00000044     (.common:UTC_clock)
                  2000569c    00000040     (.common:macSecurityPib)
                  200056dc    0000003c     rf_multiMode_cc13x4.a : RFCC26X2_multiMode.c.cc13x4.ticlang.o (.bss.RF_swiHwObj)
                  20005718    0000003c     (.common:Collector_statistics)
                  20005754    00000034     (.common:dcBucket)
                  20005788    00000034     (.common:macBeaconDevice)
                  200057bc    00000030     (.common:RF_cmdPropRadioDivSetup)
                  200057ec    00000030     (.common:RF_cmdPropRxAdv)
                  2000581c    00000030     (.common:macMgmtAction1)
                  2000584c    00000030     (.common:macSrcExtAddrList)
                  2000587c    00000030     (.common:ti_sysbios_knl_Swi_readyQs)
                  200058ac    00000030     (.common:ti_sysbios_knl_Task_readyQs)
                  200058dc    0000002c     nvocmp.o (.bss.NVOCMP_gPosixMutex)
                  20005908    0000002c     (.common:macCoord)
                  20005934    0000002c     (.common:macDevice)
                  20005960    00000024     collector.o (.bss.dataRequestMsduMappingTable)
                  20005984    00000024     (.common:collectorTaskParam)
                  200059a8    00000024     (.common:consoleTaskParam)
                  200059cc    00000024     (.common:controlTaskParam)
                  200059f0    00000020     ti_drivers_config.o (.bss.uart2TxRingBuffer0)
                  20005a10    00000020     (.common:RF_cmdIEEECsma)
                  20005a30    00000020     (.common:RF_cmdPropTxAdv)
                  20005a50    00000020     (.common:RF_cmdRadioSetup)
                  20005a70    00000020     (.common:RF_params)
                  20005a90    00000020     (.common:macBeacon)
                  20005ab0    00000020     (.common:udmaCC26XXObject)
                  20005ad0    0000001c     api_mac.o (.bss.appSemHandle)
                  20005aec    0000001c     drivers_cc13x4.a : GPIOCC26X4.c.obj (.bss.gpioHwi)
                  20005b08    0000001c     ti_sysbios_config.o (.bss.sem)
                  20005b24    0000001c     (.common:BIOS_heapCallbackObject)
                  20005b40    0000001c     (.common:BIOS_rtsGate)
                  20005b5c    0000001c     (.common:CryptoResourceCC26XX_hwi)
                  20005b78    0000001c     (.common:RF_cmdPropCs)
                  20005b94    0000001c     (.common:RF_cmdPropCsSlotted)
                  20005bb0    0000001c     (.common:control_task_DevInfo_mail_params)
                  20005bcc    0000001c     (.common:control_task_NotiInfo_params)
                  20005be8    0000001c     (.common:control_task_joinedDev_mail_params)
                  20005c04    0000001c     (.common:macCoordAction2)
                  20005c20    0000001c     (.common:macReset)
                  20005c3c    0000001c     (.common:macSemHandle)
                  20005c58    0000001c     (.common:macSrcShortAddrList)
                  20005c74    00000018     (.common:RF_cmdFsRx)
                  20005c8c    00000018     (.common:RF_cmdFsTx)
                  20005ca4    00000018     (.common:RF_cmdIEEETx)
                  20005cbc    00000018     (.common:macScanAction)
                  20005cd4    00000014     embedded_cli.o (.bss.defaultConfig)
                  20005ce8    00000014     maclib_secure_cc13x4_tirtos7.a : mac_symbol_timer.c.o (.bss.macSymbolPwrNotifyObj)
                  20005cfc    00000014     drivers_cc13x4.a : Random.c.obj (.bss.state)
                  20005d10    00000014     (.common:RF_cmdRxAckCmd)
                  20005d24    00000014     (.common:macAckDbg)
                  20005d38    00000014     (.common:macMgmtAction2)
                  20005d4c    00000012     (.common:macStatistics)
                  20005d5e    00000002     (.common:conv)
                  20005d60    00000010     (.common:macCoordAction3)
                  20005d70    00000010     (.common:macData)
                  20005d80    00000010     (.common:macDataTxDelay)
                  20005d90    00000010     (.common:macFrmFilter)
                  20005da0    00000010     (.common:macRxOutputIeee)
                  20005db0    0000000f     (.common:DevInfomail)
                  20005dbf    00000001     nvocmp.o (.bss.NVOCMP_failW)
                  20005dc0    0000000c     nvocmp.o (.bss.NVOCMP_itemBuffer)
                  20005dcc    0000000c     nvocmp.o (.bss.NVOCMP_nvsAttrs)
                  20005dd8    0000000c     (.common:coexMetricsStruct)
                  20005de4    0000000c     (.common:macMain)
                  20005df0    0000000c     (.common:macRxOutputSubG)
                  20005dfc    0000000c     (.common:regionAttrs)
                  20005e08    0000000b     control_task.o (.bss.NotiInfo_mail)
                  20005e13    00000008     libsysbm.a : hostopen.c.obj (.bss.parmbuf)
                  20005e1b    00000008     (.common:ApiMac_extAddr)
                  20005e23    00000008     (.common:coexOverrideUseCases)
                  20005e2b    00000001     macTask.o (.bss._macTaskId)
                  20005e2c    00000008     (.common:macCoordAction1)
                  20005e34    00000008     (.common:macRxDataEntryQueue)
                  20005e3c    00000004     csf.o (.bss.broadcastClkHandle)
                  20005e40    00000004     csf.o (.bss.collectorSem)
                  20005e44    00000004     csf.o (.bss.configClkHandle)
                  20005e48    00000004     csf.o (.bss.gGreenLedHandle)
                  20005e4c    00000004     csf.o (.bss.gLeftButtonHandle)
                  20005e50    00000004     csf.o (.bss.gRedLedHandle)
                  20005e54    00000004     csf.o (.bss.gRightButtonHandle)
                  20005e58    00000004     csf.o (.bss.identifyClkHandle)
                  20005e5c    00000004     csf.o (.bss.joinClkHandle)
                  20005e60    00000004     cllc.o (.bss.maintainAssocTable.pItem)
                  20005e64    00000004     collector.o (.bss.sem)
                  20005e68    00000004     csf.o (.bss.trackingClkHandle)
                  20005e6c    00000004     (.common:AESCCM_handle)
                  20005e70    00000004     (.common:HEAPMGR_SIZE)
                  20005e74    00000004     (.common:PowerCC26XX_swiKey)
                  20005e78    00000004     (.common:PowerCC26XX_taskKey)
                  20005e7c    00000004     (.common:Time_to_bytes)
                  20005e80    00000004     (.common:cli)
                  20005e84    00000004     (.common:dcCritical)
                  20005e88    00000004     (.common:dcLimited)
                  20005e8c    00000004     (.common:dcPtr)
                  20005e90    00000004     (.common:dcRegulated)
                  20005e94    00000004     (.common:dcTimeUsed)
                  20005e98    00000004     (.common:macAddrLsb)
                  20005e9c    00000004     (.common:macAddrMsb)
                  20005ea0    00000004     (.common:macCryptoDrvTblPtr)
                  20005ea4    00000004     (.common:macPhyTxPower)
                  20005ea8    00000004     (.common:macPrevPeriodRatCount)
                  20005eac    00000004     (.common:macRfDrvTblPtr)
                  20005eb0    00000004     (.common:macRxSymbol)
                  20005eb4    00000004     (.common:macSymbolTimerRollover)
                  20005eb8    00000004     (.common:macSymbolTimerTrigger)
                  20005ebc    00000004     (.common:macThread)
                  20005ec0    00000004     (.common:macTimerActive)
                  20005ec4    00000004     (.common:macTxTimestamp)
                  20005ec8    00000004     (.common:nvsHandle)
                  20005ecc    00000004     (.common:nvsParams)
                  20005ed0    00000004     (.common:pClockHandleEDScan)
                  20005ed4    00000004     (.common:pMacRadioConfig)
                  20005ed8    00000004     (.common:pMaxPower)
                  20005edc    00000004     (.common:pRfMode)
                  20005ee0    00000004     (.common:pRfPowerTable)
                  20005ee4    00000004     (.common:rxRadioBufferPtr)
                  20005ee8    00000004     (.common:ti_sysbios_family_arm_v8m_cc26x4_Timer_funcHookCH1)
                  20005eec    00000004     (.common:ti_sysbios_family_arm_v8m_cc26x4_Timer_funcHookCH2)
                  20005ef0    00000004     (.common:ti_sysbios_knl_Task_defaultStackHeap)
                  20005ef4    00000004     (.common:ti_sysbios_runtime_System_atexitHandlers)
                  20005ef8    00000004     (.common:timerAlignedQ)
                  20005efc    00000004     (.common:timerUnalignedQ)
                  20005f00    00000004     (.common:uart2Handle)
                  20005f04    00000002     (.common:joinedDev_mail)
                  20005f06    00000002     (.common:macRxDataEntryOffset)
                  20005f08    00000002     (.common:macTxCsmaBackoffDelay)
                  20005f0a    00000002     (.common:nvsCC26XXObjects)
                  20005f0c    00000002     (.common:rxCmdHandle)
                  20005f0e    00000002     (.common:txCmdHandle)
                  20005f10    00000001     main.o (.bss._macTaskId)
                  20005f11    00000001     maclib_secure_cc13x4_tirtos7.a : mac_symbol_timer.c.o (.bss.macSymbolTimerEvents)
                  20005f12    00000001                                    : mac_radio.c.o (.bss.radioInitFlag)
                  20005f13    00000001     (.common:AppTaskId)
                  20005f14    00000001     (.common:NVOCMP_size)
                  20005f15    00000001     (.common:appTaskId)
                  20005f16    00000001     (.common:dcStatus)
                  20005f17    00000001     (.common:gAction)
                  20005f18    00000001     (.common:lastRxPriority)
                  20005f19    00000001     (.common:lastTxPriority)
                  20005f1a    00000001     (.common:macAckTxActive)
                  20005f1b    00000001     (.common:macMgmt)
                  20005f1c    00000001     (.common:macPanCoordinator)
                  20005f1d    00000001     (.common:macPhyChannel)
                  20005f1e    00000001     (.common:macPwr)
                  20005f1f    00000001     (.common:macRxActive)
                  20005f20    00000001     (.common:macRxEnableFlags)
                  20005f21    00000001     (.common:macRxFilter)
                  20005f22    00000001     (.common:macRxOutgoingAckFlag)
                  20005f23    00000001     (.common:macSpecUsecsPerSymbol)
                  20005f24    00000001     (.common:macSrcResIndex)
                  20005f25    00000001     (.common:macSymbolTimerImpending)
                  20005f26    00000001     (.common:macTaskId)
                  20005f27    00000001     (.common:macTxActive)
                  20005f28    00000001     (.common:macTxBe)
                  20005f29    00000001     (.common:macTxGpInterframeDelay)
                  20005f2a    00000001     (.common:macTxType)
                  20005f2b    00000001     (.common:macUnitBackoffPeriod)
                  20005f2c    00000001     (.common:rxFhRsl)
                  20005f2d    00000001     (.common:rxPromiscuousMode)
                  20005f2e    00000001     (.common:rxSeqNum)
                  20005f2f    00000001     (.common:txAckReq)
                  20005f30    00000001     (.common:txSeqn)

MODULE SUMMARY

       Module                                           code     ro data   rw data
       ------                                           ----     -------   -------
    .\application\
       control_task.o                                   978      53        6879   
       main.o                                           308      8         2286   
       par.o                                            292      0         20     
    +--+------------------------------------------------+--------+---------+---------+
       Total:                                           1578     61        9185   
                                                                                  
    .\application\cli\
       console.o                                        1374     880       5252   
       embedded_cli.o                                   4882     177       20     
       bindings.o                                       396      238       5      
    +--+------------------------------------------------+--------+---------+---------+
       Total:                                           6652     1295      5277   
                                                                                  
    .\application\clock\
       utc_clock.o                                      628      12        82     
    +--+------------------------------------------------+--------+---------+---------+
       Total:                                           628      12        82     
                                                                                  
    .\application\collector\
       collector.o                                      4598     17        197    
       csf.o                                            3448     0         397    
    +--+------------------------------------------------+--------+---------+---------+
       Total:                                           8046     17        594    
                                                                                  
    .\application\collector\link_controller\
       cllc.o                                           3116     57        758    
    +--+------------------------------------------------+--------+---------+---------+
       Total:                                           3116     57        758    
                                                                                  
    .\software_stack\ti15_4stack\mac\
       api_mac.o                                        2234     0         48     
       macTask.o                                        1236     19        52     
    +--+------------------------------------------------+--------+---------+---------+
       Total:                                           3470     19        100    
                                                                                  
    .\software_stack\ti15_4stack\mac\mac_settings\
       mac_settings.o                                   558      0         460    
       mac_cfg.o                                        0        552       210    
       mac_user_config.o                                40       204       0      
    +--+------------------------------------------------+--------+---------+---------+
       Total:                                           598      756       670    
                                                                                  
    .\software_stack\ti15_4stack\nv\
       nvocmp.o                                         11008    0         2198   
       crc.o                                            34       256       0      
    +--+------------------------------------------------+--------+---------+---------+
       Total:                                           11042    256       2198   
                                                                                  
    .\syscfg\
       ti_drivers_config.o                              232      267       66966  
       ti_sysbios_config.o                              12536    720       1810   
       ti_radio_config.o                                0        172       235    
       ti_devices_config.o                              0        124       0      
    +--+------------------------------------------------+--------+---------+---------+
       Total:                                           12768    1283      69011  
                                                                                  
    C:/ti/simplelink_cc13xx_cc26xx_sdk_7_41_00_17/kernel/tirtos7/packages/ti/sysbios/lib/ticlang/m33f/sysbios.a
       Hwi_asm_gcc.s.obj                                316      0         0      
       Hwi_asm_switch_gcc.s.obj                         126      0         0      
       TaskSupport_asm_gcc.s.obj                        84       0         0      
       boot_cortex_m.c.obj                              52       0         0      
    +--+------------------------------------------------+--------+---------+---------+
       Total:                                           578      0         0      
                                                                                  
    C:/ti/simplelink_cc13xx_cc26xx_sdk_7_41_00_17/source/ti/devices/cc13x4_cc26x4/driverlib/bin/ticlang/driverlib.lib
       setup_rom.c.obj                                  1104     0         0      
       prcm.c.obj                                       468      84        0      
       interrupt.c.obj                                  296      0         252    
       aes.c.obj                                        436      0         0      
       osc.c.obj                                        384      0         32     
       setup.c.obj                                      412      0         0      
       sys_ctrl.c.obj                                   408      0         0      
       chipinfo.c.obj                                   224      0         0      
       uart.c.obj                                       80       0         0      
       trng.c.obj                                       76       0         0      
       ddi.c.obj                                        74       0         0      
       udma.c.obj                                       70       0         0      
       aux_sysif.c.obj                                  56       8         0      
       aon_batmon.c.obj                                 40       0         0      
       aon_event.c.obj                                  40       0         0      
       vims.c.obj                                       26       0         0      
       cpu.c.obj                                        22       0         0      
       aon_rtc.c.obj                                    20       0         0      
       ioc.c.obj                                        16       0         0      
    +--+------------------------------------------------+--------+---------+---------+
       Total:                                           4252     92        284    
                                                                                  
    C:/ti/simplelink_cc13xx_cc26xx_sdk_7_41_00_17/source/ti/drivers/lib/ticlang/m33f/drivers_cc13x4.a
       PowerCC26X2.c.obj                                1822     104       380    
       UART2CC26X2.c.obj                                2094     21        0      
       AESCCMCC26X4.c.obj                               2056     0         1      
       UART2.c.obj                                      1344     36        0      
       TRNGCC26XX.c.obj                                 980      0         104    
       NVSCC26XX.c.obj                                  890      40        12     
       PowerCC26X2_calibrateRCOSC.c.obj                 836      0         0      
       Button.c.obj                                     698      30        0      
       LED.c.obj                                        704      8         0      
       GPIOCC26X4.c.obj                                 400      0         29     
       PowerCC26X2_helpers.c.obj                        366      0         0      
       PowerCC26X2_calibrateRCOSC_helpers.c.obj         364      0         0      
       GPIOCC26XX.c.obj                                 330      0         0      
       CryptoResourceCC26XX.c.obj                       98       0         189    
       RingBuf.c.obj                                    272      0         0      
       List.c.obj                                       206      0         0      
       Random.c.obj                                     164      12        20     
       StructRingBuf.c.obj                              194      0         0      
       PWM.c.obj                                        166      24        1      
       NVS.c.obj                                        166      4         1      
       UDMACC26XX.c.obj                                 110      0         0      
       GPIO.c.obj                                       88       0         0      
       CryptoUtils.c.obj                                78       0         0      
       AESCCM.c.obj                                     42       16        0      
       CryptoKeyPlaintext.c.obj                         24       0         0      
       TRNG.c.obj                                       0        20        0      
    +--+------------------------------------------------+--------+---------+---------+
       Total:                                           14492    315       737    
                                                                                  
    C:/ti/simplelink_cc13xx_cc26xx_sdk_7_41_00_17/source/ti/drivers/rf/lib/ticlang/m33f/rf_multiMode_cc13x4.a
       RFCC26X2_multiMode.c.cc13x4.ticlang.o            10070    40        1316   
       rf_patch_cpe_multi_protocol.c.cc13x4.ticlang.o   152      1576      1      
       rfc.c.cc13x4.ticlang.o                           268      0         0      
    +--+------------------------------------------------+--------+---------+---------+
       Total:                                           10490    1616      1317   
                                                                                  
    C:/ti/simplelink_cc13xx_cc26xx_sdk_7_41_00_17/source/ti/ti154stack/lib/ticlang/m33f/maclib_osal_tirtos7_cc13x4_26x4.a
       osal_port.c.o                                    1712     0         388    
       util_timer.c.o                                   106      0         0      
       mac_util.c.o                                     94       0         0      
       osal_port_timers.c.o                             64       0         16     
    +--+------------------------------------------------+--------+---------+---------+
       Total:                                           1976     0         404    
                                                                                  
    C:/ti/simplelink_cc13xx_cc26xx_sdk_7_41_00_17/source/ti/ti154stack/lib/ticlang/m33f/maclib_secure_cc13x4_tirtos7.a
       mac_hl_patch.c.o                                 7492     0         12     
       mac_radio_tx.c.o                                 4736     0         14     
       mac_mgmt.c.o                                     3492     0         0      
       mac.c.o                                          3218     0         193    
       mac_rx.c.o                                       3272     8         40     
       mac_tx.c.o                                       2996     0         43     
       mac_coord.c.o                                    2934     0         0      
       mac_radio.c.o                                    2456     40        323    
       mac_data.c.o                                     2066     0         0      
       hmac_global.c.o                                  0        589       1206   
       mac_security_pib.c.o                             1456     0         0      
       mac_symbol_timer.c.o                             1090     0         39     
       mac_timer.c.o                                    1050     0         0      
       mac_duty_cycle.c.o                               800      0         98     
       mac_autopend.c.o                                 858      0         4      
       mac_scan.c.o                                     850      0         0      
       mac_main.c.o                                     628      0         0      
       mac_pib.c.o                                      616      0         0      
       mac_rx_onoff.c.o                                 496      0         1      
       mac_ie_build.c.o                                 448      0         0      
       mac_mcu.c.o                                      412      0         4      
       mac_low_level.c.o                                184      0         32     
       mac_beacon_device.c.o                            208      0         0      
       mac_ie_parse.c.o                                 208      0         0      
       mac_pwr.c.o                                      138      0         1      
       fh_global.c.o                                    0        0         136    
       mac_beacon.c.o                                   108      0         0      
       saddr.c.o                                        96       0         0      
       mac_sleep.c.o                                    92       0         0      
       lmac_global.c.o                                  0        0         11     
    +--+------------------------------------------------+--------+---------+---------+
       Total:                                           42400    637       2157   
                                                                                  
    C:\ti\ccs1270\ccs\tools\compiler\ti-cgt-armllvm_3.2.2.LTS\lib\armv8m.main-ti-none-eabihf/c/libc.a
       strcmp_t2.S.obj                                  732      0         0      
       _printfi.c.obj                                   630      17        0      
       defs.c.obj                                       0        0         404    
       fwrite.c.obj                                     404      0         0      
       aeabi_ctype.S.obj                                0        257       0      
       setvbuf.c.obj                                    216      0         0      
       getdevice.c.obj                                  148      0         0      
       vsnprintf.c.obj                                  132      0         0      
       fclose.c.obj                                     116      0         0      
       copy_decompress_lzss.c.obj                       112      0         0      
       fseek.c.obj                                      108      0         0      
       _io_perm.c.obj                                   96       0         0      
       fflush.c.obj                                     80       0         0      
       atoi.c.obj                                       64       0         0      
       autoinit.c.obj                                   56       0         0      
       fopen.c.obj                                      52       0         0      
       memmov.c.obj                                     40       0         0      
       _lock.c.obj                                      26       0         8      
       memccpy.c.obj                                    30       0         0      
       args_main.c.obj                                  20       0         0      
       memcpy_t2.S.obj                                  18       0         0      
       copy_zero_init.c.obj                             16       0         0      
       copy_decompress_none.c.obj                       14       0         0      
       memset_t2.S.obj                                  14       0         0      
       aeabi_portable.c.obj                             8        0         4      
       exit.c.obj                                       0        0         8      
    +--+------------------------------------------------+--------+---------+---------+
       Total:                                           3132     274       424    
                                                                                  
    C:\ti\ccs1270\ccs\tools\compiler\ti-cgt-armllvm_3.2.2.LTS\lib\armv8m.main-ti-none-eabihf/c/libsysbm.a
       trgmsg.c.obj                                     100      0         288    
       host_device.c.obj                                0        0         200    
       hostrename.c.obj                                 128      0         0      
       close.c.obj                                      96       0         0      
       hostopen.c.obj                                   88       0         8      
       hostlseek.c.obj                                  88       0         0      
       hostread.c.obj                                   84       0         0      
       hostwrite.c.obj                                  84       0         0      
       hostunlink.c.obj                                 68       0         0      
       hostclose.c.obj                                  60       0         0      
       lseek.c.obj                                      44       0         0      
       unlink.c.obj                                     44       0         0      
       write.c.obj                                      44       0         0      
       remove.c.obj                                     4        0         0      
    +--+------------------------------------------------+--------+---------+---------+
       Total:                                           932      0         496    
                                                                                  
    C:\ti\ccs1270\ccs\tools\compiler\ti-cgt-armllvm_3.2.2.LTS\lib\clang/15.0.7/lib/armv8m.main-ti-none-eabihf/libclang_rt.builtins.a
       udivmoddi4.S.obj                                 176      0         0      
       ashldi3.S.obj                                    30       0         0      
       aeabi_uldivmod.S.obj                             20       0         0      
       aeabi_memset.S.obj                               18       0         0      
       aeabi_memcpy.S.obj                               4        0         0      
       aeabi_memmove.S.obj                              4        0         0      
       aeabi_div0.c.obj                                 2        0         0      
    +--+------------------------------------------------+--------+---------+---------+
       Total:                                           254      0         0      
                                                                                  
       Stack:                                           0        0         20480  
       Linker Generated:                                0        915       0      
    +--+------------------------------------------------+--------+---------+---------+
       Grand Total:                                     126404   7605      114174 


LINKER GENERATED COPY TABLES

__TI_cinit_table @ 00020b44 records: 6, size/record: 8, table size: 48
	.data: load addr=000207e0, load size=0000032f bytes, run addr=20006000, run size=00000cd5 bytes, compression=lzss
	.TI.bound:dmaUart1RxControlTableEntry: load addr=00020b1c, load size=00000008 bytes, run addr=20000450, run size=00000010 bytes, compression=zero_init
	.TI.bound:dmaUart1TxControlTableEntry: load addr=00020b24, load size=00000008 bytes, run addr=20000460, run size=00000010 bytes, compression=zero_init
	.bss.1: load addr=00020b2c, load size=00000008 bytes, run addr=20000000, run size=00000450 bytes, compression=zero_init
	.bss.2: load addr=00020b34, load size=00000008 bytes, run addr=20000470, run size=00005ac1 bytes, compression=zero_init
	.ramVecs: load addr=00020b3c, load size=00000008 bytes, run addr=20006d00, run size=000001fc bytes, compression=zero_init


LINKER GENERATED HANDLER TABLE

__TI_handler_table @ 00020b10 records: 3, size/record: 4, table size: 12
	index: 0, handler: __TI_zero_init
	index: 1, handler: __TI_decompress_lzss
	index: 2, handler: __TI_decompress_none


SEGMENT ATTRIBUTES

    id tag       seg value 
    -- ---       --- ----- 
     0 PHA_BOUND 3   (null)
     1 PHA_BOUND 4   (null)
     2 PHA_BOUND 6   (null)


GLOBAL SYMBOLS: SORTED ALPHABETICALLY BY Name 

address   name                                                             
-------   ----                                                             
0001ead5  AESCCM_Operation_init                                            
0001e589  AESCCM_Params_init                                               
0001e7b9  AESCCM_close                                                     
0002071c  AESCCM_config                                                    
00017125  AESCCM_construct                                                 
0002058c  AESCCM_defaultParams                                             
20005e6c  AESCCM_handle                                                    
0001e201  AESCCM_init                                                      
0001ec7d  AESCCM_oneStepDecrypt                                            
0001ec83  AESCCM_oneStepEncrypt                                            
0001e599  AESCCM_open                                                      
0001d2c1  AESCCM_setLengths                                                
00019699  AESCCM_setNonce                                                  
00005329  AESReadAuthenticationModeIV                                      
0001de3d  AESWriteKey3                                                     
20005e1b  ApiMac_extAddr                                                   
200063d7  ApiMac_gpOffsetToms                                              
00015905  ApiMac_init                                                      
0001ed79  ApiMac_mcpsDataReq                                               
0001ed7d  ApiMac_mlmeAssociateRsp                                          
0001ed81  ApiMac_mlmeGetReqArray                                           
0001ed85  ApiMac_mlmeGetReqUint16                                          
0001ed89  ApiMac_mlmeGetReqUint32                                          
0001ed8d  ApiMac_mlmeGetReqUint8                                           
0001ed91  ApiMac_mlmeOrphanRsp                                             
0001ed95  ApiMac_mlmeScanReq                                               
0001002d  ApiMac_mlmeSetReqArray                                           
0001e215  ApiMac_mlmeSetReqBool                                            
0001e229  ApiMac_mlmeSetReqUint16                                          
0001e23d  ApiMac_mlmeSetReqUint8                                           
0001ed99  ApiMac_mlmeSetSecurityReqArray                                   
0001ed9d  ApiMac_mlmeSetSecurityReqStruct                                  
0001e251  ApiMac_mlmeSetSecurityReqUint16                                  
0001eda1  ApiMac_mlmeStartReq                                              
20006ac7  ApiMac_mtDataReqTxOptionGp                                       
000022e5  ApiMac_processIncoming                                           
0001e925  ApiMac_registerCallbacks                                         
0001eda5  ApiMac_secAddDevice                                              
0001eda9  ApiMac_secAddKeyInitFrameCounter                                 
0001edad  ApiMac_secDeleteDevice                                           
20005f13  AppTaskId                                                        
20006938  BIOS_Module_state                                                
00019fff  BIOS_atExitFunc                                                  
00018fad  BIOS_exitFunc                                                    
20005b24  BIOS_heapCallbackObject                                          
0001e931  BIOS_linkedWithIncorrectBootLibrary                              
00000b4f  BIOS_nullFunc                                                    
20005b40  BIOS_rtsGate                                                     
0001d8e5  BIOS_rtsLock                                                     
0001dd1d  BIOS_rtsUnlock                                                   
0001e93d  BIOS_start                                                       
00012311  BIOS_startFunc                                                   
0001e10d  Board_init                                                       
000058e3  Board_initHook                                                   
00019005  Board_sendExtFlashByte                                           
00016311  Board_shutDownExtFlash                                           
200053ec  ButtonObjects                                                    
0001e5a9  Button_Params_init                                               
000205ac  Button_config                                                    
0002022e  Button_count                                                     
00020474  Button_defaultParams                                             
00018b35  Button_gpioCallbackFxn                                           
0000fc9d  Button_open                                                      
0001ec89  Button_setCallback                                               
0001bbef  C$$IO$$                                                          
0001a799  Cllc_addSecDevice                                                
2000424c  Cllc_associatedDevList                                           
20006c98  Cllc_devShortAddr                                                
20006c9a  Cllc_events                                                      
00012f25  Cllc_init                                                        
00020724  Cllc_keySource                                                   
0000561d  Cllc_process                                                     
000186e5  Cllc_removeDevice                                                
00007535  Cllc_restoreNetwork                                              
0001e265  Cllc_securityCheck                                               
0001dd37  Cllc_securityFill                                                
000141d1  Cllc_securityInit                                                
0001d525  Cllc_setChanMask                                                 
000170b5  Cllc_setJoinPermit                                               
0001a8e3  Cllc_startNetwork                                                
0001eadf  ClockP_Params_init                                               
0001587d  ClockP_construct                                                 
00010735  ClockP_create                                                    
0001c58f  ClockP_delete                                                    
0001d9b9  ClockP_destruct                                                  
0001e445  ClockP_getCpuFreq                                                
0001edb1  ClockP_getSystemTickPeriod                                       
0001ce0d  ClockP_getSystemTicks                                            
00019a59  ClockP_getTimeout                                                
0001edb5  ClockP_isActive                                                  
0001edb9  ClockP_setTimeout                                                
0001e123  ClockP_start                                                     
0001ec8f  ClockP_stop                                                      
20006c9e  Collector_events                                                 
0000fad1  Collector_init                                                   
20006794  Collector_macCallbacks                                           
00002949  Collector_process                                                
0000f803  Collector_sendConfigRequest                                      
00019fb5  Collector_sendToggleLedRequest                                   
20005718  Collector_statistics                                             
0001e949  CryptoKeyPlaintext_initBlankKey                                  
0001e955  CryptoKeyPlaintext_initKey                                       
2000534c  CryptoResourceCC26XX_accessSemaphore                             
000180e9  CryptoResourceCC26XX_constructRTOSObjects                        
20005b5c  CryptoResourceCC26XX_hwi                                         
2000539c  CryptoResourceCC26XX_operationSemaphore                          
0001b845  CryptoUtils_buffersMatch                                         
0001de55  CryptoUtils_memset                                               
0001bfc9  Csf_CLI_closenetwork                                             
0001c4a9  Csf_CLI_formnetwork                                              
0001bff9  Csf_CLI_opennetwork                                              
0001e7c7  Csf_PostAppSem                                                   
0001e457  Csf_closeNwk                                                     
00005bab  Csf_deviceConfigUpdate                                           
00006ecb  Csf_deviceDisassocUpdate                                         
00007317  Csf_deviceNotActiveUpdate                                        
0001e7d5  Csf_deviceSensorDataUpdate                                       
0000bd09  Csf_deviceUpdate                                                 
00007b5f  Csf_displayError                                                 
20006ca0  Csf_events                                                       
0001eae9  Csf_free                                                         
000133d5  Csf_getDevice                                                    
0001347d  Csf_getDeviceExtAdd                                              
0000fd81  Csf_getDeviceItem                                                
0001c5bb  Csf_getDeviceShort                                               
00017a45  Csf_getFrameCounter                                              
0001ad25  Csf_getNetworkInformation                                        
0001ad63  Csf_getNumDeviceListEntries                                      
0001ada1  Csf_identifyLED                                                  
0000e63d  Csf_init                                                         
0001b87b  Csf_initializeBroadcastClock                                     
0001b295  Csf_initializeConfigClock                                        
0001b8b1  Csf_initializeIdentifyClock                                      
0001b8e7  Csf_initializeTrackingClock                                      
0001e961  Csf_isConfigTimerActive                                          
0001e96d  Csf_isTrackingTimerActive                                        
20006bf4  Csf_keys                                                         
0001edbd  Csf_malloc                                                       
00018a7d  Csf_networkUpdate                                                
0001e279  Csf_openNwk                                                      
00009ef1  Csf_processEvents                                                
0000e743  Csf_removeDeviceListItem                                         
0001a2cf  Csf_setBroadcastClock                                            
0001a313  Csf_setConfigClock                                               
0001a357  Csf_setJoinPermitClock                                           
0001a39b  Csf_setTrackingClock                                             
00019107  Csf_stateChangeUpdate                                            
000088af  Csf_toggleResponseReceived                                       
0000f433  Csf_updateFrameCounter                                           
20005db0  DevInfomail                                                      
0000af01  EPOCH_convertTime                                                
20004f00  FH_hnd                                                           
000205bc  GPIO_config                                                      
0001de6d  GPIO_disableInt                                                  
00015d25  GPIO_hwiIntFxn                                                   
0000dbc5  GPIO_init                                                        
0002022f  GPIO_pinLowerBound                                               
0002035f  GPIO_pinUpperBound                                               
0001d9d5  GPIO_read                                                        
0001aed9  GPIO_resetConfig                                                 
0001d9f1  GPIO_setCallback                                                 
0001ec95  GPIO_setConfig                                                   
00011dd5  GPIO_setConfigAndMux                                             
0001c029  GPIO_setInterruptConfig                                          
0001e5b9  GPIO_write                                                       
00018b8d  HEAPMGR_GETLARGESTFREEBUF                                        
20005e70  HEAPMGR_SIZE                                                     
0001af15  HOSTclose                                                        
00018be5  HOSTlseek                                                        
00018c3d  HOSTopen                                                         
0001915d  HOSTread                                                         
00017aa9  HOSTrename                                                       
0001a3e1  HOSTunlink                                                       
000191b1  HOSTwrite                                                        
0001e5c9  HwiP_Params_init                                                 
00011935  HwiP_construct                                                   
00016751  HwiP_destruct                                                    
0001e979  HwiP_disable                                                     
0001a7db  HwiP_enableInterrupt                                             
0001e139  HwiP_interruptsEnabled                                           
0001e28d  HwiP_post                                                        
0001ec9b  HwiP_restore                                                     
0001e2a1  HwiP_setFunc                                                     
0001da0d  HwiP_setPriority                                                 
UNDEFED   ITM_flush                                                        
UNDEFED   ITM_restore                                                      
20004da8  LEDObjects                                                       
0001e7e3  LED_Params_init                                                  
000205cc  LED_config                                                       
0002045b  LED_count                                                        
0002072c  LED_defaultParams                                                
0000dcd5  LED_open                                                         
0001addf  LED_setBrightnessLevel                                           
0001ae1d  LED_setOff                                                       
0001b2cd  LED_setOn                                                        
00016bdd  LED_startBlinking                                                
0001d2e3  LED_stopBlinking                                                 
0001dd51  LED_toggle                                                       
0001e14f  List_clearList                                                   
0001d305  List_get                                                         
0001ce33  List_insert                                                      
0001cf3b  List_put                                                         
0001cf5f  List_putHead                                                     
0001cb8b  List_remove                                                      
0001d545  MAC_AbortScan                                                    
0001dd6b  MAC_CbackCheckPending                                            
0000b439  MAC_CbackEvent                                                   
0001dd85  MAC_CbackQueryRetransmit                                         
0001de85  MAC_EnableFH                                                     
00017b0d  MAC_Init                                                         
00015989  MAC_InitCoord                                                    
00010d2d  MAC_McpsDataAlloc                                                
0000aae1  MAC_McpsDataReq                                                  
0001eaf3  MAC_MlmeAssociateRsp                                             
0001cbb5  MAC_MlmeGetPointerSecurityReq                                    
0001a925  MAC_MlmeGetReq                                                   
0000a07d  MAC_MlmeGetSecurityReq                                           
0001eafd  MAC_MlmeOrphanRsp                                                
00012779  MAC_MlmeResetReq                                                 
000147c1  MAC_MlmeScanReq                                                  
000091cd  MAC_MlmeSetReq                                                   
00006ecd  MAC_MlmeSetSecurityReq                                           
0001ebdb  MAC_MlmeStartReq                                                 
0001ebe3  MAC_MlmeSyncReq                                                  
00018741  MAC_ResumeReq                                                    
00019af5  MAC_SrcMatchAckAllPending                                        
000137c5  MAC_SrcMatchAddEntry                                             
0001e2b5  MAC_SrcMatchCheckAllPending                                      
0001e985  MAC_SrcMatchCheckManualAddressTracking                           
0001af51  MAC_SrcMatchCheckResult                                          
0001b305  MAC_SrcMatchDeleteEntry                                          
00019205  MAC_SrcMatchEnable                                               
0001a049  MAC_SrcMatchSetDefaultPend                                       
0001e5d9  MAC_SrcMatchSetManualAddressTracking                             
0001bed1  MAC_SrcMatchSetPend                                              
20006cae  Main_assertReason                                                
0001e469  Main_excHandler                                                  
20006690  Main_user1Cfg                                                    
0001c5e9  NOROM_AESReadFromKeyStore                                        
0001c615  NOROM_AESReadTag                                                 
0001de9d  NOROM_AESSetInitializationVector                                 
0001c059  NOROM_AESStartDMAOperation                                       
0001cf85  NOROM_AESWaitForIRQFlags                                         
00011e95  NOROM_AESWriteToKeyStore                                         
0001cbdd  NOROM_AONBatMonTemperatureGetDegC                                
0001cc05  NOROM_AONEventMcuWakeUpSet                                       
0001e2c9  NOROM_AONRTCCurrent64BitValueGet                                 
0001b33d  NOROM_AUXSYSIFOpModeChange                                       
0001ebeb  NOROM_CPUcpsid                                                   
0001ebf3  NOROM_CPUcpsie                                                   
0001eca1  NOROM_CPUdelay                                                   
00016481  NOROM_ChipInfo_GetChipType                                       
0001a091  NOROM_ChipInfo_GetHwRevision                                     
0001da29  NOROM_DDI16BitfieldRead                                          
0001ca8d  NOROM_DDI16BitfieldWrite                                         
0001edc1  NOROM_DDI32RegWrite                                              
0001e5e9  NOROM_IOCPortConfigureSet                                        
00016da5  NOROM_IntDisable                                                 
00017191  NOROM_IntEnable                                                  
00019b41  NOROM_IntPendClear                                               
0001cc2d  NOROM_OSCClockSourceGet                                          
0001b375  NOROM_OSCClockSourceSet                                          
00018c95  NOROM_OSCHF_AttemptToSwitchToXosc                                
0001c641  NOROM_OSCHF_SwitchToRcOscTurnOffXosc                             
0001da45  NOROM_OSCHF_TurnOnXosc                                           
0001af8d  NOROM_OSC_HPOSCRelativeFrequencyOffsetGet                        
0001e991  NOROM_OSC_HPOSCRelativeFrequencyOffsetToRFCoreFormatConvert      
0001da61  NOROM_PRCMDeepSleep                                              
0001cfa9  NOROM_PRCMPeripheralDeepSleepDisable                             
0001d565  NOROM_PRCMPeripheralDeepSleepEnable                              
0001cfcd  NOROM_PRCMPeripheralRunDisable                                   
0001d585  NOROM_PRCMPeripheralRunEnable                                    
0001cff1  NOROM_PRCMPeripheralSleepDisable                                 
0001d5a5  NOROM_PRCMPeripheralSleepEnable                                  
0001b9f1  NOROM_PRCMPowerDomainOff                                         
0001c089  NOROM_PRCMPowerDomainOn                                          
0001a425  NOROM_PRCMPowerDomainsAllOff                                     
0001a469  NOROM_PRCMPowerDomainsAllOn                                      
000185c9  NOROM_RFCAnaDivTxOverride                                        
0001e5f9  NOROM_RFCCpeIntGetAndClear                                       
000091cb  NOROM_RFCCpePatchReset                                           
0001d5c5  NOROM_RFCDoorbellSendTo                                          
0001e609  NOROM_RFCHwIntGetAndClear                                        
0001d5e5  NOROM_RFCOverrideSearch                                          
0001edc5  NOROM_RFCOverrideUpdate                                          
0001a0d9  NOROM_RFCSynthPowerDown                                          
00018149  NOROM_SetupAfterColdResetWakeupFromShutDownCfg1                  
0000def5  NOROM_SetupAfterColdResetWakeupFromShutDownCfg2                  
0000d889  NOROM_SetupAfterColdResetWakeupFromShutDownCfg3                  
0001879d  NOROM_SetupGetTrimForAmpcompCtrl                                 
00018ced  NOROM_SetupGetTrimForAnabypassValue1                             
0001e2dd  NOROM_SetupGetTrimForRcOscLfRtuneCtuneTrim                       
0001d605  NOROM_SetupGetTrimForXoscHfCtl                                   
0001d625  NOROM_SetupSetAonRtcSubSecInc                                    
00019b8d  NOROM_SetupSetCacheModeAccordingToCcfgSetting                    
000160a5  NOROM_SetupStepVddrTrimTo                                        
0000ea51  NOROM_SetupTrimDevice                                            
0001c0b9  NOROM_SysCtrlIdle                                                
0001da7d  NOROM_SysCtrlResetSourceGet                                      
000102d5  NOROM_SysCtrlStandby                                             
000171fd  NOROM_SysCtrl_DCDC_VoltageConditionalControl                     
0001ba25  NOROM_TRNGConfigure                                              
0001deb5  NOROM_TRNGNumberGet                                              
0001d645  NOROM_ThisLibraryIsFor_CC13x4_CC26x4_HaltIfViolated              
0001e47b  NOROM_UARTCharPutNonBlocking                                     
0001d015  NOROM_UARTConfigSetExpClk                                        
0001dd9f  NOROM_UARTDisable                                                
0001e619  NOROM_VIMSModeGet                                                
0001eb07  NOROM_VIMSModeSet                                                
0001c66d  NOROM_uDMAChannelAttributeDisable                                
0001ddb9  NOROM_uDMAChannelSizeGet                                         
00016025  NVOCMP_loadApiPtrs                                               
20005434  NVOCMP_nvHandle                                                  
20005f14  NVOCMP_size                                                      
0001ebfb  NVSCC26XX_close                                                  
0001eca7  NVSCC26XX_control                                                
0001c0e9  NVSCC26XX_erase                                                  
00020008  NVSCC26XX_fxnTable                                               
0001decd  NVSCC26XX_getAttrs                                               
0001a4ad  NVSCC26XX_init                                                   
0001dee5  NVSCC26XX_lock                                                   
000164f9  NVSCC26XX_open                                                   
00019bd9  NVSCC26XX_read                                                   
0001e99d  NVSCC26XX_unlock                                                 
0000d0d5  NVSCC26XX_write                                                  
0001ecad  NVS_Params_init                                                  
00020360  NVS_config                                                       
00020471  NVS_count                                                        
000207c0  NVS_defaultParams                                                
0001ecb3  NVS_erase                                                        
0001ecb9  NVS_getAttrs                                                     
0001c699  NVS_init                                                         
0001a121  NVS_open                                                         
0001e7f1  NVS_read                                                         
0001e48d  NVS_write                                                        
0001ba59  OsalPortTimers_cleanUpTimers                                     
0001e9d9  OsalPortTimers_registerCleanupEvent                              
0001cab9  OsalPort_buildUint32                                             
00017b71  OsalPort_clearEvent                                              
0001a965  OsalPort_deleteTimer                                             
0001eb6b  OsalPort_enterCS                                                 
0001edc9  OsalPort_free                                                    
0001cc55  OsalPort_heapGetStats                                            
0001683d  OsalPort_heapInit                                                
0001ecdd  OsalPort_leaveCS                                                 
0001edcd  OsalPort_malloc                                                  
0001dab5  OsalPort_memcmp                                                  
0001e689  OsalPort_memcpy                                                  
0001d039  OsalPort_msgAllocate                                             
0001d903  OsalPort_msgDeallocate                                           
0001ce59  OsalPort_msgDequeue                                              
0001cc7d  OsalPort_msgEnqueue                                              
0001a9a5  OsalPort_msgEnqueueMax                                           
0001c119  OsalPort_msgExtract                                              
0001ddd3  OsalPort_msgPush                                                 
000187f9  OsalPort_msgReceive                                              
00018d45  OsalPort_msgSend                                                 
00016e15  OsalPort_pwrmgrTaskState                                         
0001ba8d  OsalPort_registerTask                                            
000181a9  OsalPort_setEvent                                                
00015e25  OsalPort_setTimer                                                
0001e9e5  OsalPort_stopTimer                                               
0001b3e5  OsalPort_waitEvent                                               
0001e699  PWM_Params_init                                                  
0001ece3  PWM_close                                                        
UNDEFED   PWM_config                                                       
UNDEFED   PWM_count                                                        
00020378  PWM_defaultParams                                                
0001a4f1  PWM_init                                                         
0001a9e5  PWM_open                                                         
0001ece9  PWM_setDuty                                                      
0001ecef  PWM_start                                                        
0001aa25  PowerCC26X2_RCOSC_clockFunc                                      
00009bc9  PowerCC26X2_auxISR                                               
0000e001  PowerCC26X2_calibrate                                            
00020488  PowerCC26X2_config                                               
0001d665  PowerCC26X2_disableTCXOQual                                      
0001d685  PowerCC26X2_enableTCXOQual                                       
0001dad1  PowerCC26X2_getOscHfSourceReady                                  
00017bd5  PowerCC26X2_initiateCalibration                                  
20006000  PowerCC26X2_module                                               
0001edd1  PowerCC26X2_oscClockSourceGet                                    
0001e6a9  PowerCC26X2_oscCtlClearXtal                                      
0001c149  PowerCC26X2_oscDisableQualifiers                                 
0001edd5  PowerCC26X2_oschfSwitchToRcosc                                   
0001ec1b  PowerCC26X2_oschfTrySwitchToXosc                                 
0001e6b9  PowerCC26X2_prcmEnableCacheRetention                             
0001e6c9  PowerCC26X2_readCtrim                                            
0001e6d9  PowerCC26X2_readCtrimFract                                       
0001e6e9  PowerCC26X2_readRtrim                                            
0001c6c5  PowerCC26X2_releasePeriphDependency                              
0001bac1  PowerCC26X2_setAclkRefSrc                                        
0001edd9  PowerCC26X2_setPeriphDeepSleepEnable                             
0001c6f1  PowerCC26X2_setPeriphDependency                                  
0001c71d  PowerCC26X2_setSubSecIncToXoscLf                                 
0001c179  PowerCC26X2_setTdcClkSrc24M                                      
0001e6f9  PowerCC26X2_switchToTCXO                                         
0001eddd  PowerCC26X2_sysCtrlGetResetSource                                
0001ede1  PowerCC26X2_sysCtrlIdle                                          
0001eb75  PowerCC26X2_sysCtrlStandby                                       
0001ede5  PowerCC26X2_sysCtrlUpdateVoltageRegulator                        
0001ede9  PowerCC26X2_turnOnXosc                                           
00017635  PowerCC26X2_updateSubSecInc                                      
0001daed  PowerCC26X2_writeCtrim                                           
0001db09  PowerCC26X2_writeCtrimFract                                      
0001db25  PowerCC26X2_writeCtrimFractEn                                    
0001db41  PowerCC26X2_writeRtrim                                           
0001defd  PowerCC26XX_calibrate                                            
0001cca5  PowerCC26XX_isStableXOSC_HF                                      
0001c1a9  PowerCC26XX_schedulerDisable                                     
0001d327  PowerCC26XX_schedulerRestore                                     
0000f245  PowerCC26XX_standbyPolicy                                        
20005e74  PowerCC26XX_swiKey                                               
0001a1b1  PowerCC26XX_switchXOSC_HF                                        
20005e78  PowerCC26XX_taskKey                                              
0001e9f1  Power_getConstraintMask                                          
0001db5d  Power_getTransitionLatency                                       
0001df15  Power_idleFunc                                                   
0000d429  Power_init                                                       
0001d05d  Power_registerNotify                                             
0001baf5  Power_releaseConstraint                                          
000129a1  Power_releaseDependency                                          
0001c1d9  Power_setConstraint                                              
000123cd  Power_setDependency                                              
0000b1a9  Power_sleep                                                      
0001d6a5  Power_unregisterNotify                                           
00020690  RFCC26XX_hwAttrs                                                 
20006bc8  RFCC26XX_schedulerPolicy                                         
0001e9fd  RF_Params_init                                                   
0001e829  RF_RatConfigCompare_init                                         
0001ecf5  RF_RatConfigOutput_init                                          
0001df2d  RF_ScheduleCmdParams_init                                        
0001a535  RF_TxPowerTable_findValue                                        
0001df45  RF_cancelCmd                                                     
0000c1d9  RF_close                                                         
20005c74  RF_cmdFsRx                                                       
20005c8c  RF_cmdFsTx                                                       
00020390  RF_cmdFs_2gfsk200kbps154g                                        
20005a10  RF_cmdIEEECsma                                                   
20005140  RF_cmdIEEERx                                                     
20005ca4  RF_cmdIEEETx                                                     
20006ad8  RF_cmdNop                                                        
20006ae8  RF_cmdNopFg                                                      
20005b78  RF_cmdPropCs                                                     
20005b94  RF_cmdPropCsSlotted                                              
00020230  RF_cmdPropCs_2gfsk200kbps154g                                    
200057bc  RF_cmdPropRadioDivSetup                                          
00020030  RF_cmdPropRadioDivSetup_2gfsk200kbps154g                         
200057ec  RF_cmdPropRxAdv                                                  
0001ff24  RF_cmdPropRxAdv_2gfsk200kbps154g                                 
20005a30  RF_cmdPropTxAdv                                                  
00020158  RF_cmdPropTxAdv_2gfsk200kbps154g                                 
20005a50  RF_cmdRadioSetup                                                 
20005d10  RF_cmdRxAckCmd                                                   
00010811  RF_control                                                       
0001eded  RF_defaultExecutionPolicy                                        
00014301  RF_defaultSubmitPolicy                                           
0001e305  RF_flushCmd                                                      
0001e49f  RF_getCmdOp                                                      
00019c71  RF_getCurrentTime                                                
00015a91  RF_getInfo                                                       
0001d6e5  RF_getRssi                                                       
00014d85  RF_getTxPower                                                    
20006bac  RF_handle                                                        
00006805  RF_open                                                          
20005a70  RF_params                                                        
00012fd1  RF_pendCmd                                                       
0001bb29  RF_powerConstraintRelease                                        
0001dbb1  RF_powerConstraintSet                                            
20006af8  RF_prop_2gfsk200kbps154g                                         
0001e165  RF_ratCompare                                                    
00016121  RF_ratDisableChannel                                             
00013c3d  RF_requestAccess                                                 
0001ed01  RF_runDirectCmd                                                  
0001ed07  RF_runImmediateCmd                                               
00008139  RF_scheduleCmd                                                   
0001d745  RF_setTxPower                                                    
00015b15  RF_yield                                                         
0001b41d  Random_getNumber                                                 
000172d5  Random_seedAutomatic                                             
0001edf1  ResetISR                                                         
0001e709  RingBuf_construct                                                
0001c505  RingBuf_getConsume                                               
0001edf5  RingBuf_getCount                                                 
0001d36b  RingBuf_getPointer                                               
0001a289  RingBuf_put                                                      
0001b455  RingBuf_putAdvance                                               
0001c533  RingBuf_putPointer                                               
0001b48d  SemaphoreP_constructBinary                                       
00018209  SemaphoreP_createBinary                                          
0001bf03  SemaphoreP_delete                                                
0001d111  SemaphoreP_destruct                                              
0001eb7f  SemaphoreP_pend                                                  
0001edf9  SemaphoreP_post                                                  
0001e4b1  StructRingBuf_construct                                          
00019cbd  StructRingBuf_get                                                
0001e837  StructRingBuf_isFull                                             
0001905b  StructRingBuf_put                                                
0001e719  SwiP_Params_init                                                 
00011479  SwiP_construct                                                   
0001dbe9  SwiP_destruct                                                    
0001e729  SwiP_disable                                                     
0001ea09  SwiP_getTrigger                                                  
0001df75  SwiP_or                                                          
0001edfd  SwiP_restore                                                     
0001b4c5  SwiP_setPriority                                                 
0001e577  TI_memcpy_small                                                  
0001e909  TI_memset_small                                                  
0001e319  TRNG_close                                                       
00015291  TRNG_construct                                                   
0002049c  TRNG_defaultParams                                               
0001ee01  TRNG_generateEntropy                                             
0001cae3  TRNG_generateKey                                                 
00018df5  TRNG_init                                                        
20005e7c  Time_to_bytes                                                    
000207c4  TimestampP_nativeFormat32                                        
000207c8  TimestampP_nativeFormat64                                        
0001ea15  UART2Support_disableTx                                           
0000f8f5  UART2Support_dmaStartRx                                          
00012545  UART2Support_dmaStartTx                                          
00018627  UART2Support_dmaStopRx                                           
000167c7  UART2Support_dmaStopTx                                           
0001c7cd  UART2Support_enableInts                                          
0001ea21  UART2Support_enableRx                                            
0001ea2d  UART2Support_enableTx                                            
0001cb0d  UART2Support_powerRelConstraint                                  
0001ce7f  UART2Support_powerSetConstraint                                  
0001d38d  UART2Support_sendData                                            
0001e739  UART2Support_txDone                                              
0001ea39  UART2_Params_init                                                
00020734  UART2_config                                                     
00020472  UART2_count                                                      
000200a8  UART2_defaultParams                                              
0000a205  UART2_open                                                       
0001d3af  UART2_read                                                       
0001a1f9  UART2_readFull                                                   
00008a89  UART2_readTimeout                                                
0001b4fd  UART2_rxEnable                                                   
0001e845  UART2_write                                                      
0001d921  UART2_writeTimeout                                               
0000a805  UART2_writeTimeoutBlocking                                       
0000d659  UART2_writeTimeoutNonblocking                                    
0002073c  UDMACC26XX_config                                                
0001eb93  UDMACC26XX_hwiIntFxn                                             
00017d65  UDMACC26XX_open                                                  
20005658  UTC_clock                                                        
0001ea45  UTC_getClock                                                     
0001a5bd  UTC_init                                                         
0001ea51  UTC_setClock                                                     
20006c04  UTC_timeSeconds                                                  
000190b1  UtilTimer_construct                                              
0001ee05  UtilTimer_isActive                                               
0001ec23  UtilTimer_setTimeout                                             
0001ee09  UtilTimer_start                                                  
0001ee0d  UtilTimer_stop                                                   
0001ec2b  Util_breakUint32                                                 
0001ed0d  Util_buildUint16                                                 
0001e853  Util_buildUint32                                                 
0001df8d  Util_clearEvent                                                  
0001eb9d  Util_copyExtAddr                                                 
0001ee11  Util_hiUint16                                                    
0001ee15  Util_loUint16                                                    
0001dfa5  Util_setEvent                                                    
20004810  _CIOBUF_                                                         
20004810  __CIOBUF_                                                        
20040000  __STACK_END                                                      
00005000  __STACK_SIZE                                                     
00000000  __TI_ATRegion0_region_sz                                         
00000000  __TI_ATRegion0_src_addr                                          
00000000  __TI_ATRegion0_trg_addr                                          
00000000  __TI_ATRegion1_region_sz                                         
00000000  __TI_ATRegion1_src_addr                                          
00000000  __TI_ATRegion1_trg_addr                                          
00000000  __TI_ATRegion2_region_sz                                         
00000000  __TI_ATRegion2_src_addr                                          
00000000  __TI_ATRegion2_trg_addr                                          
00020b44  __TI_CINIT_Base                                                  
00020b74  __TI_CINIT_Limit                                                 
00020b74  __TI_CINIT_Warm                                                  
00020b10  __TI_Handler_Table_Base                                          
00020b1c  __TI_Handler_Table_Limit                                         
0001b80d  __TI_auto_init_nobinit_nopinit                                   
0001bb91  __TI_cleanup                                                     
20006b98  __TI_cleanup_ptr                                                 
00016925  __TI_closefile                                                   
00017045  __TI_decompress_lzss                                             
0001e917  __TI_decompress_none                                             
00019739  __TI_doflush                                                     
20006b9c  __TI_dtors_ptr                                                   
20006c0c  __TI_ft_end                                                      
ffffffff  __TI_pprof_out_hndl                                              
00006349  __TI_printfi_minimal                                             
ffffffff  __TI_prof_data_size                                              
ffffffff  __TI_prof_data_start                                             
0001c239  __TI_readmsg                                                     
00000000  __TI_static_base__                                               
20004e60  __TI_tmpnams                                                     
0001bbc5  __TI_writemsg                                                    
00018269  __TI_wrt_ok                                                      
0001e7a9  __TI_zero_init                                                   
0001f4a0  __aeabi_ctype_table_                                             
0001f4a0  __aeabi_ctype_table_C                                            
20006c10  __aeabi_errno                                                    
0001ec35  __aeabi_errno_addr                                               
0000a07b  __aeabi_ldiv0                                                    
0001d941  __aeabi_llsl                                                     
0001ec3d  __aeabi_memclr                                                   
0001ec3d  __aeabi_memclr4                                                  
0001ec3d  __aeabi_memclr8                                                  
0001ee19  __aeabi_memcpy                                                   
0001ee19  __aeabi_memcpy4                                                  
0001ee19  __aeabi_memcpy8                                                  
0001ee1d  __aeabi_memmove                                                  
0001ee1d  __aeabi_memmove4                                                 
0001ee1d  __aeabi_memmove8                                                 
0001eba9  __aeabi_memset                                                   
0001eba9  __aeabi_memset4                                                  
0001eba9  __aeabi_memset8                                                  
0001e341  __aeabi_uldivmod                                                 
0001d941  __ashldi3                                                        
ffffffff  __binit__                                                        
0001ee68  __c_args__                                                       
50000000  __ccfg                                                           
UNDEFED   __mpu_init                                                       
2003b000  __stack                                                          
ffffffff  __start___llvm_prf_bits                                          
ffffffff  __start___llvm_prf_cnts                                          
ffffffff  __stop___llvm_prf_bits                                           
ffffffff  __stop___llvm_prf_cnts                                           
00012d19  __udivmoddi4                                                     
0001e355  _args_main                                                       
0001be9d  _c_int00                                                         
20006478  _device                                                          
20006178  _ftable                                                          
20006b08  _hposcCoeffs                                                     
20006c14  _lock                                                            
0000b6c3  _nop                                                             
00014399  _pthread_cleanupFxn                                              
000148e9  _pthread_removeThreadKeys                                        
0001ea5d  _register_lock                                                   
0001ea69  _register_unlock                                                 
20006744  _stream                                                          
0001ee21  _system_post_cinit                                               
0001ee25  _system_pre_init                                                 
20006c18  _unlock                                                          
00020058  activityObject                                                   
00020473  aesccmCC26X4HWAttrs                                              
20005078  aesccmCC26X4Objects                                              
00012dc9  allDevicesInNetwork                                              
20006c1c  appEvents                                                        
20005f15  appTaskId                                                        
0001e4d5  assertHandler                                                    
20006ca4  assoc_resp_no_ack_cnt                                            
0001aa65  atoi                                                             
20006cb0  bInSwi                                                           
ffffffff  binit                                                            
20005e80  cli                                                              
000192ad  cli_printf                                                       
000182c9  close                                                            
20005dd8  coexMetricsStruct                                                
20005e23  coexOverrideUseCases                                             
20005198  collectorTask                                                    
20005984  collectorTaskParam                                               
20002c70  collectorTaskStack                                               
00015055  collectorTask_                                                   
200051f0  consoleTask                                                      
200059a8  consoleTaskParam                                                 
20000470  consoleTaskStack                                                 
0001a81d  console_taskInit                                                 
20005248  controlTask                                                      
200059cc  controlTaskParam                                                 
20001870  controlTaskStack                                                 
00011ac3  control_Task_Noti_Info_mail                                      
00012e77  control_taskInit                                                 
20006c20  control_task_DevInfo_mail_handle                                 
20005bb0  control_task_DevInfo_mail_params                                 
20006c24  control_task_NotiInfo_handle                                     
20005bcc  control_task_NotiInfo_params                                     
20003c70  control_task_dev_info                                            
20006c28  control_task_joinedDev_mail_handle                               
20005be8  control_task_joinedDev_mail_params                               
000120d5  control_task_mail_post_DevInfo                                   
20005d5e  conv                                                             
0001a85f  convertTxOptions                                                 
0001dded  copyApiMacAddrToMacAddr                                          
0001d3d1  crc_update                                                       
20006cb5  csmPhy                                                           
20006cb7  customMinTxOffEnabled                                            
20005754  dcBucket                                                         
20005e84  dcCritical                                                       
20006cb9  dcEnabled                                                        
20005e88  dcLimited                                                        
20005e8c  dcPtr                                                            
20005e90  dcRegulated                                                      
20005f16  dcStatus                                                         
20005e94  dcTimeUsed                                                       
00019aa7  displayTime                                                      
0001b005  embeddedCliAddBinding                                            
00018ad9  embeddedCliGetToken                                              
0001d135  embeddedCliGetTokenCount                                         
0000b809  embeddedCliNew                                                   
0001c299  embeddedCliNewDefault                                            
0000f33d  embeddedCliPrint                                                 
00000b51  embeddedCliProcess                                               
0001b535  embeddedCliReceiveChar                                           
00014bcd  embeddedCliTokenizeArgs                                          
20004b2c  enhancedAckBuf                                                   
0001dc05  eraseDevInfo                                                     
200064f0  fhObject                                                         
0001c7f9  finddevice                                                       
0001d95f  free                                                             
0001ee2d  fseek                                                            
00017705  fseeko                                                           
0000a50d  fwrite                                                           
20005f17  gAction                                                          
0001776d  getdevice                                                        
20006c2c  gmt                                                              
20006cbc  gmt_zone                                                         
20004c28  gpioCallbackFunctions                                            
20006268  gpioPinConfigs                                                   
20004ce8  gpioUserArgs                                                     
2003b000  heapEnd                                                          
20006efc  heapStart                                                        
20006b54  heapmgrMemFreeError                                              
20006b50  heapmgrMemFreeTotal                                              
20006a10  ieeeCoexEnabled                                                  
20005f04  joinedDev_mail                                                   
20006a14  lastPostCmd                                                      
20006a08  lastRatChanA                                                     
20006a09  lastRatChanB                                                     
20005f18  lastRxPriority                                                   
20005f19  lastTxPriority                                                   
0001c825  lseek                                                            
20005d24  macAckDbg                                                        
20005f1a  macAckTxActive                                                   
200069e4  macActionSet                                                     
20005e98  macAddrLsb                                                       
20005e9c  macAddrMsb                                                       
0000c7b1  macAllocTxBuffer                                                 
0001c851  macApiAssociateRsp                                               
0001ed13  macApiBadState                                                   
00012b09  macApiDataReq                                                    
000173ad  macApiDisassociateReq                                            
00018e4d  macApiOrphanRsp                                                  
0001d159  macApiPending                                                    
0001497d  macApiPurgeReq                                                   
0000c687  macApiPwrOnReq                                                   
0000ac41  macApiScanReq                                                    
00013525  macApiStartReq                                                   
0001ed19  macApiUnsupported                                                
0001bc2d  macApiWSAsyncReq                                                 
0002075c  macAuthTagLen                                                    
00013cdd  macAutoPendAddSrcMatchTableEntry                                 
0001307d  macAutoPendMaintainSrcMatchTable                                 
0001ee31  macBcTimerHandler                                                
20005a90  macBeacon                                                        
20005788  macBeaconDevice                                                  
20006a28  macBeaconMargin                                                  
200068d4  macBeaconPayload                                                 
0001dfd5  macBeaconReset                                                   
00019301  macBeaconSetupCap                                                
0001b56d  macBeaconStopTrack                                               
00018329  macBeaconSyncLoss                                                
00015b99  macBlacklistChecking                                             
0000e42d  macBuildAssociateRsp                                             
0000c8d9  macBuildBeacon                                                   
00012bb9  macBuildBeaconNotifyInd                                          
0000a979  macBuildCommonReq                                                
0000e535  macBuildDataFrame                                                
000108ed  macBuildDisassociateReq                                          
00004d55  macBuildHeader                                                   
00011b89  macBuildHeaderIes                                                
00012c69  macBuildPayloadCoexistIe                                         
0000dde5  macBuildPayloadIes                                               
00013d7d  macBuildPendAddr                                                 
00014a11  macBuildRealign                                                  
00018855  macBuildWSAsyncMsg                                               
00014135  macBuildWSAsyncReq                                               
000188b1  macCanSleep                                                      
000206a8  macCbackEventTbl                                                 
00013e1d  macCbackForEvent                                                 
0001565d  macCcmDecrypt                                                    
00015c1d  macCcmEncrypt                                                    
000156e5  macCcmStarInverseTransform                                       
00010aa5  macCcmStarTransform                                              
20006b18  macCfg                                                           
00019789  macCheckIndPacket                                                
0001de07  macCheckPhyMode                                                  
000197d9  macCheckPhyRate                                                  
0001e4f9  macCheckSched                                                    
0002060b  macCmdBufSize                                                    
0001feb8  macCmdIncludeFHIe                                                
000206f6  macCmdLen                                                        
000113ad  macCommStatusInd                                                 
0001e369  macConflictSyncLossInd                                           
20005908  macCoord                                                         
20005e2c  macCoordAction1                                                  
20005c04  macCoordAction2                                                  
20005d60  macCoordAction3                                                  
0001d17d  macCoordAddrCmp                                                  
000135cd  macCoordReset                                                    
0001fdb8  macCryptoDriverTable                                             
20005ea0  macCryptoDrvTblPtr                                               
20006bb8  macCsmaRtcTimerId                                                
0001ec45  macCsmaTimerExpiry                                               
20005d70  macData                                                          
20006c34  macDataBeaconRequeue                                             
20006c38  macDataCheckSched                                                
20006c3c  macDataCheckTxTime                                               
20006c40  macDataRequeueIndirect                                           
00018389  macDataReset                                                     
20006c44  macDataRxBeaconCritical                                          
0001b5a5  macDataRxInd                                                     
0001dc21  macDataRxMemAlloc                                                
0001ebb3  macDataRxMemFree                                                 
0001e37d  macDataSend                                                      
20006c48  macDataSetSched                                                  
20006c4c  macDataTxBeaconComplete                                          
000139b1  macDataTxComplete                                                
20005d80  macDataTxDelay                                                   
0001ee35  macDataTxDelayCallback                                           
00013129  macDataTxEnqueue                                                 
20006c50  macDataTxIndirect                                                
0000b2f1  macDataTxSend                                                    
0001e749  macDataTxTimeAvailable                                           
0001ea75  macDefaultAction                                                 
0001ae5b  macDestAddrCmp                                                   
0001a8a1  macDestSAddrCmp                                                  
20005934  macDevice                                                        
0001c2c9  macDeviceDescriptorLookup                                        
000177d5  macDisassocComplete                                              
00017419  macDutyCycleByteToUSec                                           
0001c87d  macDutyCycleCheck                                                
0000ce95  macDutyCycleInit                                                 
0001bc61  macDutyCycleUpdateTransmission                                   
00010ed1  macEdScanISR                                                     
000183e9  macExecute                                                       
0001dfed  macFrameDuration                                                 
0001c2f9  macFrameDurationIeee                                             
00015ea5  macFrameDurationSubG                                             
20005d90  macFrmFilter                                                     
20006a0b  macFsCmdActive                                                   
0001ec4d  macGetCSMPhy                                                     
0001e005  macGetMyAddrMode                                                 
00012a55  macGetRFCmdDuration                                              
0001d765  macGetRadioState                                                 
00019d09  macGetRadioTxPowerReg                                            
0001c329  macHandleTxAck                                                   
0001ec55  macIEEEGetPhyDesc                                                
000205dc  macIEEEPhyTable                                                  
0001f9bb  macIdleSt                                                        
0000b6c5  macIncomingFrameSecurity                                         
0000a389  macIncomingFrameSecurityMaterialRetrieval                        
00019355  macIncomingKeyUsagePolicyChecking                                
0001b5dd  macIncomingNonSlottedTx                                          
00014431  macIncomingSecurityLevelChecking                                 
00010495  macIndirectExpire                                                
00019d55  macIndirectMark                                                  
000193a9  macIndirectRequeueFrame                                          
00014e15  macIndirectSend                                                  
0001890d  macIndirectTxFrame                                               
0001ea81  macIsCsmOperational                                              
00016999  macKeyDescriptorLookup                                           
000207d0  macKeySourceLen                                                  
0001e86f  macLowLevelBufferInit                                            
0001cea5  macLowLevelDiags                                                 
0001783d  macLowLevelInit                                                  
0001e87d  macLowLevelReset                                                 
0001e88b  macLowLevelResume                                                
200063d8  macMRFSKGenPhyTable                                              
0001b041  macMRFSKGetPhyDesc                                               
0001fc98  macMRFSKStdPhyTable                                              
20005de4  macMain                                                          
0001e391  macMainReserve                                                   
0001a241  macMainReset                                                     
0001ea8d  macMainSetTaskId                                                 
0000d0d3  macMcuBitReverse                                                 
00017dc9  macMcuInit                                                       
0001dc3d  macMcuOverflowCapture                                            
00016a0d  macMcuOverflowSetCompare                                         
0001619d  macMcuOverflowSetPeriod                                          
0001ebbd  macMcuRandomByte                                                 
0001d785  macMcuTimerCapture                                               
20005f1b  macMgmt                                                          
2000581c  macMgmtAction1                                                   
20005d38  macMgmtAction2                                                   
00013a55  macMgmtReset                                                     
0000d427  macNoAction                                                      
0001dc59  macNopBackoffTimerExpiry                                         
00010575  macOutgoingFrameKeyDescRetrieval                                 
000116dd  macOutgoingFrameSecurity                                         
20005f1c  macPanCoordinator                                                
20005f1d  macPhyChannel                                                    
20005ea4  macPhyTxPower                                                    
20004f88  macPib                                                           
0001ee39  macPibCheckByPatch                                               
0001f8ac  macPibDefaults                                                   
0001d7a5  macPibIndex                                                      
0001ccf5  macPibReset                                                      
0001f6a1  macPibTbl                                                        
20005ea8  macPrevPeriodRatCount                                            
20005f1e  macPwr                                                           
0001ea99  macPwrReset                                                      
00016219  macPwrVote                                                       
20006bb3  macRadioAckFrame                                                 
20006bb0  macRadioAckIeeeFrame                                             
0001cb37  macRadioComputeLQI                                               
00005041  macRadioCsmaTxCb                                                 
000153a9  macRadioFHEncryptFrame                                           
0001e01d  macRadioInit                                                     
0000cd71  macRadioInitIeee                                                 
000060e1  macRadioInitSubG                                                 
0000ba8d  macRadioLbtTxCb                                                  
0001c359  macRadioLimitTxPower                                             
0001b615  macRadioNeedAdjustPower                                          
000178a5  macRadioPowerDown                                                
0001bc95  macRadioPowerUp                                                  
0001c8a9  macRadioPowerUpWait                                              
0001ee3d  macRadioRandomByte                                               
00019da1  macRadioSendEnhAck                                               
0001576d  macRadioSendImmAck                                               
00019829  macRadioSetChannel                                               
0001b64d  macRadioSetIEEEAddr                                              
0001b07d  macRadioSetPanCoordinator                                        
0001b0b9  macRadioSetPanID                                                 
0000d887  macRadioSetRE                                                    
0001d7c5  macRadioSetShortAddr                                             
0001e191  macRadioSetTxPower                                               
00016f65  macRadioStartScan                                                
0001bcc9  macRadioStopScan                                                 
0001d1a1  macRadioSwInit                                                   
00018ea5  macRadioTxBackoffBoundary                                        
0000e323  macRadioTxCancelTxAck                                            
00016a81  macRadioTxEnhAckCb                                               
00002f4d  macRadioTxGo                                                     
0001ed1f  macRadioTxGoGreenPower                                           
00018efd  macRadioTxGoLbt                                                  
0001ed25  macRadioTxGoSlotted                                              
0001bcfd  macRadioTxGoSlottedCsma                                          
00019ded  macRadioTxHandleAck                                              
0001e035  macRadioTxPrepCsmaSlotted                                        
00019879  macRadioTxPrepCsmaSlottedIeee                                    
00011071  macRadioTxPrepCsmaSlottedSubG                                    
0001e04d  macRadioTxPrepCsmaUnslotted                                      
0001c389  macRadioTxPrepCsmaUnslottedIeee                                  
0001a645  macRadioTxPrepCsmaUnslottedSubG                                  
0001bd31  macRadioTxPrepGreenPower                                         
00017e2d  macRadioTxPrepLbt                                                
000193fd  macRadioTxPrepSlotted                                            
00007319  macRadioTxRequestTxAck                                           
000157f5  macRadioUpdateChannel                                            
000198c9  macRadioUpdateTxPower                                            
00019e39  macRadioWakeupCb                                                 
20006cc2  macRadioYielded                                                  
0001d1c5  macRatCb_A                                                       
0001c8d5  macRatCb_B                                                       
0001c901  macRatDisableChannelB                                            
0001a689  macRatDisableChannels                                            
000165e9  macRequestBackoff                                                
00019451  macRequestSFDTimeout                                             
20005c20  macReset                                                         
0001fb14  macRfDriverTable                                                 
20005eac  macRfDrvTblPtr                                                   
0001dc91  macRxAckTxDoneCallback                                           
20005f1f  macRxActive                                                      
0001aae5  macRxAssociateReq                                                
0001ee41  macRxBackoffHandler                                              
0001ec5d  macRxBackoffTimerExpiry                                          
000144c9  macRxBeacon                                                      
0000c305  macRxBeaconCritical                                              
0001bd65  macRxBeaconReq                                                   
00004a61  macRxCb                                                          
0001b685  macRxCheckMACPendingCallback                                     
0001d7e5  macRxCheckPendingCallback                                        
20006a0a  macRxCmdActive                                                   
0000ed51  macRxCompleteCallback                                            
20005f06  macRxDataEntryOffset                                             
20005e34  macRxDataEntryQueue                                              
00015f25  macRxDataReq                                                     
0001b0f5  macRxDisable                                                     
00018969  macRxDisassoc                                                    
0001d805  macRxEnable                                                      
20005f20  macRxEnableFlags                                                 
20005f21  macRxFilter                                                      
00001ba1  macRxFrameIsr                                                    
00017e91  macRxHaltCleanup                                                 
0001c92d  macRxHardDisable                                                 
00013675  macRxInit                                                        
0001a6cd  macRxNokIsr                                                      
0001cd1d  macRxOff                                                         
00017485  macRxOffRequest                                                  
00018f55  macRxOn                                                          
0001d825  macRxOnOffInit                                                   
0001e3a5  macRxOnRequest                                                   
0001c561  macRxOrphan                                                      
20005f22  macRxOutgoingAckFlag                                             
20005da0  macRxOutputIeee                                                  
20005df0  macRxOutputSubG                                                  
0001e759  macRxPanConflict                                                 
20006a0c  macRxPreempted                                                   
0001d845  macRxSFDTimerExpiry                                              
0001eaa5  macRxSequenceNum                                                 
0001d1e9  macRxSoftDisable                                                 
0001d20d  macRxSoftEnable                                                  
20005eb0  macRxSymbol                                                      
200052f8  macScan                                                          
20005cbc  macScanAction                                                    
0001bd99  macScanCnfInit                                                   
00018449  macScanComplete                                                  
0001d97d  macScanFailedInProgress                                          
0000ee51  macScanNextChan                                                  
00010b7d  macScanRxBeacon                                                  
0001790d  macScanStartTimer                                                
0001fa2d  macScanningSt                                                    
0001ed2b  macSecCpy                                                        
2000569c  macSecurityPib                                                   
000088b1  macSecurityPibReset                                              
0001fbe8  macSecurityPibTbl                                                
20005c3c  macSemHandle                                                     
000117a5  macSendDataMsg                                                   
0001a711  macSendFsCmd                                                     
000184a9  macSendMsg                                                       
000203a8  macSendMsgBufSize                                                
000206b4  macSendMsgDataSize                                               
0001e065  macSendReceiveCmd                                                
00008c5d  macSendReceiveCmdIeee                                            
0000774d  macSendReceiveCmdSubG                                            
0001ab25  macSetDefaultsByPatch                                            
0000bf75  macSetDefaultsByPhyID                                            
0001c959  macSetDefaultsByRE                                               
0001e779  macSetEvent                                                      
0001e769  macSetEvent16                                                    
0001ebc7  macSetSched                                                      
0001cd45  macSetTxPowerVal                                                 
0001c3b9  macSetUserConfig                                                 
000174f1  macSetupFsCmd                                                    
0000f9e5  macSetupRATChanCompare                                           
00016295  macSetupReceiveCmd                                               
20006a18  macSfdDetectCback                                                
20005f23  macSpecUsecsPerSymbol                                            
2000584c  macSrcExtAddrList                                                
20006ac6  macSrcMatchDefaultPendOn                                         
20006ac5  macSrcMatchIsAckAllPending                                       
20006cc3  macSrcMatchIsEnabled                                             
20006cc4  macSrcMatchManualAddressTracking                                 
20005f24  macSrcResIndex                                                   
20005c58  macSrcShortAddrList                                              
0000f61d  macStartBegin                                                    
0001d255  macStartComplete                                                 
0001a755  macStartContinue                                                 
00012831  macStartSetParams                                                
0001fa9f  macStartingSt                                                    
0001e3b9  macStateIdleOrPolling                                            
0001e3cd  macStateScanning                                                 
20006a8c  macStateTbl                                                      
20005d4c  macStatistics                                                    
00014f35  macStopCmd                                                       
0001e3e1  macSymbolSetupPwrMgmt                                            
0001c985  macSymbolTimerBCWakeUp                                           
0001e50b  macSymbolTimerCompareIsr                                         
0001b6bd  macSymbolTimerCount                                              
0001b6f5  macSymbolTimerCreate                                             
00019e85  macSymbolTimerEventHandler                                       
0001c9b1  macSymbolTimerICallTimerCback                                    
20005f25  macSymbolTimerImpending                                          
00016661  macSymbolTimerInit                                               
00018509  macSymbolTimerPeriodIsr                                          
0001dcad  macSymbolTimerPowerDown                                          
0001e07d  macSymbolTimerRealign                                            
0001ab65  macSymbolTimerRealignIeee                                        
0001aba5  macSymbolTimerRealignSubG                                        
0001ee49  macSymbolTimerReset                                              
0001d279  macSymbolTimerRestore                                            
20005eb4  macSymbolTimerRollover                                           
00019ed1  macSymbolTimerRolloverCallback                                   
0001d29d  macSymbolTimerSetRollover                                        
0001be35  macSymbolTimerSetTrigger                                         
0001d865  macSymbolTimerSetTriggerRollover                                 
20005eb8  macSymbolTimerTrigger                                            
00014561  macSymbolTimerTriggerCallback                                    
00011141  macSymbolTimerUpdateWakeup                                       
20005f26  macTaskId                                                        
00014aa5  macTaskInit                                                      
20005ebc  macThread                                                        
0001d885  macTimer                                                         
20005ec0  macTimerActive                                                   
000194a5  macTimerAddTimer                                                 
0001c9dd  macTimerAligned                                                  
000194f9  macTimerCancel                                                   
00019919  macTimerGetNextTimer                                             
0001c3e9  macTimerInit                                                     
20006c60  macTimerNewRollover                                              
00017ef5  macTimerRealign                                                  
0001c419  macTimerRecalcUnaligned                                          
0001e1a7  macTimerRemoveTimer                                              
20006c64  macTimerRollover                                                 
0001fdf8  macTimerRolloverValue                                            
00017975  macTimerSetRollover                                              
0001abe5  macTimerUpdActive                                                
00016fd5  macTimerUpdateSymbolTimer                                        
00018569  macTrackPeriodCallback                                           
0001be69  macTxAbortIsr                                                    
0001ee4d  macTxAckIsr                                                      
0001b72d  macTxAckNotReceivedCallback                                      
0001954d  macTxAckReceivedCallback                                         
20005f27  macTxActive                                                      
0001ed31  macTxBackoffHandler                                              
0001ec65  macTxBackoffTimerExpiry                                          
20005f28  macTxBe                                                          
0000fe65  macTxChannelBusyCallback                                         
20006cc5  macTxCmdActive                                                   
00007f4d  macTxCompleteCallback                                            
20005f08  macTxCsmaBackoffDelay                                            
0001ed37  macTxCsmaDelay                                                   
0001b131  macTxDecrypt                                                     
00015fa5  macTxDoneCallback                                                
00009541  macTxFrame                                                       
00020619  macTxFrameFailed                                                 
0001ac25  macTxFrameIsr                                                    
0001b765  macTxFrameRetransmit                                             
00020627  macTxFrameSuccess                                                
000179dd  macTxGetDefaultMinTxOffTime                                      
20005f29  macTxGpInterframeDelay                                           
0001cd6d  macTxInit                                                        
000128e9  macTxRequestCsmaDelay                                            
00011f55  macTxRequestCsmaRtcDelay                                         
20006cc6  macTxSlottedDelay                                                
20006cc7  macTxSlottedDelayFactor                                          
0001371d  macTxStartQueuedFrame                                            
20005ec4  macTxTimestamp                                                   
0001ac65  macTxTimestampCallback                                           
20005f2a  macTxType                                                        
0001b79d  macTxUpdateIE                                                    
20005f2b  macUnitBackoffPeriod                                             
00016af5  macUpdateHeaderIEPtr                                             
000189c5  macUpdatePayloadIEPtr                                            
20006aa0  macUser0Cfg                                                      
0001e3f5  macWSAsyncCnf                                                    
0001e095  macWrapper8ByteUnused                                            
00004745  macWrapperAddDevice                                              
00009d5d  macWrapperAddKeyInitFCtr                                         
0000ca01  macWrapperDeleteDevice                                           
0001b16d  mac_msg_deallocate                                               
00015ca1  main                                                             
0001b25b  malloc                                                           
0001d99b  memccpy                                                          
0001cd95  memmove                                                          
20006c68  minTxOffTime                                                     
000204c4  msacbackSizeTable                                                
20006a0d  numRfCmd                                                         
20006a0e  numRxCmd                                                         
20006a0f  numRxPostCmd                                                     
20006cc9  numTx                                                            
20005f0a  nvsCC26XXObjects                                                 
20005ec8  nvsHandle                                                        
20005ecc  nvsParams                                                        
0001eab1  onClearCLI                                                       
0001e1bd  onCloseNWK                                                       
0001e1d3  onFormNWK                                                        
0001e1e9  onOpenNWK                                                        
0001ed3d  osalHeapAllocFxn                                                 
0001ed43  osalHeapFreeFxn                                                  
0001ed49  osalHeapGetStatsFxn                                              
0001eabd  osalHeapInitFxn                                                  
0001ee59  osalHeapIsBlockingFxn                                            
20005ed0  pClockHandleEDScan                                               
20006c74  pMacCbackCheckPending                                            
20006c78  pMacCbackQueryRetransmit                                         
20006c7c  pMacDataTx                                                       
20006c80  pMacEnhancedAck                                                  
20005ed4  pMacRadioConfig                                                  
20005ed8  pMaxPower                                                        
20006990  pOverrides_2gfsk200kbps154g                                      
20005edc  pRfMode                                                          
20005ee0  pRfPowerTable                                                    
0001d8a5  par_erase                                                        
0001b91d  par_init                                                         
00018085  par_load                                                         
000175c9  par_save                                                         
20005e13  parmbuf                                                          
20006cca  permitJoining                                                    
0001d8c5  pthread_attr_init                                                
0001eac9  pthread_attr_setdetachstate                                      
0001e51d  pthread_attr_setschedparam                                       
0001ec6d  pthread_attr_setstacksize                                        
00009389  pthread_create                                                   
00017f59  pthread_exit                                                     
000195a1  pthread_mutex_init                                               
00016cc3  pthread_mutex_lock                                               
0001b953  pthread_mutex_unlock                                             
0001e789  pthread_mutexattr_init                                           
0001e8a7  pthread_self                                                     
0001cb61  radioComputeED                                                   
20005dfc  regionAttrs                                                      
0001ee5d  remove                                                           
20006ccc  reqAccessAlloc                                                   
0001fb80  resourceDB                                                       
0001cdbd  rfSelect                                                         
00006c9d  rfSetConfigSubG                                                  
0001ca09  rf_patch_cpe_multi_protocol                                      
20005f0c  rxCmdHandle                                                      
20005f2c  rxFhRsl                                                          
20005f2d  rxPromiscuousMode                                                
20005ee4  rxRadioBufferPtr                                                 
20005f2e  rxSeqNum                                                         
0001cef1  sAddrCmp                                                         
0001e52f  sAddrCpy                                                         
0001d49d  sAddrExtCmp                                                      
0001ed4f  sAddrExtCpy                                                      
20006cce  save_par                                                         
20006ccf  savedCllcState                                                   
00012015  scheduleNopWakeupCmd                                             
00019a09  sem_init                                                         
0001ebd1  sem_post                                                         
0001e8b5  sem_wait                                                         
0000cfb5  sendMsg                                                          
0001ee61  setTime                                                          
000065b1  setTimeEpoch                                                     
0001d4bf  setWatchsTime                                                    
00010c55  setvbuf                                                          
00005349  strcmp                                                           
20006cac  symbol_rate_custom                                               
20003470  tBuffer                                                          
20006b4c  taskCnt                                                          
200046a8  taskTbl                                                          
000070f5  ti_sysbios_family_arm_v8m_Hwi_Instance_init                      
20006824  ti_sysbios_family_arm_v8m_Hwi_Module_state                       
0000e94d  ti_sysbios_family_arm_v8m_Hwi_dispatch                           
000166d9  ti_sysbios_family_arm_v8m_Hwi_dispatchC                          
20004a30  ti_sysbios_family_arm_v8m_Hwi_dispatchTable                      
0001ed55  ti_sysbios_family_arm_v8m_Hwi_doSwiRestore                       
0001ed5b  ti_sysbios_family_arm_v8m_Hwi_doTaskRestore                      
0001e799  ti_sysbios_family_arm_v8m_Hwi_excHandler                         
0001b7d5  ti_sysbios_family_arm_v8m_Hwi_excHandlerAsm                      
00018a21  ti_sysbios_family_arm_v8m_Hwi_initStacks                         
0000ea0e  ti_sysbios_family_arm_v8m_Hwi_interruptsAreDisabledButShouldNotBe
0000ea13  ti_sysbios_family_arm_v8m_Hwi_pendSV                             
20006e00  ti_sysbios_family_arm_v8m_Hwi_ramVectors                         
00000000  ti_sysbios_family_arm_v8m_Hwi_resetVectors                       
0000ea34  ti_sysbios_family_arm_v8m_Hwi_return                             
000207d8  ti_sysbios_family_arm_v8m_Hwi_swiTaskKeyAddress                  
0001d4e1  ti_sysbios_family_arm_v8m_Hwi_switchAndRunFunc                   
20006b64  ti_sysbios_family_arm_v8m_cc26x4_Timer_Module_state              
00009a2d  ti_sysbios_family_arm_v8m_cc26x4_Timer_construct                 
00018685  ti_sysbios_family_arm_v8m_cc26x4_Timer_dynamicMultiStub          
0001e541  ti_sysbios_family_arm_v8m_cc26x4_Timer_dynamicStub               
20005ee8  ti_sysbios_family_arm_v8m_cc26x4_Timer_funcHookCH1               
20005eec  ti_sysbios_family_arm_v8m_cc26x4_Timer_funcHookCH2               
20006bd0  ti_sysbios_gates_GateMutexPri_Module_state                       
0000ff49  ti_sysbios_gates_GateMutexPri_enter                              
00014b39  ti_sysbios_gates_GateMutexPri_leave                              
20006bd8  ti_sysbios_heaps_HeapCallback_Module_state                       
0001ed61  ti_sysbios_heaps_HeapCallback_alloc                              
0001ed67  ti_sysbios_heaps_HeapCallback_free                               
0001ed6d  ti_sysbios_heaps_HeapCallback_getStats                           
0001ed73  ti_sysbios_heaps_HeapCallback_isBlocking                         
200050e0  ti_sysbios_knl_ClockSupport_timerStruct                          
200065c4  ti_sysbios_knl_Clock_Module_state                                
0000f711  ti_sysbios_knl_Clock_init                                        
0000e219  ti_sysbios_knl_Clock_startI                                      
0001e8fb  ti_sysbios_knl_Clock_tick                                        
000207dc  ti_sysbios_knl_Clock_tickPeriod                                  
00008e2d  ti_sysbios_knl_Clock_workFuncDynamic                             
00020774  ti_sysbios_knl_Idle_funcList                                     
20006cd3  ti_sysbios_knl_Idle_initDone                                     
0001de21  ti_sysbios_knl_Idle_loop                                         
200044a8  ti_sysbios_knl_Idle_taskStack                                    
200052a0  ti_sysbios_knl_Idle_taskStruct                                   
0000d1f1  ti_sysbios_knl_Mailbox_Instance_init                             
20006be0  ti_sysbios_knl_Mailbox_Module_state                              
0001e553  ti_sysbios_knl_Mailbox_Params_init                               
00019647  ti_sysbios_knl_Mailbox_create                                    
0001ec75  ti_sysbios_knl_Mailbox_getNumPendingMsgs                         
00016b69  ti_sysbios_knl_Mailbox_pend                                      
000145f9  ti_sysbios_knl_Mailbox_post                                      
20006be8  ti_sysbios_knl_Semaphore_Module_state                            
0000c431  ti_sysbios_knl_Semaphore_pend                                    
00017fbd  ti_sysbios_knl_Semaphore_pendTimeout                             
00014c5f  ti_sysbios_knl_Semaphore_post                                    
200069bc  ti_sysbios_knl_Swi_Module_state                                  
00013f5d  ti_sysbios_knl_Swi_post                                          
2000587c  ti_sysbios_knl_Swi_readyQs                                       
00014fc5  ti_sysbios_knl_Swi_restore                                       
000101f1  ti_sysbios_knl_Swi_restoreHwi                                    
00012195  ti_sysbios_knl_Swi_runLoop                                       
000154c1  ti_sysbios_knl_Swi_startup                                       
0001e0ad  ti_sysbios_knl_TaskSupport_glue                                  
00016405  ti_sysbios_knl_TaskSupport_start                                 
0001b1a9  ti_sysbios_knl_TaskSupport_swap                                  
0001b1c2  ti_sysbios_knl_TaskSupport_swapReturn                            
0000e10d  ti_sysbios_knl_Task_Instance_finalize                            
00012253  ti_sysbios_knl_Task_Instance_init                                
20006860  ti_sysbios_knl_Task_Module_state                                 
0001dd01  ti_sysbios_knl_Task_Params_init                                  
0001cde5  ti_sysbios_knl_Task_construct                                    
20005ef0  ti_sysbios_knl_Task_defaultStackHeap                             
00015435  ti_sysbios_knl_Task_enter                                        
00014cf1  ti_sysbios_knl_Task_exit                                         
000109c9  ti_sysbios_knl_Task_postInit                                     
200058ac  ti_sysbios_knl_Task_readyQs                                      
000131d5  ti_sysbios_knl_Task_restore                                      
00014691  ti_sysbios_knl_Task_restoreHwi                                   
000126bd  ti_sysbios_knl_Task_setPri                                       
00011211  ti_sysbios_knl_Task_sleep                                        
00019f69  ti_sysbios_knl_Task_sleepTimeout                                 
00013281  ti_sysbios_knl_Task_startup                                      
20006b70  ti_sysbios_runtime_Error_ignore                                  
00013af9  ti_sysbios_runtime_Memory_alloc                                  
20006c94  ti_sysbios_runtime_Memory_defaultHeapInstance                    
20006cd4  ti_sysbios_runtime_Startup_done                                  
00006a51  ti_sysbios_runtime_Startup_exec                                  
20006b7c  ti_sysbios_runtime_System_Module_state                           
20005ef4  ti_sysbios_runtime_System_atexitHandlers                         
00003961  ti_sysbios_runtime_System_doPrint                                
0001bf35  ti_sysbios_runtime_System_exit                                   
0001ee65  ti_sysbios_runtime_System_exitSpin                               
0001bf67  ti_sysbios_runtime_System_printf                                 
20005ef8  timerAlignedQ                                                    
20005efc  timerUnalignedQ                                                  
20005f2f  txAckReq                                                         
20005f0e  txCmdHandle                                                      
0000dab1  txComplete                                                       
0000ada1  txCsmaDelay                                                      
20006328  txPowerTable_868_pa13                                            
20005f30  txSeqn                                                           
200002c0  uart2CC26X2Objects                                               
20005f00  uart2Handle                                                      
0002077c  udmaCC26XXHWAttrs                                                
20005ab0  udmaCC26XXObject                                                 
0001ca35  unlink                                                           
0001b1e5  vsnprintf                                                        
0001ca61  write                                                            


GLOBAL SYMBOLS: SORTED BY Symbol Address 

address   name                                                             
-------   ----                                                             
00000000  __TI_ATRegion0_region_sz                                         
00000000  __TI_ATRegion0_src_addr                                          
00000000  __TI_ATRegion0_trg_addr                                          
00000000  __TI_ATRegion1_region_sz                                         
00000000  __TI_ATRegion1_src_addr                                          
00000000  __TI_ATRegion1_trg_addr                                          
00000000  __TI_ATRegion2_region_sz                                         
00000000  __TI_ATRegion2_src_addr                                          
00000000  __TI_ATRegion2_trg_addr                                          
00000000  __TI_static_base__                                               
00000000  ti_sysbios_family_arm_v8m_Hwi_resetVectors                       
00000b4f  BIOS_nullFunc                                                    
00000b51  embeddedCliProcess                                               
00001ba1  macRxFrameIsr                                                    
000022e5  ApiMac_processIncoming                                           
00002949  Collector_process                                                
00002f4d  macRadioTxGo                                                     
00003961  ti_sysbios_runtime_System_doPrint                                
00004745  macWrapperAddDevice                                              
00004a61  macRxCb                                                          
00004d55  macBuildHeader                                                   
00005000  __STACK_SIZE                                                     
00005041  macRadioCsmaTxCb                                                 
00005329  AESReadAuthenticationModeIV                                      
00005349  strcmp                                                           
0000561d  Cllc_process                                                     
000058e3  Board_initHook                                                   
00005bab  Csf_deviceConfigUpdate                                           
000060e1  macRadioInitSubG                                                 
00006349  __TI_printfi_minimal                                             
000065b1  setTimeEpoch                                                     
00006805  RF_open                                                          
00006a51  ti_sysbios_runtime_Startup_exec                                  
00006c9d  rfSetConfigSubG                                                  
00006ecb  Csf_deviceDisassocUpdate                                         
00006ecd  MAC_MlmeSetSecurityReq                                           
000070f5  ti_sysbios_family_arm_v8m_Hwi_Instance_init                      
00007317  Csf_deviceNotActiveUpdate                                        
00007319  macRadioTxRequestTxAck                                           
00007535  Cllc_restoreNetwork                                              
0000774d  macSendReceiveCmdSubG                                            
00007b5f  Csf_displayError                                                 
00007f4d  macTxCompleteCallback                                            
00008139  RF_scheduleCmd                                                   
000088af  Csf_toggleResponseReceived                                       
000088b1  macSecurityPibReset                                              
00008a89  UART2_readTimeout                                                
00008c5d  macSendReceiveCmdIeee                                            
00008e2d  ti_sysbios_knl_Clock_workFuncDynamic                             
000091cb  NOROM_RFCCpePatchReset                                           
000091cd  MAC_MlmeSetReq                                                   
00009389  pthread_create                                                   
00009541  macTxFrame                                                       
00009a2d  ti_sysbios_family_arm_v8m_cc26x4_Timer_construct                 
00009bc9  PowerCC26X2_auxISR                                               
00009d5d  macWrapperAddKeyInitFCtr                                         
00009ef1  Csf_processEvents                                                
0000a07b  __aeabi_ldiv0                                                    
0000a07d  MAC_MlmeGetSecurityReq                                           
0000a205  UART2_open                                                       
0000a389  macIncomingFrameSecurityMaterialRetrieval                        
0000a50d  fwrite                                                           
0000a805  UART2_writeTimeoutBlocking                                       
0000a979  macBuildCommonReq                                                
0000aae1  MAC_McpsDataReq                                                  
0000ac41  macApiScanReq                                                    
0000ada1  txCsmaDelay                                                      
0000af01  EPOCH_convertTime                                                
0000b1a9  Power_sleep                                                      
0000b2f1  macDataTxSend                                                    
0000b439  MAC_CbackEvent                                                   
0000b6c3  _nop                                                             
0000b6c5  macIncomingFrameSecurity                                         
0000b809  embeddedCliNew                                                   
0000ba8d  macRadioLbtTxCb                                                  
0000bd09  Csf_deviceUpdate                                                 
0000bf75  macSetDefaultsByPhyID                                            
0000c1d9  RF_close                                                         
0000c305  macRxBeaconCritical                                              
0000c431  ti_sysbios_knl_Semaphore_pend                                    
0000c687  macApiPwrOnReq                                                   
0000c7b1  macAllocTxBuffer                                                 
0000c8d9  macBuildBeacon                                                   
0000ca01  macWrapperDeleteDevice                                           
0000cd71  macRadioInitIeee                                                 
0000ce95  macDutyCycleInit                                                 
0000cfb5  sendMsg                                                          
0000d0d3  macMcuBitReverse                                                 
0000d0d5  NVSCC26XX_write                                                  
0000d1f1  ti_sysbios_knl_Mailbox_Instance_init                             
0000d427  macNoAction                                                      
0000d429  Power_init                                                       
0000d659  UART2_writeTimeoutNonblocking                                    
0000d887  macRadioSetRE                                                    
0000d889  NOROM_SetupAfterColdResetWakeupFromShutDownCfg3                  
0000dab1  txComplete                                                       
0000dbc5  GPIO_init                                                        
0000dcd5  LED_open                                                         
0000dde5  macBuildPayloadIes                                               
0000def5  NOROM_SetupAfterColdResetWakeupFromShutDownCfg2                  
0000e001  PowerCC26X2_calibrate                                            
0000e10d  ti_sysbios_knl_Task_Instance_finalize                            
0000e219  ti_sysbios_knl_Clock_startI                                      
0000e323  macRadioTxCancelTxAck                                            
0000e42d  macBuildAssociateRsp                                             
0000e535  macBuildDataFrame                                                
0000e63d  Csf_init                                                         
0000e743  Csf_removeDeviceListItem                                         
0000e94d  ti_sysbios_family_arm_v8m_Hwi_dispatch                           
0000ea0e  ti_sysbios_family_arm_v8m_Hwi_interruptsAreDisabledButShouldNotBe
0000ea13  ti_sysbios_family_arm_v8m_Hwi_pendSV                             
0000ea34  ti_sysbios_family_arm_v8m_Hwi_return                             
0000ea51  NOROM_SetupTrimDevice                                            
0000ed51  macRxCompleteCallback                                            
0000ee51  macScanNextChan                                                  
0000f245  PowerCC26XX_standbyPolicy                                        
0000f33d  embeddedCliPrint                                                 
0000f433  Csf_updateFrameCounter                                           
0000f61d  macStartBegin                                                    
0000f711  ti_sysbios_knl_Clock_init                                        
0000f803  Collector_sendConfigRequest                                      
0000f8f5  UART2Support_dmaStartRx                                          
0000f9e5  macSetupRATChanCompare                                           
0000fad1  Collector_init                                                   
0000fc9d  Button_open                                                      
0000fd81  Csf_getDeviceItem                                                
0000fe65  macTxChannelBusyCallback                                         
0000ff49  ti_sysbios_gates_GateMutexPri_enter                              
0001002d  ApiMac_mlmeSetReqArray                                           
000101f1  ti_sysbios_knl_Swi_restoreHwi                                    
000102d5  NOROM_SysCtrlStandby                                             
00010495  macIndirectExpire                                                
00010575  macOutgoingFrameKeyDescRetrieval                                 
00010735  ClockP_create                                                    
00010811  RF_control                                                       
000108ed  macBuildDisassociateReq                                          
000109c9  ti_sysbios_knl_Task_postInit                                     
00010aa5  macCcmStarTransform                                              
00010b7d  macScanRxBeacon                                                  
00010c55  setvbuf                                                          
00010d2d  MAC_McpsDataAlloc                                                
00010ed1  macEdScanISR                                                     
00011071  macRadioTxPrepCsmaSlottedSubG                                    
00011141  macSymbolTimerUpdateWakeup                                       
00011211  ti_sysbios_knl_Task_sleep                                        
000113ad  macCommStatusInd                                                 
00011479  SwiP_construct                                                   
000116dd  macOutgoingFrameSecurity                                         
000117a5  macSendDataMsg                                                   
00011935  HwiP_construct                                                   
00011ac3  control_Task_Noti_Info_mail                                      
00011b89  macBuildHeaderIes                                                
00011dd5  GPIO_setConfigAndMux                                             
00011e95  NOROM_AESWriteToKeyStore                                         
00011f55  macTxRequestCsmaRtcDelay                                         
00012015  scheduleNopWakeupCmd                                             
000120d5  control_task_mail_post_DevInfo                                   
00012195  ti_sysbios_knl_Swi_runLoop                                       
00012253  ti_sysbios_knl_Task_Instance_init                                
00012311  BIOS_startFunc                                                   
000123cd  Power_setDependency                                              
00012545  UART2Support_dmaStartTx                                          
000126bd  ti_sysbios_knl_Task_setPri                                       
00012779  MAC_MlmeResetReq                                                 
00012831  macStartSetParams                                                
000128e9  macTxRequestCsmaDelay                                            
000129a1  Power_releaseDependency                                          
00012a55  macGetRFCmdDuration                                              
00012b09  macApiDataReq                                                    
00012bb9  macBuildBeaconNotifyInd                                          
00012c69  macBuildPayloadCoexistIe                                         
00012d19  __udivmoddi4                                                     
00012dc9  allDevicesInNetwork                                              
00012e77  control_taskInit                                                 
00012f25  Cllc_init                                                        
00012fd1  RF_pendCmd                                                       
0001307d  macAutoPendMaintainSrcMatchTable                                 
00013129  macDataTxEnqueue                                                 
000131d5  ti_sysbios_knl_Task_restore                                      
00013281  ti_sysbios_knl_Task_startup                                      
000133d5  Csf_getDevice                                                    
0001347d  Csf_getDeviceExtAdd                                              
00013525  macApiStartReq                                                   
000135cd  macCoordReset                                                    
00013675  macRxInit                                                        
0001371d  macTxStartQueuedFrame                                            
000137c5  MAC_SrcMatchAddEntry                                             
000139b1  macDataTxComplete                                                
00013a55  macMgmtReset                                                     
00013af9  ti_sysbios_runtime_Memory_alloc                                  
00013c3d  RF_requestAccess                                                 
00013cdd  macAutoPendAddSrcMatchTableEntry                                 
00013d7d  macBuildPendAddr                                                 
00013e1d  macCbackForEvent                                                 
00013f5d  ti_sysbios_knl_Swi_post                                          
00014135  macBuildWSAsyncReq                                               
000141d1  Cllc_securityInit                                                
00014301  RF_defaultSubmitPolicy                                           
00014399  _pthread_cleanupFxn                                              
00014431  macIncomingSecurityLevelChecking                                 
000144c9  macRxBeacon                                                      
00014561  macSymbolTimerTriggerCallback                                    
000145f9  ti_sysbios_knl_Mailbox_post                                      
00014691  ti_sysbios_knl_Task_restoreHwi                                   
000147c1  MAC_MlmeScanReq                                                  
000148e9  _pthread_removeThreadKeys                                        
0001497d  macApiPurgeReq                                                   
00014a11  macBuildRealign                                                  
00014aa5  macTaskInit                                                      
00014b39  ti_sysbios_gates_GateMutexPri_leave                              
00014bcd  embeddedCliTokenizeArgs                                          
00014c5f  ti_sysbios_knl_Semaphore_post                                    
00014cf1  ti_sysbios_knl_Task_exit                                         
00014d85  RF_getTxPower                                                    
00014e15  macIndirectSend                                                  
00014f35  macStopCmd                                                       
00014fc5  ti_sysbios_knl_Swi_restore                                       
00015055  collectorTask_                                                   
00015291  TRNG_construct                                                   
000153a9  macRadioFHEncryptFrame                                           
00015435  ti_sysbios_knl_Task_enter                                        
000154c1  ti_sysbios_knl_Swi_startup                                       
0001565d  macCcmDecrypt                                                    
000156e5  macCcmStarInverseTransform                                       
0001576d  macRadioSendImmAck                                               
000157f5  macRadioUpdateChannel                                            
0001587d  ClockP_construct                                                 
00015905  ApiMac_init                                                      
00015989  MAC_InitCoord                                                    
00015a91  RF_getInfo                                                       
00015b15  RF_yield                                                         
00015b99  macBlacklistChecking                                             
00015c1d  macCcmEncrypt                                                    
00015ca1  main                                                             
00015d25  GPIO_hwiIntFxn                                                   
00015e25  OsalPort_setTimer                                                
00015ea5  macFrameDurationSubG                                             
00015f25  macRxDataReq                                                     
00015fa5  macTxDoneCallback                                                
00016025  NVOCMP_loadApiPtrs                                               
000160a5  NOROM_SetupStepVddrTrimTo                                        
00016121  RF_ratDisableChannel                                             
0001619d  macMcuOverflowSetPeriod                                          
00016219  macPwrVote                                                       
00016295  macSetupReceiveCmd                                               
00016311  Board_shutDownExtFlash                                           
00016405  ti_sysbios_knl_TaskSupport_start                                 
00016481  NOROM_ChipInfo_GetChipType                                       
000164f9  NVSCC26XX_open                                                   
000165e9  macRequestBackoff                                                
00016661  macSymbolTimerInit                                               
000166d9  ti_sysbios_family_arm_v8m_Hwi_dispatchC                          
00016751  HwiP_destruct                                                    
000167c7  UART2Support_dmaStopTx                                           
0001683d  OsalPort_heapInit                                                
00016925  __TI_closefile                                                   
00016999  macKeyDescriptorLookup                                           
00016a0d  macMcuOverflowSetCompare                                         
00016a81  macRadioTxEnhAckCb                                               
00016af5  macUpdateHeaderIEPtr                                             
00016b69  ti_sysbios_knl_Mailbox_pend                                      
00016bdd  LED_startBlinking                                                
00016cc3  pthread_mutex_lock                                               
00016da5  NOROM_IntDisable                                                 
00016e15  OsalPort_pwrmgrTaskState                                         
00016f65  macRadioStartScan                                                
00016fd5  macTimerUpdateSymbolTimer                                        
00017045  __TI_decompress_lzss                                             
000170b5  Cllc_setJoinPermit                                               
00017125  AESCCM_construct                                                 
00017191  NOROM_IntEnable                                                  
000171fd  NOROM_SysCtrl_DCDC_VoltageConditionalControl                     
000172d5  Random_seedAutomatic                                             
000173ad  macApiDisassociateReq                                            
00017419  macDutyCycleByteToUSec                                           
00017485  macRxOffRequest                                                  
000174f1  macSetupFsCmd                                                    
000175c9  par_save                                                         
00017635  PowerCC26X2_updateSubSecInc                                      
00017705  fseeko                                                           
0001776d  getdevice                                                        
000177d5  macDisassocComplete                                              
0001783d  macLowLevelInit                                                  
000178a5  macRadioPowerDown                                                
0001790d  macScanStartTimer                                                
00017975  macTimerSetRollover                                              
000179dd  macTxGetDefaultMinTxOffTime                                      
00017a45  Csf_getFrameCounter                                              
00017aa9  HOSTrename                                                       
00017b0d  MAC_Init                                                         
00017b71  OsalPort_clearEvent                                              
00017bd5  PowerCC26X2_initiateCalibration                                  
00017d65  UDMACC26XX_open                                                  
00017dc9  macMcuInit                                                       
00017e2d  macRadioTxPrepLbt                                                
00017e91  macRxHaltCleanup                                                 
00017ef5  macTimerRealign                                                  
00017f59  pthread_exit                                                     
00017fbd  ti_sysbios_knl_Semaphore_pendTimeout                             
00018085  par_load                                                         
000180e9  CryptoResourceCC26XX_constructRTOSObjects                        
00018149  NOROM_SetupAfterColdResetWakeupFromShutDownCfg1                  
000181a9  OsalPort_setEvent                                                
00018209  SemaphoreP_createBinary                                          
00018269  __TI_wrt_ok                                                      
000182c9  close                                                            
00018329  macBeaconSyncLoss                                                
00018389  macDataReset                                                     
000183e9  macExecute                                                       
00018449  macScanComplete                                                  
000184a9  macSendMsg                                                       
00018509  macSymbolTimerPeriodIsr                                          
00018569  macTrackPeriodCallback                                           
000185c9  NOROM_RFCAnaDivTxOverride                                        
00018627  UART2Support_dmaStopRx                                           
00018685  ti_sysbios_family_arm_v8m_cc26x4_Timer_dynamicMultiStub          
000186e5  Cllc_removeDevice                                                
00018741  MAC_ResumeReq                                                    
0001879d  NOROM_SetupGetTrimForAmpcompCtrl                                 
000187f9  OsalPort_msgReceive                                              
00018855  macBuildWSAsyncMsg                                               
000188b1  macCanSleep                                                      
0001890d  macIndirectTxFrame                                               
00018969  macRxDisassoc                                                    
000189c5  macUpdatePayloadIEPtr                                            
00018a21  ti_sysbios_family_arm_v8m_Hwi_initStacks                         
00018a7d  Csf_networkUpdate                                                
00018ad9  embeddedCliGetToken                                              
00018b35  Button_gpioCallbackFxn                                           
00018b8d  HEAPMGR_GETLARGESTFREEBUF                                        
00018be5  HOSTlseek                                                        
00018c3d  HOSTopen                                                         
00018c95  NOROM_OSCHF_AttemptToSwitchToXosc                                
00018ced  NOROM_SetupGetTrimForAnabypassValue1                             
00018d45  OsalPort_msgSend                                                 
00018df5  TRNG_init                                                        
00018e4d  macApiOrphanRsp                                                  
00018ea5  macRadioTxBackoffBoundary                                        
00018efd  macRadioTxGoLbt                                                  
00018f55  macRxOn                                                          
00018fad  BIOS_exitFunc                                                    
00019005  Board_sendExtFlashByte                                           
0001905b  StructRingBuf_put                                                
000190b1  UtilTimer_construct                                              
00019107  Csf_stateChangeUpdate                                            
0001915d  HOSTread                                                         
000191b1  HOSTwrite                                                        
00019205  MAC_SrcMatchEnable                                               
000192ad  cli_printf                                                       
00019301  macBeaconSetupCap                                                
00019355  macIncomingKeyUsagePolicyChecking                                
000193a9  macIndirectRequeueFrame                                          
000193fd  macRadioTxPrepSlotted                                            
00019451  macRequestSFDTimeout                                             
000194a5  macTimerAddTimer                                                 
000194f9  macTimerCancel                                                   
0001954d  macTxAckReceivedCallback                                         
000195a1  pthread_mutex_init                                               
00019647  ti_sysbios_knl_Mailbox_create                                    
00019699  AESCCM_setNonce                                                  
00019739  __TI_doflush                                                     
00019789  macCheckIndPacket                                                
000197d9  macCheckPhyRate                                                  
00019829  macRadioSetChannel                                               
00019879  macRadioTxPrepCsmaSlottedIeee                                    
000198c9  macRadioUpdateTxPower                                            
00019919  macTimerGetNextTimer                                             
00019a09  sem_init                                                         
00019a59  ClockP_getTimeout                                                
00019aa7  displayTime                                                      
00019af5  MAC_SrcMatchAckAllPending                                        
00019b41  NOROM_IntPendClear                                               
00019b8d  NOROM_SetupSetCacheModeAccordingToCcfgSetting                    
00019bd9  NVSCC26XX_read                                                   
00019c71  RF_getCurrentTime                                                
00019cbd  StructRingBuf_get                                                
00019d09  macGetRadioTxPowerReg                                            
00019d55  macIndirectMark                                                  
00019da1  macRadioSendEnhAck                                               
00019ded  macRadioTxHandleAck                                              
00019e39  macRadioWakeupCb                                                 
00019e85  macSymbolTimerEventHandler                                       
00019ed1  macSymbolTimerRolloverCallback                                   
00019f69  ti_sysbios_knl_Task_sleepTimeout                                 
00019fb5  Collector_sendToggleLedRequest                                   
00019fff  BIOS_atExitFunc                                                  
0001a049  MAC_SrcMatchSetDefaultPend                                       
0001a091  NOROM_ChipInfo_GetHwRevision                                     
0001a0d9  NOROM_RFCSynthPowerDown                                          
0001a121  NVS_open                                                         
0001a1b1  PowerCC26XX_switchXOSC_HF                                        
0001a1f9  UART2_readFull                                                   
0001a241  macMainReset                                                     
0001a289  RingBuf_put                                                      
0001a2cf  Csf_setBroadcastClock                                            
0001a313  Csf_setConfigClock                                               
0001a357  Csf_setJoinPermitClock                                           
0001a39b  Csf_setTrackingClock                                             
0001a3e1  HOSTunlink                                                       
0001a425  NOROM_PRCMPowerDomainsAllOff                                     
0001a469  NOROM_PRCMPowerDomainsAllOn                                      
0001a4ad  NVSCC26XX_init                                                   
0001a4f1  PWM_init                                                         
0001a535  RF_TxPowerTable_findValue                                        
0001a5bd  UTC_init                                                         
0001a645  macRadioTxPrepCsmaUnslottedSubG                                  
0001a689  macRatDisableChannels                                            
0001a6cd  macRxNokIsr                                                      
0001a711  macSendFsCmd                                                     
0001a755  macStartContinue                                                 
0001a799  Cllc_addSecDevice                                                
0001a7db  HwiP_enableInterrupt                                             
0001a81d  console_taskInit                                                 
0001a85f  convertTxOptions                                                 
0001a8a1  macDestSAddrCmp                                                  
0001a8e3  Cllc_startNetwork                                                
0001a925  MAC_MlmeGetReq                                                   
0001a965  OsalPort_deleteTimer                                             
0001a9a5  OsalPort_msgEnqueueMax                                           
0001a9e5  PWM_open                                                         
0001aa25  PowerCC26X2_RCOSC_clockFunc                                      
0001aa65  atoi                                                             
0001aae5  macRxAssociateReq                                                
0001ab25  macSetDefaultsByPatch                                            
0001ab65  macSymbolTimerRealignIeee                                        
0001aba5  macSymbolTimerRealignSubG                                        
0001abe5  macTimerUpdActive                                                
0001ac25  macTxFrameIsr                                                    
0001ac65  macTxTimestampCallback                                           
0001ad25  Csf_getNetworkInformation                                        
0001ad63  Csf_getNumDeviceListEntries                                      
0001ada1  Csf_identifyLED                                                  
0001addf  LED_setBrightnessLevel                                           
0001ae1d  LED_setOff                                                       
0001ae5b  macDestAddrCmp                                                   
0001aed9  GPIO_resetConfig                                                 
0001af15  HOSTclose                                                        
0001af51  MAC_SrcMatchCheckResult                                          
0001af8d  NOROM_OSC_HPOSCRelativeFrequencyOffsetGet                        
0001b005  embeddedCliAddBinding                                            
0001b041  macMRFSKGetPhyDesc                                               
0001b07d  macRadioSetPanCoordinator                                        
0001b0b9  macRadioSetPanID                                                 
0001b0f5  macRxDisable                                                     
0001b131  macTxDecrypt                                                     
0001b16d  mac_msg_deallocate                                               
0001b1a9  ti_sysbios_knl_TaskSupport_swap                                  
0001b1c2  ti_sysbios_knl_TaskSupport_swapReturn                            
0001b1e5  vsnprintf                                                        
0001b25b  malloc                                                           
0001b295  Csf_initializeConfigClock                                        
0001b2cd  LED_setOn                                                        
0001b305  MAC_SrcMatchDeleteEntry                                          
0001b33d  NOROM_AUXSYSIFOpModeChange                                       
0001b375  NOROM_OSCClockSourceSet                                          
0001b3e5  OsalPort_waitEvent                                               
0001b41d  Random_getNumber                                                 
0001b455  RingBuf_putAdvance                                               
0001b48d  SemaphoreP_constructBinary                                       
0001b4c5  SwiP_setPriority                                                 
0001b4fd  UART2_rxEnable                                                   
0001b535  embeddedCliReceiveChar                                           
0001b56d  macBeaconStopTrack                                               
0001b5a5  macDataRxInd                                                     
0001b5dd  macIncomingNonSlottedTx                                          
0001b615  macRadioNeedAdjustPower                                          
0001b64d  macRadioSetIEEEAddr                                              
0001b685  macRxCheckMACPendingCallback                                     
0001b6bd  macSymbolTimerCount                                              
0001b6f5  macSymbolTimerCreate                                             
0001b72d  macTxAckNotReceivedCallback                                      
0001b765  macTxFrameRetransmit                                             
0001b79d  macTxUpdateIE                                                    
0001b7d5  ti_sysbios_family_arm_v8m_Hwi_excHandlerAsm                      
0001b80d  __TI_auto_init_nobinit_nopinit                                   
0001b845  CryptoUtils_buffersMatch                                         
0001b87b  Csf_initializeBroadcastClock                                     
0001b8b1  Csf_initializeIdentifyClock                                      
0001b8e7  Csf_initializeTrackingClock                                      
0001b91d  par_init                                                         
0001b953  pthread_mutex_unlock                                             
0001b9f1  NOROM_PRCMPowerDomainOff                                         
0001ba25  NOROM_TRNGConfigure                                              
0001ba59  OsalPortTimers_cleanUpTimers                                     
0001ba8d  OsalPort_registerTask                                            
0001bac1  PowerCC26X2_setAclkRefSrc                                        
0001baf5  Power_releaseConstraint                                          
0001bb29  RF_powerConstraintRelease                                        
0001bb91  __TI_cleanup                                                     
0001bbc5  __TI_writemsg                                                    
0001bbef  C$$IO$$                                                          
0001bc2d  macApiWSAsyncReq                                                 
0001bc61  macDutyCycleUpdateTransmission                                   
0001bc95  macRadioPowerUp                                                  
0001bcc9  macRadioStopScan                                                 
0001bcfd  macRadioTxGoSlottedCsma                                          
0001bd31  macRadioTxPrepGreenPower                                         
0001bd65  macRxBeaconReq                                                   
0001bd99  macScanCnfInit                                                   
0001be35  macSymbolTimerSetTrigger                                         
0001be69  macTxAbortIsr                                                    
0001be9d  _c_int00                                                         
0001bed1  MAC_SrcMatchSetPend                                              
0001bf03  SemaphoreP_delete                                                
0001bf35  ti_sysbios_runtime_System_exit                                   
0001bf67  ti_sysbios_runtime_System_printf                                 
0001bfc9  Csf_CLI_closenetwork                                             
0001bff9  Csf_CLI_opennetwork                                              
0001c029  GPIO_setInterruptConfig                                          
0001c059  NOROM_AESStartDMAOperation                                       
0001c089  NOROM_PRCMPowerDomainOn                                          
0001c0b9  NOROM_SysCtrlIdle                                                
0001c0e9  NVSCC26XX_erase                                                  
0001c119  OsalPort_msgExtract                                              
0001c149  PowerCC26X2_oscDisableQualifiers                                 
0001c179  PowerCC26X2_setTdcClkSrc24M                                      
0001c1a9  PowerCC26XX_schedulerDisable                                     
0001c1d9  Power_setConstraint                                              
0001c239  __TI_readmsg                                                     
0001c299  embeddedCliNewDefault                                            
0001c2c9  macDeviceDescriptorLookup                                        
0001c2f9  macFrameDurationIeee                                             
0001c329  macHandleTxAck                                                   
0001c359  macRadioLimitTxPower                                             
0001c389  macRadioTxPrepCsmaUnslottedIeee                                  
0001c3b9  macSetUserConfig                                                 
0001c3e9  macTimerInit                                                     
0001c419  macTimerRecalcUnaligned                                          
0001c4a9  Csf_CLI_formnetwork                                              
0001c505  RingBuf_getConsume                                               
0001c533  RingBuf_putPointer                                               
0001c561  macRxOrphan                                                      
0001c58f  ClockP_delete                                                    
0001c5bb  Csf_getDeviceShort                                               
0001c5e9  NOROM_AESReadFromKeyStore                                        
0001c615  NOROM_AESReadTag                                                 
0001c641  NOROM_OSCHF_SwitchToRcOscTurnOffXosc                             
0001c66d  NOROM_uDMAChannelAttributeDisable                                
0001c699  NVS_init                                                         
0001c6c5  PowerCC26X2_releasePeriphDependency                              
0001c6f1  PowerCC26X2_setPeriphDependency                                  
0001c71d  PowerCC26X2_setSubSecIncToXoscLf                                 
0001c7cd  UART2Support_enableInts                                          
0001c7f9  finddevice                                                       
0001c825  lseek                                                            
0001c851  macApiAssociateRsp                                               
0001c87d  macDutyCycleCheck                                                
0001c8a9  macRadioPowerUpWait                                              
0001c8d5  macRatCb_B                                                       
0001c901  macRatDisableChannelB                                            
0001c92d  macRxHardDisable                                                 
0001c959  macSetDefaultsByRE                                               
0001c985  macSymbolTimerBCWakeUp                                           
0001c9b1  macSymbolTimerICallTimerCback                                    
0001c9dd  macTimerAligned                                                  
0001ca09  rf_patch_cpe_multi_protocol                                      
0001ca35  unlink                                                           
0001ca61  write                                                            
0001ca8d  NOROM_DDI16BitfieldWrite                                         
0001cab9  OsalPort_buildUint32                                             
0001cae3  TRNG_generateKey                                                 
0001cb0d  UART2Support_powerRelConstraint                                  
0001cb37  macRadioComputeLQI                                               
0001cb61  radioComputeED                                                   
0001cb8b  List_remove                                                      
0001cbb5  MAC_MlmeGetPointerSecurityReq                                    
0001cbdd  NOROM_AONBatMonTemperatureGetDegC                                
0001cc05  NOROM_AONEventMcuWakeUpSet                                       
0001cc2d  NOROM_OSCClockSourceGet                                          
0001cc55  OsalPort_heapGetStats                                            
0001cc7d  OsalPort_msgEnqueue                                              
0001cca5  PowerCC26XX_isStableXOSC_HF                                      
0001ccf5  macPibReset                                                      
0001cd1d  macRxOff                                                         
0001cd45  macSetTxPowerVal                                                 
0001cd6d  macTxInit                                                        
0001cd95  memmove                                                          
0001cdbd  rfSelect                                                         
0001cde5  ti_sysbios_knl_Task_construct                                    
0001ce0d  ClockP_getSystemTicks                                            
0001ce33  List_insert                                                      
0001ce59  OsalPort_msgDequeue                                              
0001ce7f  UART2Support_powerSetConstraint                                  
0001cea5  macLowLevelDiags                                                 
0001cef1  sAddrCmp                                                         
0001cf3b  List_put                                                         
0001cf5f  List_putHead                                                     
0001cf85  NOROM_AESWaitForIRQFlags                                         
0001cfa9  NOROM_PRCMPeripheralDeepSleepDisable                             
0001cfcd  NOROM_PRCMPeripheralRunDisable                                   
0001cff1  NOROM_PRCMPeripheralSleepDisable                                 
0001d015  NOROM_UARTConfigSetExpClk                                        
0001d039  OsalPort_msgAllocate                                             
0001d05d  Power_registerNotify                                             
0001d111  SemaphoreP_destruct                                              
0001d135  embeddedCliGetTokenCount                                         
0001d159  macApiPending                                                    
0001d17d  macCoordAddrCmp                                                  
0001d1a1  macRadioSwInit                                                   
0001d1c5  macRatCb_A                                                       
0001d1e9  macRxSoftDisable                                                 
0001d20d  macRxSoftEnable                                                  
0001d255  macStartComplete                                                 
0001d279  macSymbolTimerRestore                                            
0001d29d  macSymbolTimerSetRollover                                        
0001d2c1  AESCCM_setLengths                                                
0001d2e3  LED_stopBlinking                                                 
0001d305  List_get                                                         
0001d327  PowerCC26XX_schedulerRestore                                     
0001d36b  RingBuf_getPointer                                               
0001d38d  UART2Support_sendData                                            
0001d3af  UART2_read                                                       
0001d3d1  crc_update                                                       
0001d49d  sAddrExtCmp                                                      
0001d4bf  setWatchsTime                                                    
0001d4e1  ti_sysbios_family_arm_v8m_Hwi_switchAndRunFunc                   
0001d525  Cllc_setChanMask                                                 
0001d545  MAC_AbortScan                                                    
0001d565  NOROM_PRCMPeripheralDeepSleepEnable                              
0001d585  NOROM_PRCMPeripheralRunEnable                                    
0001d5a5  NOROM_PRCMPeripheralSleepEnable                                  
0001d5c5  NOROM_RFCDoorbellSendTo                                          
0001d5e5  NOROM_RFCOverrideSearch                                          
0001d605  NOROM_SetupGetTrimForXoscHfCtl                                   
0001d625  NOROM_SetupSetAonRtcSubSecInc                                    
0001d645  NOROM_ThisLibraryIsFor_CC13x4_CC26x4_HaltIfViolated              
0001d665  PowerCC26X2_disableTCXOQual                                      
0001d685  PowerCC26X2_enableTCXOQual                                       
0001d6a5  Power_unregisterNotify                                           
0001d6e5  RF_getRssi                                                       
0001d745  RF_setTxPower                                                    
0001d765  macGetRadioState                                                 
0001d785  macMcuTimerCapture                                               
0001d7a5  macPibIndex                                                      
0001d7c5  macRadioSetShortAddr                                             
0001d7e5  macRxCheckPendingCallback                                        
0001d805  macRxEnable                                                      
0001d825  macRxOnOffInit                                                   
0001d845  macRxSFDTimerExpiry                                              
0001d865  macSymbolTimerSetTriggerRollover                                 
0001d885  macTimer                                                         
0001d8a5  par_erase                                                        
0001d8c5  pthread_attr_init                                                
0001d8e5  BIOS_rtsLock                                                     
0001d903  OsalPort_msgDeallocate                                           
0001d921  UART2_writeTimeout                                               
0001d941  __aeabi_llsl                                                     
0001d941  __ashldi3                                                        
0001d95f  free                                                             
0001d97d  macScanFailedInProgress                                          
0001d99b  memccpy                                                          
0001d9b9  ClockP_destruct                                                  
0001d9d5  GPIO_read                                                        
0001d9f1  GPIO_setCallback                                                 
0001da0d  HwiP_setPriority                                                 
0001da29  NOROM_DDI16BitfieldRead                                          
0001da45  NOROM_OSCHF_TurnOnXosc                                           
0001da61  NOROM_PRCMDeepSleep                                              
0001da7d  NOROM_SysCtrlResetSourceGet                                      
0001dab5  OsalPort_memcmp                                                  
0001dad1  PowerCC26X2_getOscHfSourceReady                                  
0001daed  PowerCC26X2_writeCtrim                                           
0001db09  PowerCC26X2_writeCtrimFract                                      
0001db25  PowerCC26X2_writeCtrimFractEn                                    
0001db41  PowerCC26X2_writeRtrim                                           
0001db5d  Power_getTransitionLatency                                       
0001dbb1  RF_powerConstraintSet                                            
0001dbe9  SwiP_destruct                                                    
0001dc05  eraseDevInfo                                                     
0001dc21  macDataRxMemAlloc                                                
0001dc3d  macMcuOverflowCapture                                            
0001dc59  macNopBackoffTimerExpiry                                         
0001dc91  macRxAckTxDoneCallback                                           
0001dcad  macSymbolTimerPowerDown                                          
0001dd01  ti_sysbios_knl_Task_Params_init                                  
0001dd1d  BIOS_rtsUnlock                                                   
0001dd37  Cllc_securityFill                                                
0001dd51  LED_toggle                                                       
0001dd6b  MAC_CbackCheckPending                                            
0001dd85  MAC_CbackQueryRetransmit                                         
0001dd9f  NOROM_UARTDisable                                                
0001ddb9  NOROM_uDMAChannelSizeGet                                         
0001ddd3  OsalPort_msgPush                                                 
0001dded  copyApiMacAddrToMacAddr                                          
0001de07  macCheckPhyMode                                                  
0001de21  ti_sysbios_knl_Idle_loop                                         
0001de3d  AESWriteKey3                                                     
0001de55  CryptoUtils_memset                                               
0001de6d  GPIO_disableInt                                                  
0001de85  MAC_EnableFH                                                     
0001de9d  NOROM_AESSetInitializationVector                                 
0001deb5  NOROM_TRNGNumberGet                                              
0001decd  NVSCC26XX_getAttrs                                               
0001dee5  NVSCC26XX_lock                                                   
0001defd  PowerCC26XX_calibrate                                            
0001df15  Power_idleFunc                                                   
0001df2d  RF_ScheduleCmdParams_init                                        
0001df45  RF_cancelCmd                                                     
0001df75  SwiP_or                                                          
0001df8d  Util_clearEvent                                                  
0001dfa5  Util_setEvent                                                    
0001dfd5  macBeaconReset                                                   
0001dfed  macFrameDuration                                                 
0001e005  macGetMyAddrMode                                                 
0001e01d  macRadioInit                                                     
0001e035  macRadioTxPrepCsmaSlotted                                        
0001e04d  macRadioTxPrepCsmaUnslotted                                      
0001e065  macSendReceiveCmd                                                
0001e07d  macSymbolTimerRealign                                            
0001e095  macWrapper8ByteUnused                                            
0001e0ad  ti_sysbios_knl_TaskSupport_glue                                  
0001e10d  Board_init                                                       
0001e123  ClockP_start                                                     
0001e139  HwiP_interruptsEnabled                                           
0001e14f  List_clearList                                                   
0001e165  RF_ratCompare                                                    
0001e191  macRadioSetTxPower                                               
0001e1a7  macTimerRemoveTimer                                              
0001e1bd  onCloseNWK                                                       
0001e1d3  onFormNWK                                                        
0001e1e9  onOpenNWK                                                        
0001e201  AESCCM_init                                                      
0001e215  ApiMac_mlmeSetReqBool                                            
0001e229  ApiMac_mlmeSetReqUint16                                          
0001e23d  ApiMac_mlmeSetReqUint8                                           
0001e251  ApiMac_mlmeSetSecurityReqUint16                                  
0001e265  Cllc_securityCheck                                               
0001e279  Csf_openNwk                                                      
0001e28d  HwiP_post                                                        
0001e2a1  HwiP_setFunc                                                     
0001e2b5  MAC_SrcMatchCheckAllPending                                      
0001e2c9  NOROM_AONRTCCurrent64BitValueGet                                 
0001e2dd  NOROM_SetupGetTrimForRcOscLfRtuneCtuneTrim                       
0001e305  RF_flushCmd                                                      
0001e319  TRNG_close                                                       
0001e341  __aeabi_uldivmod                                                 
0001e355  _args_main                                                       
0001e369  macConflictSyncLossInd                                           
0001e37d  macDataSend                                                      
0001e391  macMainReserve                                                   
0001e3a5  macRxOnRequest                                                   
0001e3b9  macStateIdleOrPolling                                            
0001e3cd  macStateScanning                                                 
0001e3e1  macSymbolSetupPwrMgmt                                            
0001e3f5  macWSAsyncCnf                                                    
0001e445  ClockP_getCpuFreq                                                
0001e457  Csf_closeNwk                                                     
0001e469  Main_excHandler                                                  
0001e47b  NOROM_UARTCharPutNonBlocking                                     
0001e48d  NVS_write                                                        
0001e49f  RF_getCmdOp                                                      
0001e4b1  StructRingBuf_construct                                          
0001e4d5  assertHandler                                                    
0001e4f9  macCheckSched                                                    
0001e50b  macSymbolTimerCompareIsr                                         
0001e51d  pthread_attr_setschedparam                                       
0001e52f  sAddrCpy                                                         
0001e541  ti_sysbios_family_arm_v8m_cc26x4_Timer_dynamicStub               
0001e553  ti_sysbios_knl_Mailbox_Params_init                               
0001e577  TI_memcpy_small                                                  
0001e589  AESCCM_Params_init                                               
0001e599  AESCCM_open                                                      
0001e5a9  Button_Params_init                                               
0001e5b9  GPIO_write                                                       
0001e5c9  HwiP_Params_init                                                 
0001e5d9  MAC_SrcMatchSetManualAddressTracking                             
0001e5e9  NOROM_IOCPortConfigureSet                                        
0001e5f9  NOROM_RFCCpeIntGetAndClear                                       
0001e609  NOROM_RFCHwIntGetAndClear                                        
0001e619  NOROM_VIMSModeGet                                                
0001e689  OsalPort_memcpy                                                  
0001e699  PWM_Params_init                                                  
0001e6a9  PowerCC26X2_oscCtlClearXtal                                      
0001e6b9  PowerCC26X2_prcmEnableCacheRetention                             
0001e6c9  PowerCC26X2_readCtrim                                            
0001e6d9  PowerCC26X2_readCtrimFract                                       
0001e6e9  PowerCC26X2_readRtrim                                            
0001e6f9  PowerCC26X2_switchToTCXO                                         
0001e709  RingBuf_construct                                                
0001e719  SwiP_Params_init                                                 
0001e729  SwiP_disable                                                     
0001e739  UART2Support_txDone                                              
0001e749  macDataTxTimeAvailable                                           
0001e759  macRxPanConflict                                                 
0001e769  macSetEvent16                                                    
0001e779  macSetEvent                                                      
0001e789  pthread_mutexattr_init                                           
0001e799  ti_sysbios_family_arm_v8m_Hwi_excHandler                         
0001e7a9  __TI_zero_init                                                   
0001e7b9  AESCCM_close                                                     
0001e7c7  Csf_PostAppSem                                                   
0001e7d5  Csf_deviceSensorDataUpdate                                       
0001e7e3  LED_Params_init                                                  
0001e7f1  NVS_read                                                         
0001e829  RF_RatConfigCompare_init                                         
0001e837  StructRingBuf_isFull                                             
0001e845  UART2_write                                                      
0001e853  Util_buildUint32                                                 
0001e86f  macLowLevelBufferInit                                            
0001e87d  macLowLevelReset                                                 
0001e88b  macLowLevelResume                                                
0001e8a7  pthread_self                                                     
0001e8b5  sem_wait                                                         
0001e8fb  ti_sysbios_knl_Clock_tick                                        
0001e909  TI_memset_small                                                  
0001e917  __TI_decompress_none                                             
0001e925  ApiMac_registerCallbacks                                         
0001e931  BIOS_linkedWithIncorrectBootLibrary                              
0001e93d  BIOS_start                                                       
0001e949  CryptoKeyPlaintext_initBlankKey                                  
0001e955  CryptoKeyPlaintext_initKey                                       
0001e961  Csf_isConfigTimerActive                                          
0001e96d  Csf_isTrackingTimerActive                                        
0001e979  HwiP_disable                                                     
0001e985  MAC_SrcMatchCheckManualAddressTracking                           
0001e991  NOROM_OSC_HPOSCRelativeFrequencyOffsetToRFCoreFormatConvert      
0001e99d  NVSCC26XX_unlock                                                 
0001e9d9  OsalPortTimers_registerCleanupEvent                              
0001e9e5  OsalPort_stopTimer                                               
0001e9f1  Power_getConstraintMask                                          
0001e9fd  RF_Params_init                                                   
0001ea09  SwiP_getTrigger                                                  
0001ea15  UART2Support_disableTx                                           
0001ea21  UART2Support_enableRx                                            
0001ea2d  UART2Support_enableTx                                            
0001ea39  UART2_Params_init                                                
0001ea45  UTC_getClock                                                     
0001ea51  UTC_setClock                                                     
0001ea5d  _register_lock                                                   
0001ea69  _register_unlock                                                 
0001ea75  macDefaultAction                                                 
0001ea81  macIsCsmOperational                                              
0001ea8d  macMainSetTaskId                                                 
0001ea99  macPwrReset                                                      
0001eaa5  macRxSequenceNum                                                 
0001eab1  onClearCLI                                                       
0001eabd  osalHeapInitFxn                                                  
0001eac9  pthread_attr_setdetachstate                                      
0001ead5  AESCCM_Operation_init                                            
0001eadf  ClockP_Params_init                                               
0001eae9  Csf_free                                                         
0001eaf3  MAC_MlmeAssociateRsp                                             
0001eafd  MAC_MlmeOrphanRsp                                                
0001eb07  NOROM_VIMSModeSet                                                
0001eb6b  OsalPort_enterCS                                                 
0001eb75  PowerCC26X2_sysCtrlStandby                                       
0001eb7f  SemaphoreP_pend                                                  
0001eb93  UDMACC26XX_hwiIntFxn                                             
0001eb9d  Util_copyExtAddr                                                 
0001eba9  __aeabi_memset                                                   
0001eba9  __aeabi_memset4                                                  
0001eba9  __aeabi_memset8                                                  
0001ebb3  macDataRxMemFree                                                 
0001ebbd  macMcuRandomByte                                                 
0001ebc7  macSetSched                                                      
0001ebd1  sem_post                                                         
0001ebdb  MAC_MlmeStartReq                                                 
0001ebe3  MAC_MlmeSyncReq                                                  
0001ebeb  NOROM_CPUcpsid                                                   
0001ebf3  NOROM_CPUcpsie                                                   
0001ebfb  NVSCC26XX_close                                                  
0001ec1b  PowerCC26X2_oschfTrySwitchToXosc                                 
0001ec23  UtilTimer_setTimeout                                             
0001ec2b  Util_breakUint32                                                 
0001ec35  __aeabi_errno_addr                                               
0001ec3d  __aeabi_memclr                                                   
0001ec3d  __aeabi_memclr4                                                  
0001ec3d  __aeabi_memclr8                                                  
0001ec45  macCsmaTimerExpiry                                               
0001ec4d  macGetCSMPhy                                                     
0001ec55  macIEEEGetPhyDesc                                                
0001ec5d  macRxBackoffTimerExpiry                                          
0001ec65  macTxBackoffTimerExpiry                                          
0001ec6d  pthread_attr_setstacksize                                        
0001ec75  ti_sysbios_knl_Mailbox_getNumPendingMsgs                         
0001ec7d  AESCCM_oneStepDecrypt                                            
0001ec83  AESCCM_oneStepEncrypt                                            
0001ec89  Button_setCallback                                               
0001ec8f  ClockP_stop                                                      
0001ec95  GPIO_setConfig                                                   
0001ec9b  HwiP_restore                                                     
0001eca1  NOROM_CPUdelay                                                   
0001eca7  NVSCC26XX_control                                                
0001ecad  NVS_Params_init                                                  
0001ecb3  NVS_erase                                                        
0001ecb9  NVS_getAttrs                                                     
0001ecdd  OsalPort_leaveCS                                                 
0001ece3  PWM_close                                                        
0001ece9  PWM_setDuty                                                      
0001ecef  PWM_start                                                        
0001ecf5  RF_RatConfigOutput_init                                          
0001ed01  RF_runDirectCmd                                                  
0001ed07  RF_runImmediateCmd                                               
0001ed0d  Util_buildUint16                                                 
0001ed13  macApiBadState                                                   
0001ed19  macApiUnsupported                                                
0001ed1f  macRadioTxGoGreenPower                                           
0001ed25  macRadioTxGoSlotted                                              
0001ed2b  macSecCpy                                                        
0001ed31  macTxBackoffHandler                                              
0001ed37  macTxCsmaDelay                                                   
0001ed3d  osalHeapAllocFxn                                                 
0001ed43  osalHeapFreeFxn                                                  
0001ed49  osalHeapGetStatsFxn                                              
0001ed4f  sAddrExtCpy                                                      
0001ed55  ti_sysbios_family_arm_v8m_Hwi_doSwiRestore                       
0001ed5b  ti_sysbios_family_arm_v8m_Hwi_doTaskRestore                      
0001ed61  ti_sysbios_heaps_HeapCallback_alloc                              
0001ed67  ti_sysbios_heaps_HeapCallback_free                               
0001ed6d  ti_sysbios_heaps_HeapCallback_getStats                           
0001ed73  ti_sysbios_heaps_HeapCallback_isBlocking                         
0001ed79  ApiMac_mcpsDataReq                                               
0001ed7d  ApiMac_mlmeAssociateRsp                                          
0001ed81  ApiMac_mlmeGetReqArray                                           
0001ed85  ApiMac_mlmeGetReqUint16                                          
0001ed89  ApiMac_mlmeGetReqUint32                                          
0001ed8d  ApiMac_mlmeGetReqUint8                                           
0001ed91  ApiMac_mlmeOrphanRsp                                             
0001ed95  ApiMac_mlmeScanReq                                               
0001ed99  ApiMac_mlmeSetSecurityReqArray                                   
0001ed9d  ApiMac_mlmeSetSecurityReqStruct                                  
0001eda1  ApiMac_mlmeStartReq                                              
0001eda5  ApiMac_secAddDevice                                              
0001eda9  ApiMac_secAddKeyInitFrameCounter                                 
0001edad  ApiMac_secDeleteDevice                                           
0001edb1  ClockP_getSystemTickPeriod                                       
0001edb5  ClockP_isActive                                                  
0001edb9  ClockP_setTimeout                                                
0001edbd  Csf_malloc                                                       
0001edc1  NOROM_DDI32RegWrite                                              
0001edc5  NOROM_RFCOverrideUpdate                                          
0001edc9  OsalPort_free                                                    
0001edcd  OsalPort_malloc                                                  
0001edd1  PowerCC26X2_oscClockSourceGet                                    
0001edd5  PowerCC26X2_oschfSwitchToRcosc                                   
0001edd9  PowerCC26X2_setPeriphDeepSleepEnable                             
0001eddd  PowerCC26X2_sysCtrlGetResetSource                                
0001ede1  PowerCC26X2_sysCtrlIdle                                          
0001ede5  PowerCC26X2_sysCtrlUpdateVoltageRegulator                        
0001ede9  PowerCC26X2_turnOnXosc                                           
0001eded  RF_defaultExecutionPolicy                                        
0001edf1  ResetISR                                                         
0001edf5  RingBuf_getCount                                                 
0001edf9  SemaphoreP_post                                                  
0001edfd  SwiP_restore                                                     
0001ee01  TRNG_generateEntropy                                             
0001ee05  UtilTimer_isActive                                               
0001ee09  UtilTimer_start                                                  
0001ee0d  UtilTimer_stop                                                   
0001ee11  Util_hiUint16                                                    
0001ee15  Util_loUint16                                                    
0001ee19  __aeabi_memcpy                                                   
0001ee19  __aeabi_memcpy4                                                  
0001ee19  __aeabi_memcpy8                                                  
0001ee1d  __aeabi_memmove                                                  
0001ee1d  __aeabi_memmove4                                                 
0001ee1d  __aeabi_memmove8                                                 
0001ee21  _system_post_cinit                                               
0001ee25  _system_pre_init                                                 
0001ee2d  fseek                                                            
0001ee31  macBcTimerHandler                                                
0001ee35  macDataTxDelayCallback                                           
0001ee39  macPibCheckByPatch                                               
0001ee3d  macRadioRandomByte                                               
0001ee41  macRxBackoffHandler                                              
0001ee49  macSymbolTimerReset                                              
0001ee4d  macTxAckIsr                                                      
0001ee59  osalHeapIsBlockingFxn                                            
0001ee5d  remove                                                           
0001ee61  setTime                                                          
0001ee65  ti_sysbios_runtime_System_exitSpin                               
0001ee68  __c_args__                                                       
0001f4a0  __aeabi_ctype_table_                                             
0001f4a0  __aeabi_ctype_table_C                                            
0001f6a1  macPibTbl                                                        
0001f8ac  macPibDefaults                                                   
0001f9bb  macIdleSt                                                        
0001fa2d  macScanningSt                                                    
0001fa9f  macStartingSt                                                    
0001fb14  macRfDriverTable                                                 
0001fb80  resourceDB                                                       
0001fbe8  macSecurityPibTbl                                                
0001fc98  macMRFSKStdPhyTable                                              
0001fdb8  macCryptoDriverTable                                             
0001fdf8  macTimerRolloverValue                                            
0001feb8  macCmdIncludeFHIe                                                
0001ff24  RF_cmdPropRxAdv_2gfsk200kbps154g                                 
00020008  NVSCC26XX_fxnTable                                               
00020030  RF_cmdPropRadioDivSetup_2gfsk200kbps154g                         
00020058  activityObject                                                   
000200a8  UART2_defaultParams                                              
00020158  RF_cmdPropTxAdv_2gfsk200kbps154g                                 
0002022e  Button_count                                                     
0002022f  GPIO_pinLowerBound                                               
00020230  RF_cmdPropCs_2gfsk200kbps154g                                    
0002035f  GPIO_pinUpperBound                                               
00020360  NVS_config                                                       
00020378  PWM_defaultParams                                                
00020390  RF_cmdFs_2gfsk200kbps154g                                        
000203a8  macSendMsgBufSize                                                
0002045b  LED_count                                                        
00020471  NVS_count                                                        
00020472  UART2_count                                                      
00020473  aesccmCC26X4HWAttrs                                              
00020474  Button_defaultParams                                             
00020488  PowerCC26X2_config                                               
0002049c  TRNG_defaultParams                                               
000204c4  msacbackSizeTable                                                
0002058c  AESCCM_defaultParams                                             
000205ac  Button_config                                                    
000205bc  GPIO_config                                                      
000205cc  LED_config                                                       
000205dc  macIEEEPhyTable                                                  
0002060b  macCmdBufSize                                                    
00020619  macTxFrameFailed                                                 
00020627  macTxFrameSuccess                                                
00020690  RFCC26XX_hwAttrs                                                 
000206a8  macCbackEventTbl                                                 
000206b4  macSendMsgDataSize                                               
000206f6  macCmdLen                                                        
0002071c  AESCCM_config                                                    
00020724  Cllc_keySource                                                   
0002072c  LED_defaultParams                                                
00020734  UART2_config                                                     
0002073c  UDMACC26XX_config                                                
0002075c  macAuthTagLen                                                    
00020774  ti_sysbios_knl_Idle_funcList                                     
0002077c  udmaCC26XXHWAttrs                                                
000207c0  NVS_defaultParams                                                
000207c4  TimestampP_nativeFormat32                                        
000207c8  TimestampP_nativeFormat64                                        
000207d0  macKeySourceLen                                                  
000207d8  ti_sysbios_family_arm_v8m_Hwi_swiTaskKeyAddress                  
000207dc  ti_sysbios_knl_Clock_tickPeriod                                  
00020b10  __TI_Handler_Table_Base                                          
00020b1c  __TI_Handler_Table_Limit                                         
00020b44  __TI_CINIT_Base                                                  
00020b74  __TI_CINIT_Limit                                                 
00020b74  __TI_CINIT_Warm                                                  
200002c0  uart2CC26X2Objects                                               
20000470  consoleTaskStack                                                 
20001870  controlTaskStack                                                 
20002c70  collectorTaskStack                                               
20003470  tBuffer                                                          
20003c70  control_task_dev_info                                            
2000424c  Cllc_associatedDevList                                           
200044a8  ti_sysbios_knl_Idle_taskStack                                    
200046a8  taskTbl                                                          
20004810  _CIOBUF_                                                         
20004810  __CIOBUF_                                                        
20004a30  ti_sysbios_family_arm_v8m_Hwi_dispatchTable                      
20004b2c  enhancedAckBuf                                                   
20004c28  gpioCallbackFunctions                                            
20004ce8  gpioUserArgs                                                     
20004da8  LEDObjects                                                       
20004e60  __TI_tmpnams                                                     
20004f00  FH_hnd                                                           
20004f88  macPib                                                           
20005078  aesccmCC26X4Objects                                              
200050e0  ti_sysbios_knl_ClockSupport_timerStruct                          
20005140  RF_cmdIEEERx                                                     
20005198  collectorTask                                                    
200051f0  consoleTask                                                      
20005248  controlTask                                                      
200052a0  ti_sysbios_knl_Idle_taskStruct                                   
200052f8  macScan                                                          
2000534c  CryptoResourceCC26XX_accessSemaphore                             
2000539c  CryptoResourceCC26XX_operationSemaphore                          
200053ec  ButtonObjects                                                    
20005434  NVOCMP_nvHandle                                                  
20005658  UTC_clock                                                        
2000569c  macSecurityPib                                                   
20005718  Collector_statistics                                             
20005754  dcBucket                                                         
20005788  macBeaconDevice                                                  
200057bc  RF_cmdPropRadioDivSetup                                          
200057ec  RF_cmdPropRxAdv                                                  
2000581c  macMgmtAction1                                                   
2000584c  macSrcExtAddrList                                                
2000587c  ti_sysbios_knl_Swi_readyQs                                       
200058ac  ti_sysbios_knl_Task_readyQs                                      
20005908  macCoord                                                         
20005934  macDevice                                                        
20005984  collectorTaskParam                                               
200059a8  consoleTaskParam                                                 
200059cc  controlTaskParam                                                 
20005a10  RF_cmdIEEECsma                                                   
20005a30  RF_cmdPropTxAdv                                                  
20005a50  RF_cmdRadioSetup                                                 
20005a70  RF_params                                                        
20005a90  macBeacon                                                        
20005ab0  udmaCC26XXObject                                                 
20005b24  BIOS_heapCallbackObject                                          
20005b40  BIOS_rtsGate                                                     
20005b5c  CryptoResourceCC26XX_hwi                                         
20005b78  RF_cmdPropCs                                                     
20005b94  RF_cmdPropCsSlotted                                              
20005bb0  control_task_DevInfo_mail_params                                 
20005bcc  control_task_NotiInfo_params                                     
20005be8  control_task_joinedDev_mail_params                               
20005c04  macCoordAction2                                                  
20005c20  macReset                                                         
20005c3c  macSemHandle                                                     
20005c58  macSrcShortAddrList                                              
20005c74  RF_cmdFsRx                                                       
20005c8c  RF_cmdFsTx                                                       
20005ca4  RF_cmdIEEETx                                                     
20005cbc  macScanAction                                                    
20005d10  RF_cmdRxAckCmd                                                   
20005d24  macAckDbg                                                        
20005d38  macMgmtAction2                                                   
20005d4c  macStatistics                                                    
20005d5e  conv                                                             
20005d60  macCoordAction3                                                  
20005d70  macData                                                          
20005d80  macDataTxDelay                                                   
20005d90  macFrmFilter                                                     
20005da0  macRxOutputIeee                                                  
20005db0  DevInfomail                                                      
20005dd8  coexMetricsStruct                                                
20005de4  macMain                                                          
20005df0  macRxOutputSubG                                                  
20005dfc  regionAttrs                                                      
20005e13  parmbuf                                                          
20005e1b  ApiMac_extAddr                                                   
20005e23  coexOverrideUseCases                                             
20005e2c  macCoordAction1                                                  
20005e34  macRxDataEntryQueue                                              
20005e6c  AESCCM_handle                                                    
20005e70  HEAPMGR_SIZE                                                     
20005e74  PowerCC26XX_swiKey                                               
20005e78  PowerCC26XX_taskKey                                              
20005e7c  Time_to_bytes                                                    
20005e80  cli                                                              
20005e84  dcCritical                                                       
20005e88  dcLimited                                                        
20005e8c  dcPtr                                                            
20005e90  dcRegulated                                                      
20005e94  dcTimeUsed                                                       
20005e98  macAddrLsb                                                       
20005e9c  macAddrMsb                                                       
20005ea0  macCryptoDrvTblPtr                                               
20005ea4  macPhyTxPower                                                    
20005ea8  macPrevPeriodRatCount                                            
20005eac  macRfDrvTblPtr                                                   
20005eb0  macRxSymbol                                                      
20005eb4  macSymbolTimerRollover                                           
20005eb8  macSymbolTimerTrigger                                            
20005ebc  macThread                                                        
20005ec0  macTimerActive                                                   
20005ec4  macTxTimestamp                                                   
20005ec8  nvsHandle                                                        
20005ecc  nvsParams                                                        
20005ed0  pClockHandleEDScan                                               
20005ed4  pMacRadioConfig                                                  
20005ed8  pMaxPower                                                        
20005edc  pRfMode                                                          
20005ee0  pRfPowerTable                                                    
20005ee4  rxRadioBufferPtr                                                 
20005ee8  ti_sysbios_family_arm_v8m_cc26x4_Timer_funcHookCH1               
20005eec  ti_sysbios_family_arm_v8m_cc26x4_Timer_funcHookCH2               
20005ef0  ti_sysbios_knl_Task_defaultStackHeap                             
20005ef4  ti_sysbios_runtime_System_atexitHandlers                         
20005ef8  timerAlignedQ                                                    
20005efc  timerUnalignedQ                                                  
20005f00  uart2Handle                                                      
20005f04  joinedDev_mail                                                   
20005f06  macRxDataEntryOffset                                             
20005f08  macTxCsmaBackoffDelay                                            
20005f0a  nvsCC26XXObjects                                                 
20005f0c  rxCmdHandle                                                      
20005f0e  txCmdHandle                                                      
20005f13  AppTaskId                                                        
20005f14  NVOCMP_size                                                      
20005f15  appTaskId                                                        
20005f16  dcStatus                                                         
20005f17  gAction                                                          
20005f18  lastRxPriority                                                   
20005f19  lastTxPriority                                                   
20005f1a  macAckTxActive                                                   
20005f1b  macMgmt                                                          
20005f1c  macPanCoordinator                                                
20005f1d  macPhyChannel                                                    
20005f1e  macPwr                                                           
20005f1f  macRxActive                                                      
20005f20  macRxEnableFlags                                                 
20005f21  macRxFilter                                                      
20005f22  macRxOutgoingAckFlag                                             
20005f23  macSpecUsecsPerSymbol                                            
20005f24  macSrcResIndex                                                   
20005f25  macSymbolTimerImpending                                          
20005f26  macTaskId                                                        
20005f27  macTxActive                                                      
20005f28  macTxBe                                                          
20005f29  macTxGpInterframeDelay                                           
20005f2a  macTxType                                                        
20005f2b  macUnitBackoffPeriod                                             
20005f2c  rxFhRsl                                                          
20005f2d  rxPromiscuousMode                                                
20005f2e  rxSeqNum                                                         
20005f2f  txAckReq                                                         
20005f30  txSeqn                                                           
20006000  PowerCC26X2_module                                               
20006178  _ftable                                                          
20006268  gpioPinConfigs                                                   
20006328  txPowerTable_868_pa13                                            
200063d7  ApiMac_gpOffsetToms                                              
200063d8  macMRFSKGenPhyTable                                              
20006478  _device                                                          
200064f0  fhObject                                                         
200065c4  ti_sysbios_knl_Clock_Module_state                                
20006690  Main_user1Cfg                                                    
20006744  _stream                                                          
20006794  Collector_macCallbacks                                           
20006824  ti_sysbios_family_arm_v8m_Hwi_Module_state                       
20006860  ti_sysbios_knl_Task_Module_state                                 
200068d4  macBeaconPayload                                                 
20006938  BIOS_Module_state                                                
20006990  pOverrides_2gfsk200kbps154g                                      
200069bc  ti_sysbios_knl_Swi_Module_state                                  
200069e4  macActionSet                                                     
20006a08  lastRatChanA                                                     
20006a09  lastRatChanB                                                     
20006a0a  macRxCmdActive                                                   
20006a0b  macFsCmdActive                                                   
20006a0c  macRxPreempted                                                   
20006a0d  numRfCmd                                                         
20006a0e  numRxCmd                                                         
20006a0f  numRxPostCmd                                                     
20006a10  ieeeCoexEnabled                                                  
20006a14  lastPostCmd                                                      
20006a18  macSfdDetectCback                                                
20006a28  macBeaconMargin                                                  
20006a8c  macStateTbl                                                      
20006aa0  macUser0Cfg                                                      
20006ac5  macSrcMatchIsAckAllPending                                       
20006ac6  macSrcMatchDefaultPendOn                                         
20006ac7  ApiMac_mtDataReqTxOptionGp                                       
20006ad8  RF_cmdNop                                                        
20006ae8  RF_cmdNopFg                                                      
20006af8  RF_prop_2gfsk200kbps154g                                         
20006b08  _hposcCoeffs                                                     
20006b18  macCfg                                                           
20006b4c  taskCnt                                                          
20006b50  heapmgrMemFreeTotal                                              
20006b54  heapmgrMemFreeError                                              
20006b64  ti_sysbios_family_arm_v8m_cc26x4_Timer_Module_state              
20006b70  ti_sysbios_runtime_Error_ignore                                  
20006b7c  ti_sysbios_runtime_System_Module_state                           
20006b98  __TI_cleanup_ptr                                                 
20006b9c  __TI_dtors_ptr                                                   
20006bac  RF_handle                                                        
20006bb0  macRadioAckIeeeFrame                                             
20006bb3  macRadioAckFrame                                                 
20006bb8  macCsmaRtcTimerId                                                
20006bc8  RFCC26XX_schedulerPolicy                                         
20006bd0  ti_sysbios_gates_GateMutexPri_Module_state                       
20006bd8  ti_sysbios_heaps_HeapCallback_Module_state                       
20006be0  ti_sysbios_knl_Mailbox_Module_state                              
20006be8  ti_sysbios_knl_Semaphore_Module_state                            
20006bf4  Csf_keys                                                         
20006c04  UTC_timeSeconds                                                  
20006c0c  __TI_ft_end                                                      
20006c10  __aeabi_errno                                                    
20006c14  _lock                                                            
20006c18  _unlock                                                          
20006c1c  appEvents                                                        
20006c20  control_task_DevInfo_mail_handle                                 
20006c24  control_task_NotiInfo_handle                                     
20006c28  control_task_joinedDev_mail_handle                               
20006c2c  gmt                                                              
20006c34  macDataBeaconRequeue                                             
20006c38  macDataCheckSched                                                
20006c3c  macDataCheckTxTime                                               
20006c40  macDataRequeueIndirect                                           
20006c44  macDataRxBeaconCritical                                          
20006c48  macDataSetSched                                                  
20006c4c  macDataTxBeaconComplete                                          
20006c50  macDataTxIndirect                                                
20006c60  macTimerNewRollover                                              
20006c64  macTimerRollover                                                 
20006c68  minTxOffTime                                                     
20006c74  pMacCbackCheckPending                                            
20006c78  pMacCbackQueryRetransmit                                         
20006c7c  pMacDataTx                                                       
20006c80  pMacEnhancedAck                                                  
20006c94  ti_sysbios_runtime_Memory_defaultHeapInstance                    
20006c98  Cllc_devShortAddr                                                
20006c9a  Cllc_events                                                      
20006c9e  Collector_events                                                 
20006ca0  Csf_events                                                       
20006ca4  assoc_resp_no_ack_cnt                                            
20006cac  symbol_rate_custom                                               
20006cae  Main_assertReason                                                
20006cb0  bInSwi                                                           
20006cb5  csmPhy                                                           
20006cb7  customMinTxOffEnabled                                            
20006cb9  dcEnabled                                                        
20006cbc  gmt_zone                                                         
20006cc2  macRadioYielded                                                  
20006cc3  macSrcMatchIsEnabled                                             
20006cc4  macSrcMatchManualAddressTracking                                 
20006cc5  macTxCmdActive                                                   
20006cc6  macTxSlottedDelay                                                
20006cc7  macTxSlottedDelayFactor                                          
20006cc9  numTx                                                            
20006cca  permitJoining                                                    
20006ccc  reqAccessAlloc                                                   
20006cce  save_par                                                         
20006ccf  savedCllcState                                                   
20006cd3  ti_sysbios_knl_Idle_initDone                                     
20006cd4  ti_sysbios_runtime_Startup_done                                  
20006e00  ti_sysbios_family_arm_v8m_Hwi_ramVectors                         
20006efc  heapStart                                                        
2003b000  __stack                                                          
2003b000  heapEnd                                                          
20040000  __STACK_END                                                      
50000000  __ccfg                                                           
ffffffff  __TI_pprof_out_hndl                                              
ffffffff  __TI_prof_data_size                                              
ffffffff  __TI_prof_data_start                                             
ffffffff  __binit__                                                        
ffffffff  __start___llvm_prf_bits                                          
ffffffff  __start___llvm_prf_cnts                                          
ffffffff  __stop___llvm_prf_bits                                           
ffffffff  __stop___llvm_prf_cnts                                           
ffffffff  binit                                                            
UNDEFED   ITM_flush                                                        
UNDEFED   ITM_restore                                                      
UNDEFED   PWM_config                                                       
UNDEFED   PWM_count                                                        
UNDEFED   __mpu_init                                                       

[1332 symbols]
