******************************************************************************
            TI ARM Clang Linker PC v3.2.2                      
******************************************************************************
>> Linked Mon Jul 29 19:57:16 2024

OUTPUT FILE NAME:   <sensor_ding.out>
ENTRY POINT SYMBOL: "ResetISR"  address: 0001d01b


MEMORY CONFIGURATION

         name            origin    length      used     unused   attr    fill
----------------------  --------  ---------  --------  --------  ----  --------
  FLASH                 00000000   00100000  00022ccf  000dd331  R  X
  SRAM                  20000000   00040000  0000a479  00035b87  RW X
  CCFG                  50000000   00000800  0000007c  00000784  R  X


SEGMENT ALLOCATION MAP

run origin  load origin   length   init length attrs members
----------  ----------- ---------- ----------- ----- -------
00000000    00000000    0001d086   0001d086    r-x
  00000000    00000000    0000003c   0000003c    r-- .resetVecs
  0000003c    0000003c    0001d04a   0001d04a    r-x .text
0001d088    0001d088    00000008   00000008    rw-
  0001d088    0001d088    00000008   00000008    rw- .args
0001d090    0001d090    00001c44   00001c44    r--
  0001d090    0001d090    000018bd   000018bd    r-- .rodata
  0001e950    0001e950    00000384   00000384    r-- .cinit
00052000    00052000    00004000   00000000    rw-
  00052000    00052000    00004000   00000000    rw- .TI.bound:flashBuf0
20000000    20000000    00000450   00000000    rw-
  20000000    20000000    00000450   00000000    rw- .bss.1
20000450    20000450    00000020   00000000    rw-
  20000450    20000450    00000010   00000000    rw- .TI.bound:dmaUart1RxControlTableEntry
  20000460    20000460    00000010   00000000    rw- .TI.bound:dmaUart1TxControlTableEntry
20000470    20000470    0000410d   00000000    rw-
  20000470    20000470    0000410d   00000000    rw- .bss.2
20004600    20004600    00000c4f   00000000    rw-
  20004600    20004600    00000c4f   00000000    rw- .data
20005300    20005300    000001fc   00000000    rw-
  20005300    20005300    000001fc   00000000    rw- .ramVecs
2003b000    2003b000    00005000   00000000    rw-
  2003b000    2003b000    00005000   00000000    rw- .stack
50000000    50000000    0000007c   0000007c    r--
  50000000    50000000    0000007c   0000007c    r-- .ccfg


SECTION ALLOCATION MAP

 output                                  attributes/
section   page    origin      length       input sections
--------  ----  ----------  ----------   ----------------
.resetVecs 
*          0    00000000    0000003c     
                  00000000    0000003c     ti_sysbios_config.o (.resetVecs)

.rodata    0    0001d090    000018bd     
                  0001d090    00000628     rf_multiMode_cc13x4.a : rf_patch_cpe_multi_protocol.c.cc13x4.ticlang.o (.rodata.patchImageMultiProtocol)
                  0001d6b8    00000008                           : RFCC26X2_multiMode.c.cc13x4.ticlang.o (.rodata..L__const.RF_hwiCpe0Active.activeCmd)
                  0001d6c0    00000101     libc.a : aeabi_ctype.S.obj (.rodata:__aeabi_ctype_table_)
                  0001d7c1    00000100     crc.o (.rodata.crc_table)
                  0001d8c1    000000f8     mac_cfg.o (.rodata.macPibTbl)
                  0001d9b9    0000008a     ti_sysbios_config.o (.rodata.ti_sysbios_family_arm_v8m_Hwi_Instance_init.err.1)
                  0001da43    00000089     ti_sysbios_config.o (.rodata.ti_sysbios_runtime_Memory_alloc.err)
                  0001dacc    00000088     mac_cfg.o (.rodata.macPibDefaults)
                  0001db54    00000087     ti_sysbios_config.o (.rodata.ti_sysbios_family_arm_v8m_Hwi_Instance_init.err)
                  0001dbdb    00000072     maclib_secure_cc13x4_tirtos7.a : hmac_global.c.o (.rodata.macAssociatingSt)
                  0001dc4d    00000072                                    : hmac_global.c.o (.rodata.macIdleSt)
                  0001dcbf    00000072                                    : hmac_global.c.o (.rodata.macPollingSt)
                  0001dd31    00000072                                    : hmac_global.c.o (.rodata.macScanningSt)
                  0001dda3    00000001     ti_drivers_config.o (.rodata.Button_count)
                  0001dda4    0000006c     mac_user_config.o (.rodata.macRfDriverTable)
                  0001de10    00000068     drivers_cc13x4.a : PowerCC26X2.c.obj (.rodata.resourceDB)
                  0001de78    00000058     mac_cfg.o (.rodata.macSecurityPibTbl)
                  0001ded0    00000058     ti_drivers_config.o (.rodata.uart2CC26X2HWAttrs)
                  0001df28    00000050     mac_cfg.o (.rodata.macMRFSKStdPhyTable)
                  0001df78    00000044     cui.o (.rodata.str1.25500649905015235891)
                  0001dfbc    00000044     cui.o (.rodata.str1.82802982239460582671)
                  0001e000    00000040     mac_user_config.o (.rodata.macCryptoDriverTable)
                  0001e040    00000040     maclib_secure_cc13x4_tirtos7.a : hmac_global.c.o (.rodata.macTimerRolloverValue)
                  0001e080    00000040     cui.o (.rodata.str1.18680694060528809401)
                  0001e0c0    00000038     maclib_secure_cc13x4_tirtos7.a : hmac_global.c.o (.rodata.macCmdIncludeFHIe)
                  0001e0f8    00000034     ssf.o (.rodata.str1.175697533864018170101)
                  0001e12c    00000030     ti_radio_config.o (.rodata.RF_cmdPropRxAdv_2gfsk50kbps154g)
                  0001e15c    0000002e     ssf.o (.rodata.str1.111735626433975511941)
                  0001e18a    00000002     jdllc.o (.rodata.keyUsageList)
                  0001e18c    00000028     drivers_cc13x4.a : NVSCC26XX.c.obj (.rodata.NVSCC26XX_fxnTable)
                  0001e1b4    00000028     ti_radio_config.o (.rodata.RF_cmdPropRadioDivSetup_2gfsk50kbps154g)
                  0001e1dc    00000028     maclib_secure_cc13x4_tirtos7.a : mac_radio.c.o (.rodata.activityObject)
                  0001e204    00000024     drivers_cc13x4.a : UART2.c.obj (.rodata.UART2_defaultParams)
                  0001e228    00000024     ti_sysbios_config.o (.rodata.ti_sysbios_knl_Task_Params_default)
                  0001e24c    00000020     mac_user_config.o (.rodata..L__const.rfSelect.RfCfg)
                  0001e26c    00000020     ti_radio_config.o (.rodata.RF_cmdPropTxAdv_2gfsk50kbps154g)
                  0001e28c    00000020     rf_multiMode_cc13x4.a : RFCC26X2_multiMode.c.cc13x4.ticlang.o (.rodata.cst32)
                  0001e2ac    00000020     jdllc.o (.rodata.keyDeviceList)
                  0001e2cc    0000001d     ti_sysbios_config.o (.rodata.str1.114093530142707899381)
                  0001e2e9    00000003     cui.o (.rodata.str1.106516855938329041901)
                  0001e2ec    0000001c     sensor.o (.rodata..Lswitch.table.Sensor_sendMsg.3)
                  0001e308    0000001c     drivers_cc13x4.a : GPTimerCC26XX.c.obj (.rodata.GPT_LUT)
                  0001e324    0000001c     ti_radio_config.o (.rodata.RF_cmdPropCs_2gfsk50kbps154g)
                  0001e340    0000001c     driverlib.lib : prcm.c.obj (.rodata.g_pui32DCGCRegs)
                  0001e35c    0000001c                   : prcm.c.obj (.rodata.g_pui32RCGCRegs)
                  0001e378    0000001c                   : prcm.c.obj (.rodata.g_pui32SCGCRegs)
                  0001e394    0000001c     ti_sysbios_config.o (.rodata.str1.54136785629011067091)
                  0001e3b0    0000001c     ti_sysbios_config.o (.rodata.ti_sysbios_family_arm_v8m_cc26x4_Timer_Params_default)
                  0001e3cc    0000001c     ti_sysbios_config.o (.rodata.ti_sysbios_knl_Mailbox_Params_default)
                  0001e3e8    00000018     drivers_cc13x4.a : PWM.c.obj (.rodata.PWM_defaultParams)
                  0001e400    00000018     ti_radio_config.o (.rodata.RF_cmdFs_2gfsk50kbps154g)
                  0001e418    00000018     maclib_secure_cc13x4_tirtos7.a : hmac_global.c.o (.rodata.macSendMsgBufSize)
                  0001e430    00000018     ssf.o (.rodata.str1.137203934258720081351)
                  0001e448    00000018     ssf.o (.rodata.str1.149332114862098306941)
                  0001e460    00000018     ssf.o (.rodata.str1.176989045256844588841)
                  0001e478    00000018     ssf.o (.rodata.str1.22671488472064998411)
                  0001e490    00000018     ssf.o (.rodata.str1.35936327599275636731)
                  0001e4a8    00000018     ssf.o (.rodata.str1.4386816021798390991)
                  0001e4c0    00000018     ssf.o (.rodata.str1.65249532876065086381)
                  0001e4d8    00000018     ssf.o (.rodata.str1.81870087663433000541)
                  0001e4f0    00000018     ssf.o (.rodata.str1.94088337864751475791)
                  0001e508    00000018     ti_sysbios_config.o (.rodata.ti_sysbios_family_arm_v8m_Hwi_Params_default)
                  0001e520    00000017     cui.o (.rodata.str1.182575247029164749851)
                  0001e537    00000017     cui.o (.rodata.str1.3354398299414093901)
                  0001e54e    00000015     cui.o (.rodata.str1.16209609899462507051)
                  0001e563    00000015     ssf.o (.rodata.str1.99041087063118600691)
                  0001e578    00000014     drivers_cc13x4.a : Button.c.obj (.rodata.Button_defaultParams)
                  0001e58c    00000014     ti_drivers_config.o (.rodata.PowerCC26X2_config)
                  0001e5a0    00000014     drivers_cc13x4.a : TRNG.c.obj (.rodata.TRNG_defaultParams)
                  0001e5b4    00000013     macTask.o (.rodata.msacbackSizeTable)
                  0001e5c7    00000013     cui.o (.rodata.str1.102282016975128293211)
                  0001e5da    00000013     ssf.o (.rodata.str1.51231188198628516361)
                  0001e5ed    00000013     ssf.o (.rodata.str1.52955529156005986921)
                  0001e600    00000013     cui.o (.rodata.str1.77108971315039313481)
                  0001e613    00000012     ssf.o (.rodata.str1.145927640768134078831)
                  0001e625    00000012     cui.o (.rodata.str1.57965206473661515771)
                  0001e637    00000011     ti_sysbios_config.o (.rodata.str1.111528116657238352481)
                  0001e648    00000011     ssf.o (.rodata.str1.72459565756163880421)
                  0001e659    00000011     sensor.o (.rodata.str1.86399352463730447251)
                  0001e66a    00000011     ssf.o (.rodata.validChannelMask)
                  0001e67b    00000001     ti_drivers_config.o (.rodata.GPIO_pinLowerBound)
                  0001e67c    00000010     drivers_cc13x4.a : AESCCM.c.obj (.rodata.AESCCM_defaultParams)
                  0001e68c    00000010     ti_drivers_config.o (.rodata.ButtonHWAttrs)
                  0001e69c    00000010     ti_drivers_config.o (.rodata.Button_config)
                  0001e6ac    00000010     ti_drivers_config.o (.rodata.GPIO_config)
                  0001e6bc    00000010     ti_drivers_config.o (.rodata.LED_config)
                  0001e6cc    00000010     maclib_secure_cc13x4_tirtos7.a : mac_duty_cycle.c.o (.rodata.cst16)
                  0001e6dc    00000010                                    : hmac_global.c.o (.rodata.macIEEEPhyTable)
                  0001e6ec    00000010     ti_drivers_config.o (.rodata.timerCC26XXHWAttrs)
                  0001e6fc    0000000f     sensor.o (.rodata.str1.114908228018720310511)
                  0001e70b    0000000f     ssf.o (.rodata.str1.119839857566329871091)
                  0001e71a    0000000f     ti_sysbios_config.o (.rodata.str1.123815885180704396101)
                  0001e729    0000000e     maclib_secure_cc13x4_tirtos7.a : hmac_global.c.o (.rodata.macCmdBufSize)
                  0001e737    0000000e                                    : hmac_global.c.o (.rodata.macTxFrameFailed)
                  0001e745    0000000e                                    : hmac_global.c.o (.rodata.macTxFrameSuccess)
                  0001e753    0000000e     ssf.o (.rodata.str1.143131056285309342521)
                  0001e761    00000003     cui.o (.rodata.str1.1727220237314762261)
                  0001e764    0000000c     drivers_cc13x4.a : Random.c.obj (.rodata..L__const.Random_seedAutomatic.hwAttrs)
                  0001e770    0000000c     ti_drivers_config.o (.rodata.GPTimerCC26XX_config)
                  0001e77c    0000000c     ti_drivers_config.o (.rodata.NVS_config)
                  0001e788    0000000c     ti_drivers_config.o (.rodata.RFCC26XX_hwAttrs)
                  0001e794    0000000c     ti_sysbios_config.o (.rodata.defAttrs)
                  0001e7a0    0000000c     drivers_cc13x4.a : Timer.c.obj (.rodata.defaultParams)
                  0001e7ac    0000000c                      : TimerCC26XX.c.obj (.rodata.defaultParams)
                  0001e7b8    0000000c     ti_drivers_config.o (.rodata.gptimerCC26XXHWAttrs)
                  0001e7c4    0000000c     maclib_secure_cc13x4_tirtos7.a : hmac_global.c.o (.rodata.macCbackEventTbl)
                  0001e7d0    0000000c                                    : hmac_global.c.o (.rodata.macSendMsgDataSize)
                  0001e7dc    0000000c     ssf.o (.rodata.str1.109638716016064757341)
                  0001e7e8    0000000c     ssf.o (.rodata.str1.67243849773169265341)
                  0001e7f4    0000000b     ssf.o (.rodata.str1.93280015240259553851)
                  0001e7ff    0000000a     drivers_cc13x4.a : Button.c.obj (.rodata..Lswitch.table.Button_gpioCallbackFxn)
                  0001e809    00000003     cui.o (.rodata.str1.17643001253678926731)
                  0001e80c    0000000a     jdllc.o (.rodata.keyIdLookupList)
                  0001e816    0000000a     sensor.o (.rodata.str1.8984902958309274291)
                  0001e820    00000009     maclib_secure_cc13x4_tirtos7.a : hmac_global.c.o (.rodata.macCmdLen)
                  0001e829    00000009     ssf.o (.rodata.str1.157122460158101493541)
                  0001e832    00000009     ssf.o (.rodata.str1.18114424290860011881)
                  0001e83b    00000009     ssf.o (.rodata.str1.24765741288239325951)
                  0001e844    00000009     ssf.o (.rodata.str1.39883029910703621341)
                  0001e84d    00000002     drivers_cc13x4.a : UART2CC26X2.c.obj (.rodata.stopBits)
                  0001e84f    00000001     ti_drivers_config.o (.rodata.GPIO_pinUpperBound)
                  0001e850    00000008     ti_drivers_config.o (.rodata.AESCCM_config)
                  0001e858    00000008     jdllc.o (.rodata.Jdllc_keySource)
                  0001e860    00000008     drivers_cc13x4.a : LED.c.obj (.rodata.LED_defaultParams)
                  0001e868    00000008     ti_drivers_config.o (.rodata.Timer_config)
                  0001e870    00000008     ti_drivers_config.o (.rodata.UART2_config)
                  0001e878    00000008     ti_drivers_config.o (.rodata.UDMACC26XX_config)
                  0001e880    00000008     driverlib.lib : aux_sysif.c.obj (.rodata.cst4)
                  0001e888    00000008     maclib_secure_cc13x4_tirtos7.a : mac_rx.c.o (.rodata.cst4)
                  0001e890    00000008     drivers_cc13x4.a : GPTimerCC26XX.c.obj (.rodata.cst8)
                  0001e898    00000008     main.o (.rodata.cst8)
                  0001e8a0    00000008     maclib_secure_cc13x4_tirtos7.a : hmac_global.c.o (.rodata.macAuthTagLen)
                  0001e8a8    00000008     ti_drivers_config.o (.rodata.nvsCC26XXHWAttrs)
                  0001e8b0    00000008     ssf.o (.rodata.str1.25750957905500915411)
                  0001e8b8    00000008     ssf.o (.rodata.str1.62713664212336136821)
                  0001e8c0    00000008     ti_sysbios_config.o (.rodata.ti_sysbios_knl_Idle_funcList)
                  0001e8c8    00000008     ti_drivers_config.o (.rodata.udmaCC26XXHWAttrs)
                  0001e8d0    00000007     ssf.o (.rodata.str1.112775746780578959251)
                  0001e8d7    00000007     ti_sysbios_config.o (.rodata.str1.174580395633770214331)
                  0001e8de    00000007     ssf.o (.rodata.str1.178643345727570655661)
                  0001e8e5    00000007     ssf.o (.rodata.str1.91798637038816203781)
                  0001e8ec    00000006     cui.o (.rodata..L.str.8)
                  0001e8f2    00000005     drivers_cc13x4.a : UART2CC26X2.c.obj (.rodata.parityType)
                  0001e8f7    00000005                      : UART2CC26X2.c.obj (.rodata.rxFifoThreshold)
                  0001e8fc    00000005     jdllc.o (.rodata.securityLevelEntry)
                  0001e901    00000005     cui.o (.rodata.str1.171172772721783292271)
                  0001e906    00000005     drivers_cc13x4.a : UART2CC26X2.c.obj (.rodata.txFifoThreshold)
                  0001e90b    00000004     ti_drivers_config.o (.rodata.LEDHWAttrs)
                  0001e90f    00000001     ti_drivers_config.o (.rodata.LED_count)
                  0001e910    00000004     drivers_cc13x4.a : NVS.c.obj (.rodata.NVS_defaultParams)
                  0001e914    00000004     ti_sysbios_config.o (.rodata.TimestampP_nativeFormat32)
                  0001e918    00000004     ti_sysbios_config.o (.rodata.TimestampP_nativeFormat64)
                  0001e91c    00000004     cui.o (.rodata.cst4)
                  0001e920    00000004     drivers_cc13x4.a : UART2CC26X2.c.obj (.rodata.cst4)
                  0001e924    00000004     maclib_secure_cc13x4_tirtos7.a : hmac_global.c.o (.rodata.macKeySourceLen)
                  0001e928    00000004     cui.o (.rodata.str1.1962397095404626351)
                  0001e92c    00000004     cui.o (.rodata.str1.30335467574677175321)
                  0001e930    00000004     cui.o (.rodata.str1.62677890245300467701)
                  0001e934    00000004     cui.o (.rodata.str1.90401143020905717261)
                  0001e938    00000004     cui.o (.rodata.str1.95615992137081022121)
                  0001e93c    00000004     ti_sysbios_config.o (.rodata.ti_sysbios_family_arm_v8m_Hwi_swiTaskKeyAddress)
                  0001e940    00000004     ti_sysbios_config.o (.rodata.ti_sysbios_knl_Clock_tickPeriod)
                  0001e944    00000002     ti_sysbios_config.o (.rodata.str1.71102027280925491351)
                  0001e946    00000002     ssf.o (.rodata.str1.81649424991681116081)
                  0001e948    00000001     ti_drivers_config.o (.rodata.NVS_count)
                  0001e949    00000001     ti_drivers_config.o (.rodata.Timer_count)
                  0001e94a    00000001     ti_drivers_config.o (.rodata.UART2_count)
                  0001e94b    00000001     ti_drivers_config.o (.rodata.aesccmCC26X4HWAttrs)
                  0001e94c    00000001     ssf.o (.rodata.str1.150428808045399419361)

.cinit     0    0001e950    00000384     
                  0001e950    0000031e     (.cinit..data.load) [load image, compression = lzss]
                  0001ec6e    00000002     --HOLE-- [fill = 0]
                  0001ec70    0000000c     (__TI_handler_table)
                  0001ec7c    00000008     (.cinit..TI.bound:dmaUart1RxControlTableEntry.load) [load image, compression = zero_init]
                  0001ec84    00000008     (.cinit..TI.bound:dmaUart1TxControlTableEntry.load) [load image, compression = zero_init]
                  0001ec8c    00000008     (.cinit..bss.1.load) [load image, compression = zero_init]
                  0001ec94    00000008     (.cinit..bss.2.load) [load image, compression = zero_init]
                  0001ec9c    00000008     (.cinit..ramVecs.load) [load image, compression = zero_init]
                  0001eca4    00000030     (__TI_cinit_table)

.init_array 
*          0    00000000    00000000     UNINITIALIZED

.TI.bound:flashBuf0 
*          0    00052000    00004000     UNINITIALIZED
                  00052000    00004000     ti_drivers_config.o (.TI.bound:flashBuf0)

.data      0    20004600    00000c4f     UNINITIALIZED
                  20004600    00000178     drivers_cc13x4.a : PowerCC26X2.c.obj (.data.PowerCC26X2_module)
                  20004778    000000c0     ti_drivers_config.o (.data.gpioPinConfigs)
                  20004838    000000a0     mac_cfg.o (.data.macMRFSKGenPhyTable)
                  200048d8    0000006c     maclib_secure_cc13x4_tirtos7.a : hmac_global.c.o (.data.fhObject)
                  20004944    00000068     rf_multiMode_cc13x4.a : RFCC26X2_multiMode.c.cc13x4.ticlang.o (.data..L_MergedGlobals.1)
                  200049ac    00000068     ti_sysbios_config.o (.data.ti_sysbios_knl_Clock_Module_state)
                  20004a14    00000064     rf_multiMode_cc13x4.a : RFCC26X2_multiMode.c.cc13x4.ticlang.o (.data..L_MergedGlobals.3)
                  20004a78    00000064     ti_radio_config.o (.data.txPowerTable_868_pa13)
                  20004adc    0000005c     main.o (.data.Main_user1Cfg)
                  20004b38    00000058     rf_multiMode_cc13x4.a : RFCC26X2_multiMode.c.cc13x4.ticlang.o (.data..L_MergedGlobals.2)
                  20004b90    00000048     sensor.o (.data.Sensor_macCallbacks)
                  20004bd8    00000048     jdllc.o (.data.macCallbacksCopy)
                  20004c20    00000040     ssf.o (.data.configureSubMenu)
                  20004c60    00000040     ssf.o (.data.ssfMainMenu)
                  20004ca0    0000003c     ti_sysbios_config.o (.data.ti_sysbios_family_arm_v8m_Hwi_Module_state)
                  20004cdc    0000003c     ti_sysbios_config.o (.data.ti_sysbios_knl_Task_Module_state)
                  20004d18    00000038     drivers_cc13x4.a : TRNGCC26XX.c.obj (.data..L_MergedGlobals.1)
                  20004d50    00000034     ssf.o (.data.commissionSubMenu)
                  20004d84    00000034     maclib_secure_cc13x4_tirtos7.a : hmac_global.c.o (.data.macBeaconPayload)
                  20004db8    00000030     drivers_cc13x4.a : TRNGCC26XX.c.obj (.data..L_MergedGlobals)
                  20004de8    00000030     sensor.o (.data.Sensor_msgStats)
                  20004e18    0000002c     ti_sysbios_config.o (.data.BIOS_Module_state)
                  20004e44    0000002c     jdllc.o (.data.keyTable)
                  20004e70    0000002c     ti_radio_config.o (.data.pOverrides_2gfsk50kbps154g)
                  20004e9c    00000028     ssf.o (.data.appSubMenu)
                  20004ec4    00000028     ti_sysbios_config.o (.data.ti_sysbios_knl_Swi_Module_state)
                  20004eec    00000024     jdllc.o (.data.devInfoBlock)
                  20004f10    00000024     maclib_secure_cc13x4_tirtos7.a : hmac_global.c.o (.data.macActionSet)
                  20004f34    00000004                                    : mac_hl_patch.c.o (.data..L_MergedGlobals)
                  20004f38    00000020                                    : mac.c.o (.data..L_MergedGlobals)
                  20004f58    00000020     mac_cfg.o (.data.macBeaconMargin)
                  20004f78    00000018     maclib_secure_cc13x4_tirtos7.a : mac_duty_cycle.c.o (.data..L_MergedGlobals)
                  20004f90    00000015                                    : mac_rx.c.o (.data..L_MergedGlobals)
                  20004fa5    00000015     cui.o (.data.gpMultiMenuTitle)
                  20004fba    00000002     maclib_secure_cc13x4_tirtos7.a : mac_autopend.c.o (.data..L_MergedGlobals)
                  20004fbc    00000014     ti_sysbios_config.o (.data.defaultPthreadAttrs)
                  20004fd0    00000014     maclib_secure_cc13x4_tirtos7.a : hmac_global.c.o (.data.macStateTbl)
                  20004fe4    00000014     main.o (.data.macUser0Cfg)
                  20004ff8    00000011     jdllc.o (.data.defaultChannelMask)
                  20005009    00000003     maclib_secure_cc13x4_tirtos7.a : mac_tx.c.o (.data..L_MergedGlobals.1)
                  2000500c    00000010     driverlib.lib : osc.c.obj (.data..L_MergedGlobals)
                  2000501c    00000010     mac_settings.o (.data.RF_cmdNop)
                  2000502c    00000010     mac_settings.o (.data.RF_cmdNopFg)
                  2000503c    00000010     ti_radio_config.o (.data.RF_prop_2gfsk50kbps154g)
                  2000504c    00000010     driverlib.lib : osc.c.obj (.data._hposcCoeffs)
                  2000505c    00000010     sensor.o (.data.jdllcCallbacks)
                  2000506c    00000010     mac_cfg.o (.data.macCfg)
                  2000507c    0000000e     sensor.o (.data.parentInfo)
                  2000508a    00000002     jdllc.o (.data.Jdllc_events)
                  2000508c    0000000c     maclib_osal_tirtos7_cc13x4_26x4.a : osal_port.c.o (.data..L_MergedGlobals.1)
                  20005098    0000000c     maclib_secure_cc13x4_tirtos7.a : mac.c.o (.data..L_MergedGlobals.1)
                  200050a4    0000000c     drivers_cc13x4.a : NVSCC26XX.c.obj (.data..L_MergedGlobals)
                  200050b0    0000000c     maclib_osal_tirtos7_cc13x4_26x4.a : osal_port.c.o (.data..L_MergedGlobals)
                  200050bc    0000000c     ti_sysbios_config.o (.data.ti_sysbios_family_arm_v8m_cc26x4_Timer_Module_state)
                  200050c8    0000000c     ti_sysbios_config.o (.data.ti_sysbios_runtime_Error_ignore)
                  200050d4    0000000c     ti_sysbios_config.o (.data.ti_sysbios_runtime_System_Module_state)
                  200050e0    0000000a     sensor.o (.data.collectorAddr)
                  200050ea    0000000a     main.o (.data.collectorAddr_app)
                  200050f4    00000008     maclib_osal_tirtos7_cc13x4_26x4.a : osal_port_timers.c.o (.data..L_MergedGlobals.1)
                  200050fc    00000008     maclib_secure_cc13x4_tirtos7.a : mac_radio.c.o (.data..L_MergedGlobals.1)
                  20005104    00000008     maclib_osal_tirtos7_cc13x4_26x4.a : osal_port_timers.c.o (.data..L_MergedGlobals)
                  2000510c    00000008     maclib_secure_cc13x4_tirtos7.a : mac_radio.c.o (.data..L_MergedGlobals)
                  20005114    00000008                                    : mac_radio_tx.c.o (.data..L_MergedGlobals)
                  2000511c    00000008                                    : mac_tx.c.o (.data..L_MergedGlobals)
                  20005124    00000008     rf_multiMode_cc13x4.a : RFCC26X2_multiMode.c.cc13x4.ticlang.o (.data..L_MergedGlobals)
                  2000512c    00000008                           : RFCC26X2_multiMode.c.cc13x4.ticlang.o (.data.RFCC26XX_schedulerPolicy)
                  20005134    00000008     ti_sysbios_config.o (.data.ti_sysbios_gates_GateMutexPri_Module_state)
                  2000513c    00000008     ti_sysbios_config.o (.data.ti_sysbios_heaps_HeapCallback_Module_state)
                  20005144    00000008     ti_sysbios_config.o (.data.ti_sysbios_knl_Mailbox_Module_state)
                  2000514c    00000008     ti_sysbios_config.o (.data.ti_sysbios_knl_Semaphore_Module_state)
                  20005154    00000004     cui.o (.data.CUI_clientOpen.numClients)
                  20005158    00000004     drivers_cc13x4.a : PowerCC26X2.c.obj (.data.PowerCC26X2_rtcSubSecInc)
                  2000515c    00000004     rf_multiMode_cc13x4.a : RFCC26X2_multiMode.c.cc13x4.ticlang.o (.data.RF_fsmActiveState.lfClockSourceLast)
                  20005160    00000004     libc.a : aeabi_portable.c.obj (.data.__aeabi_errno)
                  20005164    00000004            : _lock.c.obj (.data._lock)
                  20005168    00000004            : _lock.c.obj (.data._unlock)
                  2000516c    00000004     api_mac.o (.data.appEvents)
                  20005170    00000004     control_task.o (.data.control_task_InfoToHub_handle)
                  20005174    00000004     cui.o (.data.cuiMultiMenu)
                  20005178    00000004     control_task.o (.data.devInfoConfirmationTimer)
                  2000517c    00000004     sensor.o (.data.endToEndDelay)
                  20005180    00000004     cui.o (.data.gCurrMenuItemEntry)
                  20005184    00000004     cui.o (.data.gPrevMenuItemEntry)
                  20005188    00000004     cui.o (.data.gTxLen)
                  2000518c    00000004     cui.o (.data.gTxSent)
                  20005190    00000004     cui.o (.data.gUartHandle)
                  20005194    00000004     jdllc.o (.data.interimDelayTicks)
                  20005198    00000004     sensor.o (.data.joinTimeTicks)
                  2000519c    00000004     ssf.o (.data.keys)
                  200051a0    00000004     ssf.o (.data.lastSavedFrameCounter)
                  200051a4    00000004     maclib_secure_cc13x4_tirtos7.a : hmac_global.c.o (.data.macDataBeaconRequeue)
                  200051a8    00000004                                    : hmac_global.c.o (.data.macDataCheckSched)
                  200051ac    00000004                                    : hmac_global.c.o (.data.macDataCheckTxTime)
                  200051b0    00000004                                    : hmac_global.c.o (.data.macDataRequeueIndirect)
                  200051b4    00000004                                    : hmac_global.c.o (.data.macDataRxBeaconCritical)
                  200051b8    00000004                                    : hmac_global.c.o (.data.macDataSetSched)
                  200051bc    00000004                                    : hmac_global.c.o (.data.macDataTxBeaconComplete)
                  200051c0    00000004                                    : hmac_global.c.o (.data.macDataTxIndirect)
                  200051c4    00000004     macTask.o (.data.macEvents)
                  200051c8    00000004     maclib_secure_cc13x4_tirtos7.a : mac_symbol_timer.c.o (.data.macSymbolWakeupClock)
                  200051cc    00000004     macTask.o (.data.macTaskEvents)
                  200051d0    00000004     maclib_secure_cc13x4_tirtos7.a : hmac_global.c.o (.data.macTimerNewRollover)
                  200051d4    00000004                                    : hmac_global.c.o (.data.macTimerRollover)
                  200051d8    00000004                                    : mac.c.o (.data.minTxOffTime)
                  200051dc    00000004     jdllc.o (.data.pJdllcCallbacksCopy)
                  200051e0    00000004     api_mac.o (.data.pMacCallbacks)
                  200051e4    00000004     macTask.o (.data.pMacCbackCheckPending)
                  200051e8    00000004     macTask.o (.data.pMacCbackQueryRetransmit)
                  200051ec    00000004     maclib_secure_cc13x4_tirtos7.a : hmac_global.c.o (.data.pMacDataTx)
                  200051f0    00000004                                    : mac_radio_tx.c.o (.data.pMacEnhancedAck)
                  200051f4    00000004     ssf.o (.data.pNV)
                  200051f8    00000004     maclib_secure_cc13x4_tirtos7.a : mac_mcu.c.o (.data.pRandomSeedCB)
                  200051fc    00000004     sensor.o (.data.startSensorMsgTimeStamp)
                  20005200    00000004     sensor.o (.data.tempSensor)
                  20005204    00000004     ti_sysbios_config.o (.data.terminatedList)
                  20005208    00000004     ti_sysbios_config.o (.data.ti_sysbios_runtime_Memory_defaultHeapInstance)
                  2000520c    00000004     sensor.o (.data.totalE2EDelaySum)
                  20005210    00000002     sensor.o (.data.Sensor_events)
                  20005212    00000002     ssf.o (.data.Ssf_resetCount)
                  20005214    00000002     maclib_secure_cc13x4_tirtos7.a : mac_hl_patch.c.o (.data.assoc_resp_no_ack_cnt)
                  20005216    00000002     ssf.o (.data.events)
                  20005218    00000002     sensor.o (.data.lastRcvdBroadcastMsgId)
                  2000521a    00000002     control_task.o (.data.personal_addr)
                  2000521c    00000002     ssf.o (.data.setChMaskAction.cursor.0)
                  2000521e    00000002     ssf.o (.data.setNwkKeyAction.cursor.0)
                  20005220    00000002     ssf.o (.data.setPanIdAction.cursor.0)
                  20005222    00000001     api_mac.o (.data.ApiMac_gpOffsetToms)
                  20005223    00000001     api_mac.o (.data.ApiMac_mtDataReqTxOptionGp)
                  20005224    00000001     cui.o (.data.CUI_statusLinePrintf.refreshCharIdx)
                  20005225    00000001     jdllc.o (.data.Jdllc_getJoiningPanId.panIdInitialized)
                  20005226    00000001     main.o (.data.Main_assertReason)
                  20005227    00000001     nvocmp.o (.data.NVOCMP_failF)
                  20005228    00000001     ssf.o (.data.Ssf_resetReseason)
                  20005229    00000001     maclib_secure_cc13x4_tirtos7.a : lmac_global.c.o (.data.bInSwi)
                  2000522a    00000001     rf_multiMode_cc13x4.a : rf_patch_cpe_multi_protocol.c.cc13x4.ticlang.o (.data.bMultiProtocolPatchEntered)
                  2000522b    00000001     macTask.o (.data.checkPending)
                  2000522c    00000001     maclib_secure_cc13x4_tirtos7.a : hmac_global.c.o (.data.csmPhy)
                  2000522d    00000001                                    : mac.c.o (.data.customMinTxOffEnabled)
                  2000522e    00000001                                    : mac_duty_cycle.c.o (.data.dcEnabled)
                  2000522f    00000001     control_task.o (.data.devInfoConfirmationFlag)
                  20005230    00000001     control_task.o (.data.devInfoConfirmationMail)
                  20005231    00000001     sensor.o (.data.deviceTxMsduHandle)
                  20005232    00000001     cui.o (.data.gModuleInitialized)
                  20005233    00000001     jdllc.o (.data.initBroadcastMsg)
                  20005234    00000001     drivers_cc13x4.a : GPIOCC26X4.c.obj (.data.initCalled)
                  20005235    00000001                      : AESCCMCC26X4.c.obj (.data.isInitialized)
                  20005236    00000001                      : CryptoResourceCC26XX.c.obj (.data.isInitialized)
                  20005237    00000001                      : NVS.c.obj (.data.isInitialized)
                  20005238    00000001                      : PWM.c.obj (.data.isInitialized)
                  20005239    00000001     ssf.o (.data.led1State)
                  2000523a    00000001     maclib_secure_cc13x4_tirtos7.a : lmac_global.c.o (.data.macRadioYielded)
                  2000523b    00000001                                    : lmac_global.c.o (.data.macSrcMatchIsEnabled)
                  2000523c    00000001                                    : mac_autopend.c.o (.data.macSrcMatchManualAddressTracking)
                  2000523d    00000001                                    : mac.c.o (.data.macTxCmdActive)
                  2000523e    00000001                                    : lmac_global.c.o (.data.macTxSlottedDelay)
                  2000523f    00000001                                    : mac_tx.c.o (.data.macTxSlottedDelayFactor)
                  20005240    00000001                                    : mac_tx.c.o (.data.npdb)
                  20005241    00000001     jdllc.o (.data.numSyncLoss)
                  20005242    00000001     maclib_secure_cc13x4_tirtos7.a : mac_tx.c.o (.data.numTx)
                  20005243    00000001     jdllc.o (.data.panIdMatch)
                  20005244    00000001     jdllc.o (.data.parentFound)
                  20005245    00000001     macTask.o (.data.queryRetransmit)
                  20005246    00000001     sensor.o (.data.rejoining)
                  20005247    00000001     maclib_secure_cc13x4_tirtos7.a : mac.c.o (.data.reqAccessAlloc)
                  20005248    00000001     ssf.o (.data.setChMaskAction.initChanMask)
                  20005249    00000001     ssf.o (.data.setNwkKeyAction.initChanMask)
                  2000524a    00000001     ssf.o (.data.setPanIdAction.initPanId)
                  2000524b    00000001     ssf.o (.data.started)
                  2000524c    00000001     api_mac.o (.data.subAttributeReadId)
                  2000524d    00000001     ti_sysbios_config.o (.data.ti_sysbios_knl_Idle_initDone)
                  2000524e    00000001     ti_sysbios_config.o (.data.ti_sysbios_runtime_Startup_done)

.ramVecs   0    20005300    000001fc     UNINITIALIZED
                  20005300    000000fc     driverlib.lib : interrupt.c.obj (.ramVecs)
                  200053fc    00000004     --HOLE--
                  20005400    000000fc     ti_sysbios_config.o (.ramVecs)

.sysmem    0    200054fc    00000000     UNINITIALIZED

.nonretenvar 
*          0    200054fc    00000000     UNINITIALIZED

.stack     0    2003b000    00005000     UNINITIALIZED
                  2003b000    00000004     sysbios.a : boot_cortex_m.c.obj (.stack)
                  2003b004    00004ffc     --HOLE--

.ccfg      0    50000000    0000007c     
                  50000000    0000007c     ti_devices_config.o (.ccfg)

.text      0    0000003c    0001d04a     
                  0000003c    00000744     maclib_secure_cc13x4_tirtos7.a : mac_rx.c.o (.text.macRxFrameIsr)
                  00000780    000006d2     nvocmp.o (.text.NVOCMP_compactPage)
                  00000e52    00000002     ti_sysbios_config.o (.text.BIOS_nullFunc)
                  00000e54    00000664     api_mac.o (.text.ApiMac_processIncoming)
                  000014b8    00000594     maclib_secure_cc13x4_tirtos7.a : mac_radio_tx.c.o (.text.macRadioTxGo)
                  00001a4c    0000054e     cui.o (.text.CUI_processMenuUpdate)
                  00001f9a    00000002     ti_drivers_config.o (.text.Board_initHook)
                  00001f9c    00000480     rf_multiMode_cc13x4.a : RFCC26X2_multiMode.c.cc13x4.ticlang.o (.text.RF_fsmActiveState)
                  0000241c    00000468     nvocmp.o (.text.NVOCMP_initNvApi)
                  00002884    00000438     jdllc.o (.text.Jdllc_process)
                  00002cbc    000003d4     ti_sysbios_config.o (.text.ti_sysbios_runtime_System_doPrint)
                  00003090    00000358     maclib_secure_cc13x4_tirtos7.a : mac_rx.c.o (.text.rxPayloadIsr)
                  000033e8    0000032c     nvocmp.o (.text.NVOCMP_addItem)
                  00003714    0000032a     ssf.o (.text.setChMaskAction)
                  00003a3e    00000328     sensor.o (.text.Sensor_process)
                  00003d66    00000002     drivers_cc13x4.a : LED.c.obj (.text.LED_init)
                  00003d68    0000031c     maclib_secure_cc13x4_tirtos7.a : mac_hl_patch.c.o (.text.macWrapperAddDevice)
                  00004084    000002f4                                    : mac.c.o (.text.macRxCb)
                  00004378    000002ec                                    : mac_mgmt.c.o (.text.macBuildHeader)
                  00004664    000002e8                                    : mac_radio_tx.c.o (.text.macRadioCsmaTxCb)
                  0000494c    000002d4     cui.o (.text.CUI_dispMenu)
                  00004c20    000002c6     macTask.o (.text.macTaskFxn)
                  00004ee6    00000002     rf_multiMode_cc13x4.a : rfc.c.cc13x4.ticlang.o (.text.NOROM_RFCCpePatchReset)
                  00004ee8    000002b6     ssf.o (.text.setNwkKeyAction)
                  0000519e    00000002     rf_multiMode_cc13x4.a : RFCC26X2_multiMode.c.cc13x4.ticlang.o (.text.RF_defaultCallback)
                  000051a0    00000268     maclib_secure_cc13x4_tirtos7.a : mac_radio.c.o (.text.macRadioInitSubG)
                  00005408    0000024c     rf_multiMode_cc13x4.a : RFCC26X2_multiMode.c.cc13x4.ticlang.o (.text.RF_open)
                  00005654    0000024c     ti_sysbios_config.o (.text.ti_sysbios_runtime_Startup_exec)
                  000058a0    00000240     nvocmp.o (.text.NVOCMP_findItem)
                  00005ae0    0000022e     mac_settings.o (.text.rfSetConfigSubG)
                  00005d0e    00000002     ssf.o (.text.Ssf_sensorReadingUpdate)
                  00005d10    00000228     maclib_secure_cc13x4_tirtos7.a : mac_security_pib.c.o (.text.MAC_MlmeSetSecurityReq)
                  00005f38    00000222     ti_sysbios_config.o (.text.ti_sysbios_family_arm_v8m_Hwi_Instance_init)
                  0000615a    00000002     ssf.o (.text.Ssf_trackingUpdate)
                  0000615c    00000220     cui.o (.text.CUI_registerMenu)
                  0000637c    0000021c     maclib_secure_cc13x4_tirtos7.a : mac_radio_tx.c.o (.text.macRadioTxRequestTxAck)
                  00006598    00000210                                    : mac.c.o (.text.macSendReceiveCmdSubG)
                  000067a8    0000020e     ssf.o (.text.setPanIdAction)
                  000069b6    00000002     drivers_cc13x4.a : UART2CC26X2.c.obj (.text.UART2CC26X2_eventCallback)
                  000069b8    000001fc                      : AESCCMCC26X4.c.obj (.text.AESCCM_addAADInternal)
                  00006bb4    000001fc     cui.o (.text.CUI_statusLinePrintf)
                  00006db0    000001f2     ssf.o (.text.Ssf_init)
                  00006fa2    00000002     libclang_rt.builtins.a : aeabi_div0.c.obj (.text.__aeabi_ldiv0)
                  00006fa4    000001f0     cui.o (.text.CUI_init)
                  00007194    000001f0     drivers_cc13x4.a : UART2CC26X2.c.obj (.text.UART2CC26X2_hwiIntFxn)
                  00007384    000001ec     maclib_secure_cc13x4_tirtos7.a : mac_hl_patch.c.o (.text.macTxCompleteCallback)
                  00007570    000001e8     rf_multiMode_cc13x4.a : RFCC26X2_multiMode.c.cc13x4.ticlang.o (.text.RF_scheduleCmd)
                  00007758    000001dc                           : RFCC26X2_multiMode.c.cc13x4.ticlang.o (.text.RF_dispatchNextCmd)
                  00007934    000001d8     nvocmp.o (.text.NVOCMP_erase)
                  00007b0c    000001d8     maclib_secure_cc13x4_tirtos7.a : mac_security_pib.c.o (.text.macSecurityPibReset)
                  00007ce4    000001d4     drivers_cc13x4.a : UART2.c.obj (.text.UART2_readTimeout)
                  00007eb8    000001d0     maclib_secure_cc13x4_tirtos7.a : mac.c.o (.text.macSendReceiveCmdIeee)
                  00008088    000001d0     ti_sysbios_config.o (.text.ti_sysbios_knl_Clock_workFuncDynamic)
                  00008258    000001c2     jdllc.o (.text.assocCnfCb)
                  0000841a    00000002     libc.a : _lock.c.obj (.text._nop)
                  0000841c    000001bc     maclib_secure_cc13x4_tirtos7.a : mac_pib.c.o (.text.MAC_MlmeSetReq)
                  000085d8    000001b6     ti_sysbios_config.o (.text.pthread_create)
                  0000878e    00000002     drivers_cc13x4.a : PowerCC26X2.c.obj (.text.emptyClockFunc)
                  00008790    000001ac     maclib_secure_cc13x4_tirtos7.a : mac_tx.c.o (.text.macTxFrame)
                  0000893c    0000019c     ti_sysbios_config.o (.text.ti_sysbios_family_arm_v8m_cc26x4_Timer_construct)
                  00008ad8    0000019a     jdllc.o (.text.pollCnfCb)
                  00008c72    00000002     drivers_cc13x4.a : CryptoResourceCC26XX.c.obj (.text.errorSpin)
                  00008c74    00000194     cui.o (.text.CUI_statusLineResourceRequest)
                  00008e08    00000194     drivers_cc13x4.a : PowerCC26X2_calibrateRCOSC.c.obj (.text.PowerCC26X2_auxISR)
                  00008f9c    00000194     maclib_secure_cc13x4_tirtos7.a : mac_hl_patch.c.o (.text.macWrapperAddKeyInitFCtr)
                  00009130    00000188                                    : mac_security_pib.c.o (.text.MAC_MlmeGetSecurityReq)
                  000092b8    00000184     drivers_cc13x4.a : UART2CC26X2.c.obj (.text.UART2_open)
                  0000943c    00000184     maclib_secure_cc13x4_tirtos7.a : mac_hl_patch.c.o (.text.macIncomingFrameSecurityMaterialRetrieval)
                  000095c0    0000017e     control_task.o (.text.controlTask_)
                  0000973e    00000174     drivers_cc13x4.a : UART2.c.obj (.text.UART2_writeTimeoutBlocking)
                  000098b2    00000002     maclib_secure_cc13x4_tirtos7.a : mac_pwr.c.o (.text.macApiPwrOnReq)
                  000098b4    00000168                                    : mac_mgmt.c.o (.text.macBuildCommonReq)
                  00009a1c    00000160                                    : mac_hl_patch.c.o (.text.MAC_McpsDataReq)
                  00009b7c    00000160                                    : mac_scan.c.o (.text.macApiScanReq)
                  00009cdc    00000160                                    : mac_tx.c.o (.text.txCsmaDelay)
                  00009e3c    0000015a     sensor.o (.text.dataCnfCB)
                  00009f96    00000152     jdllc.o (.text.dataCnfCb)
                  0000a0e8    0000014c     rf_multiMode_cc13x4.a : RFCC26X2_multiMode.c.cc13x4.ticlang.o (.text.RF_radioOpDoneCb)
                  0000a234    00000148     drivers_cc13x4.a : PowerCC26X2.c.obj (.text.Power_sleep)
                  0000a37c    00000148     maclib_secure_cc13x4_tirtos7.a : mac_data.c.o (.text.macDataTxSend)
                  0000a4c4    00000146     macTask.o (.text.MAC_CbackEvent)
                  0000a60a    00000144     rf_multiMode_cc13x4.a : RFCC26X2_multiMode.c.cc13x4.ticlang.o (.text.RF_updatePaConfiguration)
                  0000a74e    00000002     maclib_secure_cc13x4_tirtos7.a : mac_mcu.c.o (.text.macMcuBitReverse)
                  0000a750    00000144                                    : mac_hl_patch.c.o (.text.macIncomingFrameSecurity)
                  0000a894    00000140     nvocmp.o (.text.NVOCMP_eraseNvApi)
                  0000a9d4    00000140     maclib_secure_cc13x4_tirtos7.a : mac_radio_tx.c.o (.text.macRadioLbtTxCb)
                  0000ab14    0000013c     rf_multiMode_cc13x4.a : RFCC26X2_multiMode.c.cc13x4.ticlang.o (.text.RF_abortCmd)
                  0000ac50    00000138     libc.a : strtol.c.obj (.text.strtol)
                  0000ad88    00000134     rf_multiMode_cc13x4.a : RFCC26X2_multiMode.c.cc13x4.ticlang.o (.text.RF_ratSetupChannel)
                  0000aebc    00000130     drivers_cc13x4.a : AESCCMCC26X4.c.obj (.text.AESCCM_addDataInternal)
                  0000afec    00000130     sensor.o (.text.processConfigRequest)
                  0000b11c    0000012c     rf_multiMode_cc13x4.a : RFCC26X2_multiMode.c.cc13x4.ticlang.o (.text.RF_close)
                  0000b248    0000012c     sensor.o (.text.dataIndCB)
                  0000b374    0000012c     maclib_secure_cc13x4_tirtos7.a : mac_hl_patch.c.o (.text.macRxBeaconCritical)
                  0000b4a0    0000012c     ti_sysbios_config.o (.text.ti_sysbios_knl_Semaphore_pend)
                  0000b5cc    0000012a     nvocmp.o (.text.NVOCMP_updateItemApi)
                  0000b6f6    00000002     maclib_secure_cc13x4_tirtos7.a : mac_mgmt.c.o (.text.macNoAction)
                  0000b6f8    00000128     drivers_cc13x4.a : Button.c.obj (.text.Button_clockTimeoutHandler)
                  0000b820    00000128     maclib_secure_cc13x4_tirtos7.a : mac_data.c.o (.text.macAllocTxBuffer)
                  0000b948    00000128                                    : mac_hl_patch.c.o (.text.macWrapperDeleteDevice)
                  0000ba70    00000124     rf_multiMode_cc13x4.a : RFCC26X2_multiMode.c.cc13x4.ticlang.o (.text.RF_fsmSetupState)
                  0000bb94    00000124     drivers_cc13x4.a : TRNGCC26XX.c.obj (.text.TRNGCC26XX_hwiFxn)
                  0000bcb8    00000124     maclib_secure_cc13x4_tirtos7.a : mac_radio.c.o (.text.macRadioInitIeee)
                  0000bddc    0000011c     drivers_cc13x4.a : NVSCC26XX.c.obj (.text.NVSCC26XX_write)
                  0000bef8    0000011c     ti_sysbios_config.o (.text.ti_sysbios_knl_Mailbox_Instance_init)
                  0000c014    0000011a     nvocmp.o (.text.NVOCMP_readContItemApi)
                  0000c12e    00000002     maclib_secure_cc13x4_tirtos7.a : mac_radio.c.o (.text.macRadioSetRE)
                  0000c130    00000118     drivers_cc13x4.a : PowerCC26X2.c.obj (.text.Power_init)
                  0000c248    00000118     rf_multiMode_cc13x4.a : RFCC26X2_multiMode.c.cc13x4.ticlang.o (.text.RF_decodeOverridePointers)
                  0000c360    00000118     sensor.o (.text.Sensor_sendMsg)
                  0000c478    00000118     ssf.o (.text.Ssf_stateChangeUpdate)
                  0000c590    00000118     drivers_cc13x4.a : UART2.c.obj (.text.UART2_writeTimeoutNonblocking)
                  0000c6a8    00000114     driverlib.lib : setup_rom.c.obj (.text.NOROM_SetupAfterColdResetWakeupFromShutDownCfg3)
                  0000c7bc    00000114     nvocmp.o (.text.NVOCMP_createItemApi)
                  0000c8d0    00000114     maclib_secure_cc13x4_tirtos7.a : mac_tx.c.o (.text.txComplete)
                  0000c9e4    00000110     drivers_cc13x4.a : GPIOCC26X4.c.obj (.text.GPIO_init)
                  0000caf4    00000110                      : LED.c.obj (.text.LED_open)
                  0000cc04    00000110     maclib_secure_cc13x4_tirtos7.a : mac_ie_build.c.o (.text.macBuildPayloadIes)
                  0000cd14    0000010c     driverlib.lib : setup_rom.c.obj (.text.NOROM_SetupAfterColdResetWakeupFromShutDownCfg2)
                  0000ce20    0000010c     nvocmp.o (.text.NVOCMP_getDstPage)
                  0000cf2c    0000010c     drivers_cc13x4.a : PowerCC26X2_calibrateRCOSC.c.obj (.text.PowerCC26X2_calibrate)
                  0000d038    0000010c     ti_sysbios_config.o (.text.ti_sysbios_knl_Task_Instance_finalize)
                  0000d144    0000010a     ssf.o (.text.Ssf_processEvents)
                  0000d24e    0000010a     ti_sysbios_config.o (.text.ti_sysbios_knl_Clock_startI)
                  0000d358    00000108     drivers_cc13x4.a : AESCCMCC26X4.c.obj (.text.AESCCM_getResult)
                  0000d460    00000108     maclib_secure_cc13x4_tirtos7.a : mac_hl_patch.c.o (.text.macBuildDataFrame)
                  0000d568    00000104     nvocmp.o (.text.NVOCMP_deleteItemApi)
                  0000d66c    00000104     sysbios.a : Hwi_asm_gcc.s.obj (.text.ti_sysbios_family_arm_v8m_Hwi_dispatch)
                  0000d770    00000100     driverlib.lib : setup.c.obj (.text.NOROM_SetupTrimDevice)
                  0000d870    00000100     nvocmp.o (.text.NVOCMP_setItemInactive)
                  0000d970    00000100     rf_multiMode_cc13x4.a : RFCC26X2_multiMode.c.cc13x4.ticlang.o (.text.RF_fsmPowerUpState)
                  0000da70    00000100     drivers_cc13x4.a : TimerCC26XX.c.obj (.text.Timer_open)
                  0000db70    00000100     maclib_secure_cc13x4_tirtos7.a : mac_device.c.o (.text.macBuildAssociateReq)
                  0000dc70    00000100                                    : mac_duty_cycle.c.o (.text.macDutyCycleInit)
                  0000dd70    00000100                                    : mac_data.c.o (.text.macRxCompleteCallback)
                  0000de70    00000100                                    : mac_hl_patch.c.o (.text.macScanNextChan)
                  0000df70    000000fc     nvocmp.o (.text.NVOCMP_writeItemApi)
                  0000e06c    000000fc     rf_multiMode_cc13x4.a : RFCC26X2_multiMode.c.cc13x4.ticlang.o (.text.RF_hwiCpe0Active)
                  0000e168    000000fa     jdllc.o (.text.scanCnfCb)
                  0000e262    00000002     maclib_secure_cc13x4_tirtos7.a : mac_radio_tx.c.o (.text.macRadioTxCancelTxAck)
                  0000e264    000000f6     ti_sysbios_config.o (.text.PowerCC26XX_standbyPolicy)
                  0000e35a    00000002     --HOLE-- [fill = 0]
                  0000e35c    000000f4     drivers_cc13x4.a : TRNGCC26XX.c.obj (.text.TRNG_getRandom)
                  0000e450    000000f4     maclib_secure_cc13x4_tirtos7.a : mac_mgmt.c.o (.text.macSetDefaultsByPhyID)
                  0000e544    000000f2     ti_sysbios_config.o (.text.ti_sysbios_knl_Clock_init)
                  0000e636    00000002     --HOLE-- [fill = 0]
                  0000e638    000000f0     drivers_cc13x4.a : UART2CC26X2.c.obj (.text.UART2Support_dmaStartRx)
                  0000e728    000000f0     maclib_secure_cc13x4_tirtos7.a : mac_device.c.o (.text.macApiAssociateReq)
                  0000e818    000000ec                                    : mac.c.o (.text.macSetupRATChanCompare)
                  0000e904    000000e4     drivers_cc13x4.a : AESCCMCC26X4.c.obj (.text.AESCCM_startOperation)
                  0000e9e8    000000e4                      : Button.c.obj (.text.Button_open)
                  0000eacc    000000e4     sensor.o (.text.Sensor_init)
                  0000ebb0    000000e4     sensor.o (.text.jdllcJoinedCb)
                  0000ec94    000000e4     maclib_secure_cc13x4_tirtos7.a : mac_tx.c.o (.text.macTxChannelBusyCallback)
                  0000ed78    000000e4     ti_sysbios_config.o (.text.ti_sysbios_gates_GateMutexPri_enter)
                  0000ee5c    000000e2     nvocmp.o (.text.NVOCMP_readItemApi)
                  0000ef3e    00000002     --HOLE-- [fill = 0]
                  0000ef40    000000e2     ti_sysbios_config.o (.text.ti_sysbios_knl_Swi_restoreHwi)
                  0000f022    00000002     --HOLE-- [fill = 0]
                  0000f024    000000e0     driverlib.lib : sys_ctrl.c.obj (.text.NOROM_SysCtrlStandby)
                  0000f104    000000e0     drivers_cc13x4.a : UART2CC26X2.c.obj (.text.UART2CC26X2_initHw)
                  0000f1e4    000000e0     maclib_secure_cc13x4_tirtos7.a : mac_hl_patch.c.o (.text.macOutgoingFrameKeyDescRetrieval)
                  0000f2c4    000000e0                                    : mac_tx.c.o (.text.txCsmaPrep)
                  0000f3a4    000000dc     ti_sysbios_config.o (.text.ClockP_create)
                  0000f480    000000dc     rf_multiMode_cc13x4.a : RFCC26X2_multiMode.c.cc13x4.ticlang.o (.text.RF_control)
                  0000f55c    000000dc     maclib_secure_cc13x4_tirtos7.a : mac_mgmt.c.o (.text.macBuildDisassociateReq)
                  0000f638    000000da     ssf.o (.text.Ssf_networkUpdate)
                  0000f712    000000da     ti_sysbios_config.o (.text.ti_sysbios_knl_Task_postInit)
                  0000f7ec    000000d8     maclib_secure_cc13x4_tirtos7.a : mac_hl_patch.c.o (.text.macCcmStarTransform)
                  0000f8c4    000000d8                                    : mac_scan.c.o (.text.macScanRxBeacon)
                  0000f99c    000000d8     jdllc.o (.text.syncLossCb)
                  0000fa74    000000d4     maclib_secure_cc13x4_tirtos7.a : mac_data.c.o (.text.MAC_McpsDataAlloc)
                  0000fb48    000000d0     drivers_cc13x4.a : PowerCC26X2.c.obj (.text.configureXOSCHF)
                  0000fc18    000000d0     maclib_secure_cc13x4_tirtos7.a : mac_hl_patch.c.o (.text.macEdScanISR)
                  0000fce8    000000d0                                    : mac_radio_tx.c.o (.text.macRadioTxAckCb)
                  0000fdb8    000000d0                                    : mac_radio_tx.c.o (.text.macRadioTxPrepCsmaSlottedSubG)
                  0000fe88    000000d0                                    : mac_symbol_timer.c.o (.text.macSymbolTimerUpdateWakeup)
                  0000ff58    000000d0     ti_sysbios_config.o (.text.ti_sysbios_knl_Task_sleep)
                  00010028    000000cc     nvocmp.o (.text.NVOCMP_readItem)
                  000100f4    000000cc     maclib_secure_cc13x4_tirtos7.a : mac_mgmt.c.o (.text.macCommStatusInd)
                  000101c0    000000cc                                    : mac_device.c.o (.text.macDeviceReset)
                  0001028c    000000ca     ti_sysbios_config.o (.text.SwiP_construct)
                  00010356    000000c8     api_mac.o (.text.ApiMac_mlmeSetReqArray)
                  0001041e    00000002     --HOLE-- [fill = 0]
                  00010420    000000c8     maclib_secure_cc13x4_tirtos7.a : mac_hl_patch.c.o (.text.macOutgoingFrameSecurity)
                  000104e8    000000c8                                    : mac_main.c.o (.text.macSendDataMsg)
                  000105b0    000000c6     ti_sysbios_config.o (.text.HwiP_construct)
                  00010676    00000002     --HOLE-- [fill = 0]
                  00010678    000000c4     maclib_secure_cc13x4_tirtos7.a : mac_hl_patch.c.o (.text.macBuildHeaderIes)
                  0001073c    000000c4                                    : mac_duty_cycle.c.o (.text.macDutyCycleNotify)
                  00010800    000000c0     drivers_cc13x4.a : GPIOCC26XX.c.obj (.text.GPIO_setConfigAndMux)
                  000108c0    000000c0     driverlib.lib : aes.c.obj (.text.NOROM_AESWriteToKeyStore)
                  00010980    000000c0     maclib_secure_cc13x4_tirtos7.a : mac_tx.c.o (.text.macTxRequestCsmaRtcDelay)
                  00010a40    000000c0                                    : mac_radio.c.o (.text.scheduleNopWakeupCmd)
                  00010b00    000000be     ti_sysbios_config.o (.text.ti_sysbios_knl_Swi_runLoop)
                  00010bbe    000000be     ti_sysbios_config.o (.text.ti_sysbios_knl_Task_Instance_init)
                  00010c7c    000000bc     ti_sysbios_config.o (.text.BIOS_startFunc)
                  00010d38    000000bc     drivers_cc13x4.a : PowerCC26X2.c.obj (.text.Power_setDependency)
                  00010df4    000000bc     rf_multiMode_cc13x4.a : RFCC26X2_multiMode.c.cc13x4.ticlang.o (.text.RF_swiHw)
                  00010eb0    000000bc     drivers_cc13x4.a : UART2CC26X2.c.obj (.text.UART2Support_dmaStartTx)
                  00010f6c    000000ba     ti_sysbios_config.o (.text.ti_sysbios_knl_Task_setPri)
                  00011026    00000002     --HOLE-- [fill = 0]
                  00011028    000000b8     drivers_cc13x4.a : GPTimerCC26XX.c.obj (.text.GPTimerCC26XX_open)
                  000110e0    000000b8     maclib_secure_cc13x4_tirtos7.a : mac_mgmt.c.o (.text.MAC_MlmeResetReq)
                  00011198    000000b8     sensor.o (.text.Sensor_sendDeviceTypeResponse)
                  00011250    000000b8     maclib_secure_cc13x4_tirtos7.a : mac_tx.c.o (.text.macTxRequestCsmaDelay)
                  00011308    000000b4     drivers_cc13x4.a : PowerCC26X2.c.obj (.text.Power_releaseDependency)
                  000113bc    000000b4     maclib_secure_cc13x4_tirtos7.a : mac.c.o (.text.macGetRFCmdDuration)
                  00011470    000000b2     sensor.o (.text.Sensor_sendIdentifyLedRequest)
                  00011522    000000b2     jdllc.o (.text.disassoCnfCb)
                  000115d4    000000b0     cui.o (.text.CUI_clientOpen)
                  00011684    000000b0     maclib_secure_cc13x4_tirtos7.a : mac_data.c.o (.text.macApiDataReq)
                  00011734    000000b0                                    : mac_mgmt.c.o (.text.macBuildBeaconNotifyInd)
                  000117e4    000000b0                                    : mac_ie_build.c.o (.text.macBuildPayloadCoexistIe)
                  00011894    000000b0     libclang_rt.builtins.a : udivmoddi4.S.obj (.text)
                  00011944    000000ae     cui.o (.text.CUI_menuActionHelp)
                  000119f2    00000002     --HOLE-- [fill = 0]
                  000119f4    000000ac     rf_multiMode_cc13x4.a : RFCC26X2_multiMode.c.cc13x4.ticlang.o (.text.RF_pendCmd)
                  00011aa0    000000ac     maclib_secure_cc13x4_tirtos7.a : mac_hl_patch.c.o (.text.macAutoPendMaintainSrcMatchTable)
                  00011b4c    000000ac                                    : mac_data.c.o (.text.macDataTxEnqueue)
                  00011bf8    000000ac     ti_sysbios_config.o (.text.ti_sysbios_knl_Task_restore)
                  00011ca4    000000aa     ti_sysbios_config.o (.text.ti_sysbios_knl_Task_startup)
                  00011d4e    00000002     --HOLE-- [fill = 0]
                  00011d50    000000a8     drivers_cc13x4.a : AESCCMCC26X4.c.obj (.text.AESCCM_hwiFxn)
                  00011df8    000000a8     jdllc.o (.text.beaconNotifyIndCb)
                  00011ea0    000000a8     maclib_secure_cc13x4_tirtos7.a : mac_rx.c.o (.text.macRxInit)
                  00011f48    000000a8                                    : mac_tx.c.o (.text.macTxStartQueuedFrame)
                  00011ff0    000000a6     cui.o (.text.CUI_updateCursor)
                  00012096    00000002     --HOLE-- [fill = 0]
                  00012098    000000a4     maclib_secure_cc13x4_tirtos7.a : mac_autopend.c.o (.text.MAC_SrcMatchAddEntry)
                  0001213c    000000a4     maclib_osal_tirtos7_cc13x4_26x4.a : osal_port.c.o (.text.OsalPort_heapMalloc)
                  000121e0    000000a4     rf_multiMode_cc13x4.a : RFCC26X2_multiMode.c.cc13x4.ticlang.o (.text.RF_initRadioSetup)
                  00012284    000000a4     maclib_secure_cc13x4_tirtos7.a : mac_hl_patch.c.o (.text.macDataTxComplete)
                  00012328    000000a4                                    : mac_hl_patch.c.o (.text.macMgmtReset)
                  000123cc    000000a2     ti_sysbios_config.o (.text.ti_sysbios_runtime_Memory_alloc)
                  0001246e    000000a0     jdllc.o (.text.Jdllc_init)
                  0001250e    00000002     --HOLE-- [fill = 0]
                  00012510    000000a0     rf_multiMode_cc13x4.a : RFCC26X2_multiMode.c.cc13x4.ticlang.o (.text.RF_calculateDispatchTime)
                  000125b0    000000a0                           : RFCC26X2_multiMode.c.cc13x4.ticlang.o (.text.RF_requestAccess)
                  00012650    000000a0     maclib_secure_cc13x4_tirtos7.a : mac_hl_patch.c.o (.text.macAutoPendAddSrcMatchTableEntry)
                  000126f0    000000a0                                    : mac_hl_patch.c.o (.text.macCbackForEvent)
                  00012790    000000a0     ti_sysbios_config.o (.text.ti_sysbios_knl_Swi_post)
                  00012830    0000009c     driverlib.lib : setup.c.obj (.text.TrimAfterColdResetWakeupFromShutDown)
                  000128cc    0000009c     maclib_secure_cc13x4_tirtos7.a : mac_mgmt.c.o (.text.macBuildWSAsyncReq)
                  00012968    0000009c                                    : mac_symbol_timer.c.o (.text.macSymbolTimerInit)
                  00012a04    0000009a     drivers_cc13x4.a : UART2.c.obj (.text.UART2_writeCancel)
                  00012a9e    00000002     --HOLE-- [fill = 0]
                  00012aa0    00000098                      : GPTimerCC26XX.c.obj (.text.GPTimerCC26XX_close)
                  00012b38    00000098     jdllc.o (.text.Jdllc_securityInit)
                  00012bd0    00000098     nvocmp.o (.text.NVOCMP_getItemLenApi)
                  00012c68    00000098     rf_multiMode_cc13x4.a : RFCC26X2_multiMode.c.cc13x4.ticlang.o (.text.RF_defaultSubmitPolicy)
                  00012d00    00000098     ti_sysbios_config.o (.text._pthread_cleanupFxn)
                  00012d98    00000098     maclib_secure_cc13x4_tirtos7.a : mac_hl_patch.c.o (.text.macIncomingSecurityLevelChecking)
                  00012e30    00000098                                    : mac_mgmt.c.o (.text.macRxBeacon)
                  00012ec8    00000098                                    : mac_hl_patch.c.o (.text.macScanRxCoordRealign)
                  00012f60    00000098                                    : mac_timer.c.o (.text.macSymbolTimerTriggerCallback)
                  00012ff8    00000098     ti_sysbios_config.o (.text.ti_sysbios_knl_Mailbox_post)
                  00013090    00000098     ti_sysbios_config.o (.text.ti_sysbios_knl_Task_restoreHwi)
                  00013128    00000096     rf_multiMode_cc13x4.a : RFCC26X2_multiMode.c.cc13x4.ticlang.o (.text.RF_verifyGap)
                  000131be    00000002     --HOLE-- [fill = 0]
                  000131c0    00000094     maclib_secure_cc13x4_tirtos7.a : mac_hl_patch.c.o (.text.MAC_MlmeScanReq)
                  00013254    00000094     rf_multiMode_cc13x4.a : RFCC26X2_multiMode.c.cc13x4.ticlang.o (.text.RF_ratRestartChannels)
                  000132e8    00000094     ti_sysbios_config.o (.text._pthread_removeThreadKeys)
                  0001337c    00000094     macTask.o (.text.macTaskInit)
                  00013410    00000094     ti_sysbios_config.o (.text.ti_sysbios_gates_GateMutexPri_leave)
                  000134a4    00000092     jdllc.o (.text.disassocIndCb)
                  00013536    00000092     ti_sysbios_config.o (.text.ti_sysbios_knl_Semaphore_post)
                  000135c8    00000092     ti_sysbios_config.o (.text.ti_sysbios_knl_Task_exit)
                  0001365a    00000090     jdllc.o (.text.Jdllc_rejoin)
                  000136ea    00000002     --HOLE-- [fill = 0]
                  000136ec    00000090     rf_multiMode_cc13x4.a : RFCC26X2_multiMode.c.cc13x4.ticlang.o (.text.RF_getTxPower)
                  0001377c    00000090     drivers_cc13x4.a : UART2CC26X2.c.obj (.text.UART2_close)
                  0001380c    00000090     maclib_secure_cc13x4_tirtos7.a : mac_coord.c.o (.text.macIndirectSend)
                  0001389c    00000090                                    : mac_autopend.c.o (.text.macSrcMatchCheckSrcAddr)
                  0001392c    00000090                                    : mac.c.o (.text.macStopCmd)
                  000139bc    00000090     ti_sysbios_config.o (.text.ti_sysbios_knl_Swi_restore)
                  00013a4c    0000008e     main.o (.text.sensorTask_)
                  00013ada    00000002     --HOLE-- [fill = 0]
                  00013adc    0000008c     drivers_cc13x4.a : TRNGCC26XX.c.obj (.text.TRNG_construct)
                  00013b68    0000008c                      : NVSCC26XX.c.obj (.text.doErase)
                  00013bf4    0000008c     maclib_secure_cc13x4_tirtos7.a : mac_radio_tx.c.o (.text.macRadioFHEncryptFrame)
                  00013c80    0000008c     ti_sysbios_config.o (.text.ti_sysbios_knl_Task_enter)
                  00013d0c    0000008a     ti_sysbios_config.o (.text.ti_sysbios_knl_Swi_startup)
                  00013d96    00000002     --HOLE-- [fill = 0]
                  00013d98    00000088     rf_multiMode_cc13x4.a : RFCC26X2_multiMode.c.cc13x4.ticlang.o (.text.RF_cmdDispatchTime)
                  00013e20    00000088                           : RFCC26X2_multiMode.c.cc13x4.ticlang.o (.text.RF_discardPendCmd)
                  00013ea8    00000088     maclib_secure_cc13x4_tirtos7.a : mac_hl_patch.c.o (.text.macCcmDecrypt)
                  00013f30    00000088                                    : mac_hl_patch.c.o (.text.macCcmStarInverseTransform)
                  00013fb8    00000088                                    : mac_radio_tx.c.o (.text.macRadioSendImmAck)
                  00014040    00000088                                    : mac_radio.c.o (.text.macRadioUpdateChannel)
                  000140c8    00000086     ti_sysbios_config.o (.text.ClockP_construct)
                  0001414e    00000002     --HOLE-- [fill = 0]
                  00014150    00000084     api_mac.o (.text.ApiMac_init)
                  000141d4    00000084     rf_multiMode_cc13x4.a : RFCC26X2_multiMode.c.cc13x4.ticlang.o (.text.RF_getInfo)
                  00014258    00000084                           : RFCC26X2_multiMode.c.cc13x4.ticlang.o (.text.RF_yield)
                  000142dc    00000084     maclib_secure_cc13x4_tirtos7.a : mac_hl_patch.c.o (.text.macBlacklistChecking)
                  00014360    00000084                                    : mac_hl_patch.c.o (.text.macCcmEncrypt)
                  000143e4    00000080     drivers_cc13x4.a : GPIOCC26X4.c.obj (.text.GPIO_hwiIntFxn)
                  00014464    00000080     maclib_osal_tirtos7_cc13x4_26x4.a : osal_port.c.o (.text.OsalPort_setTimer)
                  000144e4    00000080     maclib_secure_cc13x4_tirtos7.a : mac_data.c.o (.text.macFrameDurationSubG)
                  00014564    00000080                                    : mac_tx.c.o (.text.macTxDoneCallback)
                  000145e4    00000080     main.o (.text.main)
                  00014664    0000007e     nvocmp.o (.text.NVOCMP_loadApiPtrs)
                  000146e2    00000002     --HOLE-- [fill = 0]
                  000146e4    0000007c     driverlib.lib : setup_rom.c.obj (.text.NOROM_SetupStepVddrTrimTo)
                  00014760    0000007c     rf_multiMode_cc13x4.a : RFCC26X2_multiMode.c.cc13x4.ticlang.o (.text.RF_ratDisableChannel)
                  000147dc    0000007c     maclib_secure_cc13x4_tirtos7.a : mac_mcu.c.o (.text.macMcuOverflowSetPeriod)
                  00014858    0000007c                                    : mac_pwr.c.o (.text.macPwrVote)
                  000148d4    0000007c                                    : mac.c.o (.text.macSetupReceiveCmd)
                  00014950    0000007a     ti_drivers_config.o (.text.Board_shutDownExtFlash)
                  000149ca    0000007a     nvocmp.o (.text.NVOCMP_compactNvApi)
                  00014a44    0000007a     ti_sysbios_config.o (.text.ti_sysbios_knl_TaskSupport_start)
                  00014abe    00000002     --HOLE-- [fill = 0]
                  00014ac0    00000078     driverlib.lib : chipinfo.c.obj (.text.NOROM_ChipInfo_GetChipType)
                  00014b38    00000078     drivers_cc13x4.a : NVSCC26XX.c.obj (.text.NVSCC26XX_open)
                  00014bb0    00000078     rf_multiMode_cc13x4.a : RFCC26X2_multiMode.c.cc13x4.ticlang.o (.text.RF_ratFreeChannel)
                  00014c28    00000078     maclib_secure_cc13x4_tirtos7.a : mac.c.o (.text.macRequestBackoff)
                  00014ca0    00000078                                    : mac_device.c.o (.text.macRxAssocRsp)
                  00014d18    00000078     ti_sysbios_config.o (.text.ti_sysbios_family_arm_v8m_Hwi_dispatchC)
                  00014d90    00000076     ti_sysbios_config.o (.text.HwiP_destruct)
                  00014e06    00000076     drivers_cc13x4.a : UART2CC26X2.c.obj (.text.UART2Support_dmaStopTx)
                  00014e7c    00000074     maclib_osal_tirtos7_cc13x4_26x4.a : osal_port.c.o (.text.OsalPort_heapInit)
                  00014ef0    00000074     rf_multiMode_cc13x4.a : RFCC26X2_multiMode.c.cc13x4.ticlang.o (.text.RF_hwiHw)
                  00014f64    00000074     maclib_secure_cc13x4_tirtos7.a : mac_hl_patch.c.o (.text.macKeyDescriptorLookup)
                  00014fd8    00000074                                    : mac_mcu.c.o (.text.macMcuOverflowSetCompare)
                  0001504c    00000074                                    : mac_radio_tx.c.o (.text.macRadioTxEnhAckCb)
                  000150c0    00000074                                    : mac_ie_parse.c.o (.text.macUpdateHeaderIEPtr)
                  00015134    00000074     ti_sysbios_config.o (.text.ti_sysbios_knl_Mailbox_pend)
                  000151a8    00000072     drivers_cc13x4.a : LED.c.obj (.text.LED_startBlinking)
                  0001521a    00000072     ti_sysbios_config.o (.text.pthread_mutex_lock)
                  0001528c    00000070     drivers_cc13x4.a : AESCCMCC26X4.c.obj (.text.AESCCM_waitForResult)
                  000152fc    00000070     cui.o (.text.CUI_writeString)
                  0001536c    00000070     driverlib.lib : interrupt.c.obj (.text.NOROM_IntDisable)
                  000153dc    00000070     maclib_osal_tirtos7_cc13x4_26x4.a : osal_port.c.o (.text.OsalPort_pwrmgrTaskState)
                  0001544c    00000070     maclib_secure_cc13x4_tirtos7.a : mac_duty_cycle.c.o (.text.macDutyCycleTimerCB)
                  000154bc    00000070                                    : mac_radio.c.o (.text.macRadioStartScan)
                  0001552c    00000070                                    : mac_timer.c.o (.text.macTimerUpdateSymbolTimer)
                  0001559c    00000070     libc.a : copy_decompress_lzss.c.obj (.text:decompress:lzss)
                  0001560c    0000006c     drivers_cc13x4.a : AESCCMCC26X4.c.obj (.text.AESCCM_construct)
                  00015678    0000006c     driverlib.lib : interrupt.c.obj (.text.NOROM_IntEnable)
                  000156e4    0000006c                   : sys_ctrl.c.obj (.text.NOROM_SysCtrl_DCDC_VoltageConditionalControl)
                  00015750    0000006c     rf_multiMode_cc13x4.a : RFCC26X2_multiMode.c.cc13x4.ticlang.o (.text.RF_issueRadioFreeCb)
                  000157bc    0000006c     drivers_cc13x4.a : Random.c.obj (.text.Random_seedAutomatic)
                  00015828    0000006c     ssf.o (.text.Ssf_getNetworkInfo)
                  00015894    0000006c     rf_multiMode_cc13x4.a : rf_patch_cpe_multi_protocol.c.cc13x4.ticlang.o (.text.configureMultiProtocolPatch)
                  00015900    0000006c     maclib_secure_cc13x4_tirtos7.a : mac_mgmt.c.o (.text.macApiDisassociateReq)
                  0001596c    0000006c                                    : mac_rx_onoff.c.o (.text.macRxOffRequest)
                  000159d8    0000006c                                    : mac.c.o (.text.macSetupFsCmd)
                  00015a44    0000006c     drivers_cc13x4.a : PowerCC26X2.c.obj (.text.oscillatorISR)
                  00015ab0    00000068     maclib_secure_cc13x4_tirtos7.a : mac_device.c.o (.text.MAC_InitDevice)
                  00015b18    00000068     drivers_cc13x4.a : PowerCC26X2_calibrateRCOSC_helpers.c.obj (.text.PowerCC26X2_updateSubSecInc)
                  00015b80    00000068     rf_multiMode_cc13x4.a : RFCC26X2_multiMode.c.cc13x4.ticlang.o (.text.RF_detachOverrides)
                  00015be8    00000068     maclib_secure_cc13x4_tirtos7.a : mac_mgmt.c.o (.text.macDisassocComplete)
                  00015c50    00000068                                    : mac_radio.c.o (.text.macRadioPowerDown)
                  00015cb8    00000068                                    : mac_scan.c.o (.text.macScanStartTimer)
                  00015d20    00000068                                    : mac_timer.c.o (.text.macTimerSetRollover)
                  00015d88    00000068                                    : mac_tx.c.o (.text.macTxGetDefaultMinTxOffTime)
                  00015df0    00000068     sensor.o (.text.processBroadcastCtrlMsg)
                  00015e58    00000066     control_task.o (.text.control_taskInit)
                  00015ebe    00000002     --HOLE-- [fill = 0]
                  00015ec0    00000064     maclib_secure_cc13x4_tirtos7.a : mac_mgmt.c.o (.text.MAC_Init)
                  00015f24    00000064     maclib_osal_tirtos7_cc13x4_26x4.a : osal_port.c.o (.text.OsalPort_clearEvent)
                  00015f88    00000064     drivers_cc13x4.a : PowerCC26X2_calibrateRCOSC.c.obj (.text.PowerCC26X2_initiateCalibration)
                  00015fec    00000064     rf_multiMode_cc13x4.a : RFCC26X2_multiMode.c.cc13x4.ticlang.o (.text.RF_attachOverrides)
                  00016050    00000064                           : RFCC26X2_multiMode.c.cc13x4.ticlang.o (.text.RF_dispatchNextEvent)
                  000160b4    00000064                           : RFCC26X2_multiMode.c.cc13x4.ticlang.o (.text.RF_hwiCpe0PowerFsm)
                  00016118    00000064     ssf.o (.text.Ssf_getFrameCounter)
                  0001617c    00000064     drivers_cc13x4.a : UDMACC26XX.c.obj (.text.UDMACC26XX_open)
                  000161e0    00000064     maclib_secure_cc13x4_tirtos7.a : mac_device.c.o (.text.macAssocDataRxInd)
                  00016244    00000064                                    : mac_low_level.c.o (.text.macLowLevelInit)
                  000162a8    00000064                                    : mac_mcu.c.o (.text.macMcuInit)
                  0001630c    00000064                                    : mac_radio_tx.c.o (.text.macRadioTxPrepLbt)
                  00016370    00000064                                    : mac_rx.c.o (.text.macRxHaltCleanup)
                  000163d4    00000064                                    : mac_timer.c.o (.text.macTimerRealign)
                  00016438    00000064     ti_sysbios_config.o (.text.pthread_exit)
                  0001649c    00000064     ti_sysbios_config.o (.text.ti_sysbios_knl_Semaphore_pendTimeout)
                  00016500    00000062     rf_multiMode_cc13x4.a : RFCC26X2_multiMode.c.cc13x4.ticlang.o (.text.RF_syncCb)
                  00016562    00000062     ti_sysbios_config.o (.text.SemaphoreP_construct)
                  000165c4    00000060     drivers_cc13x4.a : CryptoResourceCC26XX.c.obj (.text.CryptoResourceCC26XX_constructRTOSObjects)
                  00016624    00000060     driverlib.lib : setup_rom.c.obj (.text.NOROM_SetupAfterColdResetWakeupFromShutDownCfg1)
                  00016684    00000060     maclib_osal_tirtos7_cc13x4_26x4.a : osal_port.c.o (.text.OsalPort_setEvent)
                  000166e4    00000060     ti_sysbios_config.o (.text.SemaphoreP_createBinary)
                  00016744    00000060     drivers_cc13x4.a : Timer.c.obj (.text.Timer_setPeriod)
                  000167a4    00000060     maclib_secure_cc13x4_tirtos7.a : mac_beacon_device.c.o (.text.macBeaconSyncLoss)
                  00016804    00000060                                    : mac_data.c.o (.text.macDataReset)
                  00016864    00000060                                    : mac_main.c.o (.text.macExecute)
                  000168c4    00000060                                    : mac_scan.c.o (.text.macScanComplete)
                  00016924    00000060                                    : mac_main.c.o (.text.macSendMsg)
                  00016984    00000060                                    : mac_symbol_timer.c.o (.text.macSymbolTimerPeriodIsr)
                  000169e4    00000060                                    : mac_hl_patch.c.o (.text.macTrackPeriodCallback)
                  00016a44    0000005e     rf_multiMode_cc13x4.a : rfc.c.cc13x4.ticlang.o (.text.NOROM_RFCAnaDivTxOverride)
                  00016aa2    0000005e     drivers_cc13x4.a : UART2CC26X2.c.obj (.text.UART2Support_dmaStopRx)
                  00016b00    0000005e     ti_sysbios_config.o (.text.ti_sysbios_family_arm_v8m_cc26x4_Timer_dynamicMultiStub)
                  00016b5e    00000002     --HOLE-- [fill = 0]
                  00016b60    0000005c     maclib_secure_cc13x4_tirtos7.a : mac_hl_patch.c.o (.text.MAC_ResumeReq)
                  00016bbc    0000005c     driverlib.lib : setup_rom.c.obj (.text.NOROM_SetupGetTrimForAmpcompCtrl)
                  00016c18    0000005c     maclib_osal_tirtos7_cc13x4_26x4.a : osal_port.c.o (.text.OsalPort_msgReceive)
                  00016c74    0000005c     maclib_secure_cc13x4_tirtos7.a : mac_mgmt.c.o (.text.macBuildWSAsyncMsg)
                  00016cd0    0000005c                                    : mac_sleep.c.o (.text.macCanSleep)
                  00016d2c    0000005c                                    : mac_mgmt.c.o (.text.macRxDisassoc)
                  00016d88    0000005c                                    : mac_ie_parse.c.o (.text.macUpdatePayloadIEPtr)
                  00016de4    0000005c     sysbios.a : Hwi_asm_switch_gcc.s.obj (.text.ti_sysbios_family_arm_v8m_Hwi_initStacks)
                  00016e40    00000058     drivers_cc13x4.a : Button.c.obj (.text.Button_gpioCallbackFxn)
                  00016e98    00000058                      : GPTimerCC26XX.c.obj (.text.GPTimerCC26XXHwiFxn)
                  00016ef0    00000058     maclib_osal_tirtos7_cc13x4_26x4.a : osal_port.c.o (.text.HEAPMGR_GETLARGESTFREEBUF)
                  00016f48    00000058     driverlib.lib : osc.c.obj (.text.NOROM_OSCHF_AttemptToSwitchToXosc)
                  00016fa0    00000058                   : setup_rom.c.obj (.text.NOROM_SetupGetTrimForAnabypassValue1)
                  00016ff8    00000058     maclib_osal_tirtos7_cc13x4_26x4.a : osal_port.c.o (.text.OsalPort_msgSend)
                  00017050    00000058     rf_multiMode_cc13x4.a : RFCC26X2_multiMode.c.cc13x4.ticlang.o (.text.RF_applyRfCorePatch)
                  000170a8    00000058     drivers_cc13x4.a : TRNGCC26XX.c.obj (.text.TRNG_init)
                  00017100    00000058     maclib_secure_cc13x4_tirtos7.a : mac_device.c.o (.text.macPollDataRxInd)
                  00017158    00000058                                    : mac_radio_tx.c.o (.text.macRadioTxBackoffBoundary)
                  000171b0    00000058                                    : mac_radio_tx.c.o (.text.macRadioTxGoLbt)
                  00017208    00000058                                    : mac_device.c.o (.text.macRxCoordRealign)
                  00017260    00000058                                    : mac_rx_onoff.c.o (.text.macRxOn)
                  000172b8    00000056     ti_sysbios_config.o (.text.BIOS_exitFunc)
                  0001730e    00000002     --HOLE-- [fill = 0]
                  00017310    00000056     ti_drivers_config.o (.text.Board_sendExtFlashByte)
                  00017366    00000056     drivers_cc13x4.a : StructRingBuf.c.obj (.text.StructRingBuf_put)
                  000173bc    00000056                      : UART2.c.obj (.text.UART2_readCancel)
                  00017412    00000056     maclib_osal_tirtos7_cc13x4_26x4.a : util_timer.c.o (.text.UtilTimer_construct)
                  00017468    00000054     drivers_cc13x4.a : GPTimerCC26XX.c.obj (.text.GPTimerCC26XX_stop)
                  000174bc    00000054     maclib_secure_cc13x4_tirtos7.a : mac_autopend.c.o (.text.MAC_SrcMatchEnable)
                  00017510    00000054     drivers_cc13x4.a : TRNGCC26XX.c.obj (.text.TRNGCC26XX_startTrng)
                  00017564    00000054     maclib_secure_cc13x4_tirtos7.a : mac_device.c.o (.text.macApiPollReq)
                  000175b8    00000054                                    : mac_beacon.c.o (.text.macBeaconSetupCap)
                  0001760c    00000054                                    : mac_hl_patch.c.o (.text.macIncomingKeyUsagePolicyChecking)
                  00017660    00000054                                    : mac_radio_tx.c.o (.text.macRadioTxPrepSlotted)
                  000176b4    00000054                                    : mac.c.o (.text.macRequestSFDTimeout)
                  00017708    00000054                                    : mac_timer.c.o (.text.macTimerAddTimer)
                  0001775c    00000054                                    : mac_timer.c.o (.text.macTimerCancel)
                  000177b0    00000054                                    : mac_tx.c.o (.text.macTxAckReceivedCallback)
                  00017804    00000054     ti_sysbios_config.o (.text.pthread_mutex_init)
                  00017858    00000052     ti_sysbios_config.o (.text.ti_sysbios_knl_Mailbox_create)
                  000178aa    00000050     drivers_cc13x4.a : AESCCMCC26X4.c.obj (.text.AESCCM_setNonce)
                  000178fa    00000002     --HOLE-- [fill = 0]
                  000178fc    00000050                      : GPTimerCC26XX.c.obj (.text.GPTimerCC26XX_start)
                  0001794c    00000050     rf_multiMode_cc13x4.a : RFCC26X2_multiMode.c.cc13x4.ticlang.o (.text.RF_wakeupNotification)
                  0001799c    00000050     maclib_secure_cc13x4_tirtos7.a : mac_device.c.o (.text.macAssocDataReqComplete)
                  000179ec    00000050                                    : mac_data.c.o (.text.macCheckIndPacket)
                  00017a3c    00000050                                    : mac_radio.c.o (.text.macRadioSetChannel)
                  00017a8c    00000050                                    : mac_radio_tx.c.o (.text.macRadioTxPrepCsmaSlottedIeee)
                  00017adc    00000050                                    : mac_radio.c.o (.text.macRadioUpdateTxPower)
                  00017b2c    00000050                                    : mac_timer.c.o (.text.macTimerGetNextTimer)
                  00017b7c    00000050                                    : mac_rx.c.o (.text.rxPostRxUpdates)
                  00017bcc    00000050     ti_sysbios_config.o (.text.sem_init)
                  00017c1c    0000004e     ti_sysbios_config.o (.text.ClockP_getTimeout)
                  00017c6a    00000002     --HOLE-- [fill = 0]
                  00017c6c    0000004c     drivers_cc13x4.a : GPTimerCC26XX.c.obj (.text.GPTimerCC26XX_registerInterrupt)
                  00017cb8    0000004c     maclib_secure_cc13x4_tirtos7.a : mac_autopend.c.o (.text.MAC_SrcMatchAckAllPending)
                  00017d04    0000004c     driverlib.lib : interrupt.c.obj (.text.NOROM_IntPendClear)
                  00017d50    0000004c                   : setup_rom.c.obj (.text.NOROM_SetupSetCacheModeAccordingToCcfgSetting)
                  00017d9c    0000004c     drivers_cc13x4.a : NVSCC26XX.c.obj (.text.NVSCC26XX_read)
                  00017de8    0000004c     rf_multiMode_cc13x4.a : RFCC26X2_multiMode.c.cc13x4.ticlang.o (.text.RF_fsmXOSCState)
                  00017e34    0000004c                           : RFCC26X2_multiMode.c.cc13x4.ticlang.o (.text.RF_getCurrentTime)
                  00017e80    0000004c     drivers_cc13x4.a : StructRingBuf.c.obj (.text.StructRingBuf_get)
                  00017ecc    0000004c     maclib_secure_cc13x4_tirtos7.a : mac_duty_cycle.c.o (.text.macDutyCycleByteToUSec)
                  00017f18    0000004c                                    : mac_radio.c.o (.text.macGetRadioTxPowerReg)
                  00017f64    0000004c                                    : mac_radio_tx.c.o (.text.macRadioSendEnhAck)
                  00017fb0    0000004c                                    : mac_radio_tx.c.o (.text.macRadioTxHandleAck)
                  00017ffc    0000004c                                    : mac_radio.c.o (.text.macRadioWakeupCb)
                  00018048    0000004c                                    : mac_symbol_timer.c.o (.text.macSymbolTimerEventHandler)
                  00018094    0000004c                                    : mac_timer.c.o (.text.macSymbolTimerRolloverCallback)
                  000180e0    0000004c     drivers_cc13x4.a : PowerCC26X2.c.obj (.text.switchXOSCHF)
                  0001812c    0000004c     ti_sysbios_config.o (.text.ti_sysbios_knl_Task_sleepTimeout)
                  00018178    0000004a     nvocmp.o (.text.NVOCMP_getFreeNvApi)
                  000181c2    0000004a     ssf.o (.text.Ssf_toggleLED)
                  0001820c    00000048     ti_sysbios_config.o (.text.BIOS_atExitFunc)
                  00018254    00000048     maclib_secure_cc13x4_tirtos7.a : mac_autopend.c.o (.text.MAC_SrcMatchSetDefaultPend)
                  0001829c    00000048     driverlib.lib : chipinfo.c.obj (.text.NOROM_ChipInfo_GetHwRevision)
                  000182e4    00000048     rf_multiMode_cc13x4.a : rfc.c.cc13x4.ticlang.o (.text.NOROM_RFCSynthPowerDown)
                  0001832c    00000048     drivers_cc13x4.a : NVS.c.obj (.text.NVS_open)
                  00018374    00000048     maclib_osal_tirtos7_cc13x4_26x4.a : osal_port.c.o (.text.OsalPort_heapFree)
                  000183bc    00000048     drivers_cc13x4.a : PowerCC26X2.c.obj (.text.PowerCC26XX_switchXOSC_HF)
                  00018404    00000048                      : UART2.c.obj (.text.UART2_readFull)
                  0001844c    00000048     maclib_secure_cc13x4_tirtos7.a : mac_main.c.o (.text.macMainReset)
                  00018494    00000046     drivers_cc13x4.a : RingBuf.c.obj (.text.RingBuf_put)
                  000184da    00000046     cui.o (.text.UartWriteCallback)
                  00018520    00000044     driverlib.lib : prcm.c.obj (.text.NOROM_PRCMPowerDomainsAllOff)
                  00018564    00000044                   : prcm.c.obj (.text.NOROM_PRCMPowerDomainsAllOn)
                  000185a8    00000044     drivers_cc13x4.a : NVSCC26XX.c.obj (.text.NVSCC26XX_init)
                  000185ec    00000044                      : PWM.c.obj (.text.PWM_init)
                  00018630    00000044     rf_multiMode_cc13x4.a : RFCC26X2_multiMode.c.cc13x4.ticlang.o (.text.RF_TxPowerTable_findValue)
                  00018674    00000044                           : RFCC26X2_multiMode.c.cc13x4.ticlang.o (.text.RF_cmdGet)
                  000186b8    00000044     ssf.o (.text.Ssf_configurationUpdate)
                  000186fc    00000044     ssf.o (.text.Ssf_setPollClock)
                  00018740    00000044     ssf.o (.text.Ssf_setReadingClock)
                  00018784    00000044     ssf.o (.text.Ssf_setScanBackoffClock)
                  000187c8    00000044     ssf.o (.text.Ssf_updateFrameCounter)
                  0001880c    00000044     drivers_cc13x4.a : Timer.c.obj (.text.Timer_start)
                  00018850    00000044     maclib_secure_cc13x4_tirtos7.a : mac_device.c.o (.text.macAssocDataReq)
                  00018894    00000044                                    : mac_device.c.o (.text.macPollDataReqComplete)
                  000188d8    00000044                                    : mac_radio_tx.c.o (.text.macRadioTxPrepCsmaUnslottedSubG)
                  0001891c    00000044                                    : mac.c.o (.text.macRatDisableChannels)
                  00018960    00000044                                    : mac_rx.c.o (.text.macRxNokIsr)
                  000189a4    00000044                                    : mac.c.o (.text.macSendFsCmd)
                  000189e8    00000042     ti_sysbios_config.o (.text.HwiP_enableInterrupt)
                  00018a2a    00000042     jdllc.o (.text.Jdllc_addSecDevice)
                  00018a6c    00000042     jdllc.o (.text.Jdllc_setDefaultKey)
                  00018aae    00000042     ssf.o (.text.assocAction)
                  00018af0    00000042     api_mac.o (.text.convertTxOptions)
                  00018b32    00000042     maclib_secure_cc13x4_tirtos7.a : mac_mgmt.c.o (.text.macDestSAddrCmp)
                  00018b74    00000040     jdllc.o (.text.Jdllc_join)
                  00018bb4    00000040     maclib_secure_cc13x4_tirtos7.a : mac_pib.c.o (.text.MAC_MlmeGetReq)
                  00018bf4    00000040     maclib_osal_tirtos7_cc13x4_26x4.a : osal_port.c.o (.text.OsalPort_deleteTimer)
                  00018c34    00000040                                       : osal_port.c.o (.text.OsalPort_msgEnqueueMax)
                  00018c74    00000040     drivers_cc13x4.a : PWM.c.obj (.text.PWM_open)
                  00018cb4    00000040                      : PowerCC26X2_calibrateRCOSC.c.obj (.text.PowerCC26X2_RCOSC_clockFunc)
                  00018cf4    00000040                      : Timer.c.obj (.text.Timer_stop)
                  00018d34    00000040                      : LED.c.obj (.text.clockTimeoutHandler)
                  00018d74    00000040     sensor.o (.text.commStatusIndCB)
                  00018db4    00000040     control_task.o (.text.control_task_mail_post_InfoToHub)
                  00018df4    00000040     sensor.o (.text.jdllcStateChangeCb)
                  00018e34    00000040     maclib_secure_cc13x4_tirtos7.a : mac_device.c.o (.text.macPollFrameResponseTimeout)
                  00018e74    00000040                                    : mac_hl_patch.c.o (.text.macSetDefaultsByPatch)
                  00018eb4    00000040                                    : mac_symbol_timer.c.o (.text.macSymbolTimerRealignIeee)
                  00018ef4    00000040                                    : mac_symbol_timer.c.o (.text.macSymbolTimerRealignSubG)
                  00018f34    00000040                                    : mac_timer.c.o (.text.macTimerUpdActive)
                  00018f74    00000040                                    : mac_tx.c.o (.text.macTxFrameIsr)
                  00018fb4    00000040                                    : mac_tx.c.o (.text.macTxTimestampCallback)
                  00018ff4    00000040                                    : mac_tx.c.o (.text.txGo)
                  00019034    0000003e     jdllc.o (.text.Jdllc_getJoiningPanId)
                  00019072    0000003e     drivers_cc13x4.a : LED.c.obj (.text.LED_setBrightnessLevel)
                  000190b0    0000003e                      : LED.c.obj (.text.LED_setOff)
                  000190ee    0000003e     ssf.o (.text.Ssf_getConfigInfo)
                  0001912c    0000003c     api_mac.o (.text.ApiMac_convertCapabilityInfo)
                  00019168    0000003c     drivers_cc13x4.a : GPIO.c.obj (.text.GPIO_resetConfig)
                  000191a4    0000003c     maclib_secure_cc13x4_tirtos7.a : mac_autopend.c.o (.text.MAC_SrcMatchCheckResult)
                  000191e0    0000003c     driverlib.lib : osc.c.obj (.text.NOROM_OSC_HPOSCRelativeFrequencyOffsetGet)
                  0001921c    0000003c     rf_multiMode_cc13x4.a : RFCC26X2_multiMode.c.cc13x4.ticlang.o (.text.RF_updatePowerupDuration)
                  00019258    0000003c     ssf.o (.text.disassocAction)
                  00019294    0000003c     maclib_secure_cc13x4_tirtos7.a : mac_pib.c.o (.text.macMRFSKGetPhyDesc)
                  000192d0    0000003c                                    : mac_radio.c.o (.text.macRadioSetPanCoordinator)
                  0001930c    0000003c                                    : mac_radio.c.o (.text.macRadioSetPanID)
                  00019348    0000003c                                    : mac_rx_onoff.c.o (.text.macRxDisable)
                  00019384    0000003c                                    : mac_device.c.o (.text.macStartFrameResponseTimer)
                  000193c0    0000003c                                    : mac_tx.c.o (.text.macTxDecrypt)
                  000193fc    0000003c                                    : mac_main.c.o (.text.mac_msg_deallocate)
                  00019438    0000003c     sysbios.a : TaskSupport_asm_gcc.s.obj (.text.ti_sysbios_knl_TaskSupport_swap)
                  00019474    0000003a     jdllc.o (.text.Jdllc_sendDisassociationRequest)
                  000194ae    0000003a     maclib_secure_cc13x4_tirtos7.a : mac_hl_patch.c.o (.text.macCheckPhyRate)
                  000194e8    0000003a     ti_sysbios_config.o (.text.malloc)
                  00019522    00000002     --HOLE-- [fill = 0]
                  00019524    00000038     drivers_cc13x4.a : GPTimerCC26XX.c.obj (.text.GPTimerCC26XX_unregisterInterrupt)
                  0001955c    00000038                      : LED.c.obj (.text.LED_setOn)
                  00019594    00000038     maclib_secure_cc13x4_tirtos7.a : mac_autopend.c.o (.text.MAC_SrcMatchDeleteEntry)
                  000195cc    00000038     driverlib.lib : aux_sysif.c.obj (.text.NOROM_AUXSYSIFOpModeChange)
                  00019604    00000038                   : osc.c.obj (.text.NOROM_OSCClockSourceSet)
                  0001963c    00000038                   : osc.c.obj (.text.OSCHfSourceSwitch)
                  00019674    00000038     maclib_osal_tirtos7_cc13x4_26x4.a : osal_port.c.o (.text.OsalPort_waitEvent)
                  000196ac    00000038     drivers_cc13x4.a : Random.c.obj (.text.Random_getNumber)
                  000196e4    00000038                      : RingBuf.c.obj (.text.RingBuf_putAdvance)
                  0001971c    00000038     ti_sysbios_config.o (.text.SemaphoreP_constructBinary)
                  00019754    00000038     ssf.o (.text.Ssf_initializePollClock)
                  0001978c    00000038     ssf.o (.text.Ssf_initializeScanBackoffClock)
                  000197c4    00000038     ti_sysbios_config.o (.text.SwiP_setPriority)
                  000197fc    00000038     drivers_cc13x4.a : UART2.c.obj (.text.UART2_rxEnable)
                  00019834    00000038                      : UDMACC26XX.c.obj (.text.UDMACC26XX_close)
                  0001986c    00000038     maclib_secure_cc13x4_tirtos7.a : mac_device.c.o (.text.macAssocFailed)
                  000198a4    00000038                                    : mac_beacon_device.c.o (.text.macBeaconStopTrack)
                  000198dc    00000038                                    : mac_data.c.o (.text.macDataRxInd)
                  00019914    00000038                                    : mac_beacon_device.c.o (.text.macIncomingNonSlottedTx)
                  0001994c    00000038                                    : mac_radio.c.o (.text.macRadioNeedAdjustPower)
                  00019984    00000038                                    : mac_radio.c.o (.text.macRadioSetIEEEAddr)
                  000199bc    00000038                                    : mac_data.c.o (.text.macRxCheckMACPendingCallback)
                  000199f4    00000038                                    : mac_symbol_timer.c.o (.text.macSymbolTimerCount)
                  00019a2c    00000038                                    : mac_tx.c.o (.text.macTxAckNotReceivedCallback)
                  00019a64    00000038                                    : mac_tx.c.o (.text.macTxFrameRetransmit)
                  00019a9c    00000038                                    : mac_tx.c.o (.text.macTxUpdateIE)
                  00019ad4    00000038     sysbios.a : Hwi_asm_gcc.s.obj (.text.ti_sysbios_family_arm_v8m_Hwi_excHandlerAsm)
                  00019b0c    00000038     control_task.o (.text.timer_callback)
                  00019b44    00000038     libc.a : autoinit.c.obj (.text:__TI_auto_init_nobinit_nopinit)
                  00019b7c    00000036     drivers_cc13x4.a : CryptoUtils.c.obj (.text.CryptoUtils_buffersMatch)
                  00019bb2    00000036     ssf.o (.text.Ssf_initializeReadingClock)
                  00019be8    00000036     ti_sysbios_config.o (.text.pthread_mutex_unlock)
                  00019c1e    00000002     --HOLE-- [fill = 0]
                  00019c20    00000034     drivers_cc13x4.a : AESCCMCC26X4.c.obj (.text.AESCCM_cleanup)
                  00019c54    00000034                      : AESCCMCC26X4.c.obj (.text.AESGetDefaultCCMCtrlValue)
                  00019c88    00000034                      : GPTimerCC26XX.c.obj (.text.GPTimerCC26XXSetLoadMatch)
                  00019cbc    00000034     driverlib.lib : prcm.c.obj (.text.NOROM_PRCMPowerDomainOff)
                  00019cf0    00000034                   : trng.c.obj (.text.NOROM_TRNGConfigure)
                  00019d24    00000034     maclib_osal_tirtos7_cc13x4_26x4.a : osal_port_timers.c.o (.text.OsalPortTimers_cleanUpTimers)
                  00019d58    00000034                                       : osal_port.c.o (.text.OsalPort_registerTask)
                  00019d8c    00000034     drivers_cc13x4.a : PowerCC26X2_calibrateRCOSC_helpers.c.obj (.text.PowerCC26X2_setAclkRefSrc)
                  00019dc0    00000034                      : PowerCC26X2.c.obj (.text.Power_releaseConstraint)
                  00019df4    00000034     rf_multiMode_cc13x4.a : RFCC26X2_multiMode.c.cc13x4.ticlang.o (.text.RF_powerConstraintRelease)
                  00019e28    00000034                           : RFCC26X2_multiMode.c.cc13x4.ticlang.o (.text.RF_runDirectImmediateCmd)
                  00019e5c    00000034     ssf.o (.text.Ssf_displayError)
                  00019e90    00000034     drivers_cc13x4.a : UART2.c.obj (.text.UART2_rxDisable)
                  00019ec4    00000034                      : NVSCC26XX.c.obj (.text.disableFlashCache)
                  00019ef8    00000034     maclib_secure_cc13x4_tirtos7.a : mac_mgmt.c.o (.text.macApiWSAsyncReq)
                  00019f2c    00000034                                    : mac_device.c.o (.text.macAssociateCnf)
                  00019f60    00000034                                    : mac_duty_cycle.c.o (.text.macDutyCycleUpdateTransmission)
                  00019f94    00000034                                    : mac_radio.c.o (.text.macRadioPowerUp)
                  00019fc8    00000034                                    : mac_radio.c.o (.text.macRadioStopScan)
                  00019ffc    00000034                                    : mac_radio_tx.c.o (.text.macRadioTxGoSlottedCsma)
                  0001a030    00000034                                    : mac_radio_tx.c.o (.text.macRadioTxPrepGreenPower)
                  0001a064    00000034                                    : mac_scan.c.o (.text.macScanCnfInit)
                  0001a098    00000034                                    : mac_autopend.c.o (.text.macSrcMatchSetEnableBit)
                  0001a0cc    00000034                                    : mac_autopend.c.o (.text.macSrcMatchSetPendEnBit)
                  0001a100    00000034                                    : mac_symbol_timer.c.o (.text.macSymbolTimerSetTrigger)
                  0001a134    00000034                                    : mac_tx.c.o (.text.macTxAbortIsr)
                  0001a168    00000034     sysbios.a : boot_cortex_m.c.obj (.text:_c_int00)
                  0001a19c    00000032     maclib_secure_cc13x4_tirtos7.a : mac_autopend.c.o (.text.MAC_SrcMatchSetPend)
                  0001a1ce    00000032     ti_sysbios_config.o (.text.SemaphoreP_delete)
                  0001a200    00000032     ti_sysbios_config.o (.text.ti_sysbios_runtime_System_exit)
                  0001a232    00000032     ti_sysbios_config.o (.text.ti_sysbios_runtime_System_printf)
                  0001a264    00000030     drivers_cc13x4.a : AESCCMCC26X4.c.obj (.text.AESCCM_generateIntermediateDigest)
                  0001a294    00000030                      : GPIOCC26XX.c.obj (.text.GPIO_setInterruptConfig)
                  0001a2c4    00000030     driverlib.lib : aes.c.obj (.text.NOROM_AESStartDMAOperation)
                  0001a2f4    00000030                   : prcm.c.obj (.text.NOROM_PRCMPowerDomainOn)
                  0001a324    00000030                   : sys_ctrl.c.obj (.text.NOROM_SysCtrlIdle)
                  0001a354    00000030     drivers_cc13x4.a : NVSCC26XX.c.obj (.text.NVSCC26XX_erase)
                  0001a384    00000030     maclib_osal_tirtos7_cc13x4_26x4.a : osal_port.c.o (.text.OsalPort_msgExtract)
                  0001a3b4    00000030     drivers_cc13x4.a : PowerCC26X2_helpers.c.obj (.text.PowerCC26X2_oscDisableQualifiers)
                  0001a3e4    00000030                      : PowerCC26X2_calibrateRCOSC_helpers.c.obj (.text.PowerCC26X2_setTdcClkSrc24M)
                  0001a414    00000030     ti_sysbios_config.o (.text.PowerCC26XX_schedulerDisable)
                  0001a444    00000030     drivers_cc13x4.a : PowerCC26X2.c.obj (.text.Power_setConstraint)
                  0001a474    00000030     rf_multiMode_cc13x4.a : RFCC26X2_multiMode.c.cc13x4.ticlang.o (.text.RF_checkCmdFsError)
                  0001a4a4    00000030     ssf.o (.text.Ssf_OnLED)
                  0001a4d4    00000030     drivers_cc13x4.a : TimerCC26XX.c.obj (.text.Timer_close)
                  0001a504    00000030     maclib_secure_cc13x4_tirtos7.a : mac_hl_patch.c.o (.text.macDeviceDescriptorLookup)
                  0001a534    00000030                                    : mac_data.c.o (.text.macFrameDurationIeee)
                  0001a564    00000030                                    : mac_tx.c.o (.text.macHandleTxAck)
                  0001a594    00000030                                    : mac_radio.c.o (.text.macRadioLimitTxPower)
                  0001a5c4    00000030                                    : mac_radio_tx.c.o (.text.macRadioTxPrepCsmaUnslottedIeee)
                  0001a5f4    00000030                                    : mac.c.o (.text.macSetUserConfig)
                  0001a624    00000030                                    : mac_timer.c.o (.text.macTimerInit)
                  0001a654    00000030                                    : mac_timer.c.o (.text.macTimerRecalcUnaligned)
                  0001a684    00000030     drivers_cc13x4.a : PowerCC26X2.c.obj (.text.notify)
                  0001a6b4    0000002e     rf_multiMode_cc13x4.a : RFCC26X2_multiMode.c.cc13x4.ticlang.o (.text.RF_calculateDeltaTimeUs)
                  0001a6e2    0000002e     drivers_cc13x4.a : RingBuf.c.obj (.text.RingBuf_getConsume)
                  0001a710    0000002e                      : RingBuf.c.obj (.text.RingBuf_putPointer)
                  0001a73e    0000002e     ssf.o (.text.Ssf_OffLED)
                  0001a76c    0000002e     ssf.o (.text.Ssf_clearNetworkInfo)
                  0001a79a    0000002e     ssf.o (.text.processKeyChangeCallback)
                  0001a7c8    0000002c     ti_sysbios_config.o (.text.ClockP_delete)
                  0001a7f4    0000002c     driverlib.lib : aes.c.obj (.text.NOROM_AESReadFromKeyStore)
                  0001a820    0000002c                   : aes.c.obj (.text.NOROM_AESReadTag)
                  0001a84c    0000002c                   : osc.c.obj (.text.NOROM_OSCHF_SwitchToRcOscTurnOffXosc)
                  0001a878    0000002c                   : udma.c.obj (.text.NOROM_uDMAChannelAttributeDisable)
                  0001a8a4    0000002c     drivers_cc13x4.a : NVS.c.obj (.text.NVS_init)
                  0001a8d0    0000002c                      : PowerCC26X2_helpers.c.obj (.text.PowerCC26X2_releasePeriphDependency)
                  0001a8fc    0000002c                      : PowerCC26X2_helpers.c.obj (.text.PowerCC26X2_setPeriphDependency)
                  0001a928    0000002c                      : PowerCC26X2_helpers.c.obj (.text.PowerCC26X2_setSubSecIncToXoscLf)
                  0001a954    0000002c     rf_multiMode_cc13x4.a : RFCC26X2_multiMode.c.cc13x4.ticlang.o (.text.RF_executeDirectImmediateCmd)
                  0001a980    0000002c     drivers_cc13x4.a : TRNGCC26XX.c.obj (.text.TRNGCC26XX_stopTrng)
                  0001a9ac    0000002c                      : UART2CC26X2.c.obj (.text.UART2CC26X2_getRxData)
                  0001a9d8    0000002c                      : UART2CC26X2.c.obj (.text.UART2Support_enableInts)
                  0001aa04    0000002c     maclib_secure_cc13x4_tirtos7.a : mac_duty_cycle.c.o (.text.macDutyCycleCheck)
                  0001aa30    0000002c                                    : mac_radio.c.o (.text.macRadioPowerUpWait)
                  0001aa5c    0000002c                                    : mac.c.o (.text.macRatCb_B)
                  0001aa88    0000002c                                    : mac.c.o (.text.macRatDisableChannelB)
                  0001aab4    0000002c                                    : mac_rx_onoff.c.o (.text.macRxHardDisable)
                  0001aae0    0000002c                                    : mac_mgmt.c.o (.text.macSetDefaultsByRE)
                  0001ab0c    0000002c                                    : mac_symbol_timer.c.o (.text.macSymbolTimerBCWakeUp)
                  0001ab38    0000002c                                    : mac_symbol_timer.c.o (.text.macSymbolTimerICallTimerCback)
                  0001ab64    0000002c                                    : mac_timer.c.o (.text.macTimerAligned)
                  0001ab90    0000002c     rf_multiMode_cc13x4.a : rf_patch_cpe_multi_protocol.c.cc13x4.ticlang.o (.text.rf_patch_cpe_multi_protocol)
                  0001abbc    0000002a     cui.o (.text.CUI_menuActionBack)
                  0001abe6    0000002a     driverlib.lib : ddi.c.obj (.text.NOROM_DDI16BitfieldWrite)
                  0001ac10    0000002a     maclib_osal_tirtos7_cc13x4_26x4.a : osal_port.c.o (.text.OsalPort_buildUint32)
                  0001ac3a    0000002a     drivers_cc13x4.a : TRNGCC26XX.c.obj (.text.TRNG_generateKey)
                  0001ac64    0000002a                      : TimerCC26XX.c.obj (.text.TimerCC26XX_callbackfxn)
                  0001ac8e    0000002a                      : UART2CC26X2.c.obj (.text.UART2Support_powerRelConstraint)
                  0001acb8    0000002a     maclib_secure_cc13x4_tirtos7.a : mac_radio.c.o (.text.macRadioComputeLQI)
                  0001ace2    0000002a                                    : mac_radio.c.o (.text.radioComputeED)
                  0001ad0c    00000028     drivers_cc13x4.a : GPTimerCC26XX.c.obj (.text.GPTimerCC26XX_enableInterrupt)
                  0001ad34    00000028                      : List.c.obj (.text.List_remove)
                  0001ad5c    00000028     maclib_secure_cc13x4_tirtos7.a : mac_security_pib.c.o (.text.MAC_MlmeGetPointerSecurityReq)
                  0001ad84    00000028     driverlib.lib : aon_batmon.c.obj (.text.NOROM_AONBatMonTemperatureGetDegC)
                  0001adac    00000028                   : aon_event.c.obj (.text.NOROM_AONEventMcuWakeUpSet)
                  0001add4    00000028                   : osc.c.obj (.text.NOROM_OSCClockSourceGet)
                  0001adfc    00000028     maclib_osal_tirtos7_cc13x4_26x4.a : osal_port.c.o (.text.OsalPort_heapGetStats)
                  0001ae24    00000028                                       : osal_port.c.o (.text.OsalPort_msgEnqueue)
                  0001ae4c    00000028     drivers_cc13x4.a : PowerCC26X2.c.obj (.text.PowerCC26XX_isStableXOSC_HF)
                  0001ae74    00000028     rf_multiMode_cc13x4.a : RFCC26X2_multiMode.c.cc13x4.ticlang.o (.text.RF_cmdStoreEvents)
                  0001ae9c    00000028     maclib_secure_cc13x4_tirtos7.a : mac_device.c.o (.text.macAssocFrameResponseTimeout)
                  0001aec4    00000028                                    : mac_pib.c.o (.text.macPibReset)
                  0001aeec    00000028                                    : mac_rx_onoff.c.o (.text.macRxOff)
                  0001af14    00000028                                    : mac.c.o (.text.macSetTxPowerVal)
                  0001af3c    00000028                                    : mac_tx.c.o (.text.macTxInit)
                  0001af64    00000028     mac_user_config.o (.text.rfSelect)
                  0001af8c    00000028     ti_sysbios_config.o (.text.ti_sysbios_knl_Task_construct)
                  0001afb4    00000026     ti_sysbios_config.o (.text.ClockP_getSystemTicks)
                  0001afda    00000026     drivers_cc13x4.a : List.c.obj (.text.List_insert)
                  0001b000    00000026     maclib_osal_tirtos7_cc13x4_26x4.a : osal_port.c.o (.text.OsalPort_msgDequeue)
                  0001b026    00000026     ti_sysbios_config.o (.text.SystemP_snprintf)
                  0001b04c    00000026     drivers_cc13x4.a : UART2CC26X2.c.obj (.text.UART2Support_powerSetConstraint)
                  0001b072    00000026     maclib_secure_cc13x4_tirtos7.a : mac_low_level.c.o (.text.macLowLevelDiags)
                  0001b098    00000026                                    : saddr.c.o (.text.sAddrCmp)
                  0001b0be    00000024     drivers_cc13x4.a : AESCCMCC26X4.c.obj (.text.AESCCM_setOperationInProgress)
                  0001b0e2    00000024     jdllc.o (.text.Jdllc_getDefaultKey)
                  0001b106    00000024     drivers_cc13x4.a : List.c.obj (.text.List_put)
                  0001b12a    00000024                      : List.c.obj (.text.List_putHead)
                  0001b14e    00000002     --HOLE-- [fill = 0]
                  0001b150    00000024     driverlib.lib : aes.c.obj (.text.NOROM_AESWaitForIRQFlags)
                  0001b174    00000024                   : prcm.c.obj (.text.NOROM_PRCMPeripheralDeepSleepDisable)
                  0001b198    00000024                   : prcm.c.obj (.text.NOROM_PRCMPeripheralRunDisable)
                  0001b1bc    00000024                   : prcm.c.obj (.text.NOROM_PRCMPeripheralSleepDisable)
                  0001b1e0    00000024                   : uart.c.obj (.text.NOROM_UARTConfigSetExpClk)
                  0001b204    00000024     maclib_osal_tirtos7_cc13x4_26x4.a : osal_port.c.o (.text.OsalPort_msgAllocate)
                  0001b228    00000024     drivers_cc13x4.a : PowerCC26X2.c.obj (.text.Power_registerNotify)
                  0001b24c    00000024     rf_multiMode_cc13x4.a : RFCC26X2_multiMode.c.cc13x4.ticlang.o (.text.RF_clkPowerUp)
                  0001b270    00000024                           : RFCC26X2_multiMode.c.cc13x4.ticlang.o (.text.RF_hwiCpe0ChangePhy)
                  0001b294    00000024                           : RFCC26X2_multiMode.c.cc13x4.ticlang.o (.text.RF_isStateTransitionAllowed)
                  0001b2b8    00000024                           : RFCC26X2_multiMode.c.cc13x4.ticlang.o (.text.RF_searchAndReplacePAOverride)
                  0001b2dc    00000024     ti_sysbios_config.o (.text.SemaphoreP_destruct)
                  0001b300    00000024     ssf.o (.text.Ssf_stopScanBackoffClock)
                  0001b324    00000024     maclib_secure_cc13x4_tirtos7.a : mac_mgmt.c.o (.text.macApiPending)
                  0001b348    00000024                                    : mac_mgmt.c.o (.text.macCoordAddrCmp)
                  0001b36c    00000024                                    : mac_radio.c.o (.text.macRadioSwInit)
                  0001b390    00000024                                    : mac.c.o (.text.macRatCb_A)
                  0001b3b4    00000024                                    : mac_rx_onoff.c.o (.text.macRxSoftDisable)
                  0001b3d8    00000024                                    : mac_rx_onoff.c.o (.text.macRxSoftEnable)
                  0001b3fc    00000024                                    : mac.c.o (.text.macSetCurrChan)
                  0001b420    00000024                                    : mac_symbol_timer.c.o (.text.macSymbolTimerRestore)
                  0001b444    00000024                                    : mac_symbol_timer.c.o (.text.macSymbolTimerSetRollover)
                  0001b468    00000024     ssf.o (.text.processScanBackoffTimeoutCallback)
                  0001b48c    00000022     drivers_cc13x4.a : AESCCMCC26X4.c.obj (.text.AESCCM_setLengths)
                  0001b4ae    00000022                      : LED.c.obj (.text.LED_stopBlinking)
                  0001b4d0    00000022                      : List.c.obj (.text.List_get)
                  0001b4f2    00000022     ti_sysbios_config.o (.text.PowerCC26XX_schedulerRestore)
                  0001b514    00000022     rf_multiMode_cc13x4.a : RFCC26X2_multiMode.c.cc13x4.ticlang.o (.text.RF_queueEnd)
                  0001b536    00000022     drivers_cc13x4.a : RingBuf.c.obj (.text.RingBuf_getPointer)
                  0001b558    00000022                      : UART2CC26X2.c.obj (.text.UART2Support_sendData)
                  0001b57a    00000022                      : UART2.c.obj (.text.UART2_read)
                  0001b59c    00000022     crc.o (.text.crc_update)
                  0001b5be    00000022     sensor.o (.text.jdllcDisassocCnfCb)
                  0001b5e0    00000022     sensor.o (.text.jdllcDisassocIndCb)
                  0001b602    00000022     drivers_cc13x4.a : Button.c.obj (.text.msToTicks)
                  0001b624    00000022     ssf.o (.text.processPollTimeoutCallback)
                  0001b646    00000022     ssf.o (.text.processReadingTimeoutCallback)
                  0001b668    00000022     maclib_secure_cc13x4_tirtos7.a : saddr.c.o (.text.sAddrExtCmp)
                  0001b68a    00000022     sysbios.a : Hwi_asm_switch_gcc.s.obj (.text.ti_sysbios_family_arm_v8m_Hwi_switchAndRunFunc)
                  0001b6ac    00000020     drivers_cc13x4.a : GPTimerCC26XX.c.obj (.text.GPTimerCC26XXReverseLookupMask)
                  0001b6cc    00000020                      : GPTimerCC26XX.c.obj (.text.GPTimerCC26XX_configureDebugStall)
                  0001b6ec    00000020     jdllc.o (.text.Jdllc_setChanMask)
                  0001b70c    00000020     maclib_secure_cc13x4_tirtos7.a : mac_hl_patch.c.o (.text.MAC_AbortScan)
                  0001b72c    00000020     driverlib.lib : prcm.c.obj (.text.NOROM_PRCMPeripheralDeepSleepEnable)
                  0001b74c    00000020                   : prcm.c.obj (.text.NOROM_PRCMPeripheralRunEnable)
                  0001b76c    00000020                   : prcm.c.obj (.text.NOROM_PRCMPeripheralSleepEnable)
                  0001b78c    00000020     rf_multiMode_cc13x4.a : rfc.c.cc13x4.ticlang.o (.text.NOROM_RFCDoorbellSendTo)
                  0001b7ac    00000020                           : rfc.c.cc13x4.ticlang.o (.text.NOROM_RFCOverrideSearch)
                  0001b7cc    00000020     driverlib.lib : setup_rom.c.obj (.text.NOROM_SetupGetTrimForXoscHfCtl)
                  0001b7ec    00000020                   : setup_rom.c.obj (.text.NOROM_SetupSetAonRtcSubSecInc)
                  0001b80c    00000020                   : chipinfo.c.obj (.text.NOROM_ThisLibraryIsFor_CC13x4_CC26x4_HaltIfViolated)
                  0001b82c    00000020     drivers_cc13x4.a : PowerCC26X2_helpers.c.obj (.text.PowerCC26X2_disableTCXOQual)
                  0001b84c    00000020                      : PowerCC26X2_helpers.c.obj (.text.PowerCC26X2_enableTCXOQual)
                  0001b86c    00000020                      : PowerCC26X2.c.obj (.text.Power_unregisterNotify)
                  0001b88c    00000020     rf_multiMode_cc13x4.a : RFCC26X2_multiMode.c.cc13x4.ticlang.o (.text.RF_cmdAlloc)
                  0001b8ac    00000020                           : RFCC26X2_multiMode.c.cc13x4.ticlang.o (.text.RF_getRssi)
                  0001b8cc    00000020                           : RFCC26X2_multiMode.c.cc13x4.ticlang.o (.text.RF_invokeGlobalCallback)
                  0001b8ec    00000020                           : RFCC26X2_multiMode.c.cc13x4.ticlang.o (.text.RF_ratIsRunning)
                  0001b90c    00000020                           : RFCC26X2_multiMode.c.cc13x4.ticlang.o (.text.RF_setTxPower)
                  0001b92c    00000020     maclib_secure_cc13x4_tirtos7.a : mac_mgmt.c.o (.text.macGetCoordAddress)
                  0001b94c    00000020                                    : mac_radio.c.o (.text.macGetRadioState)
                  0001b96c    00000020                                    : mac_mcu.c.o (.text.macMcuTimerCapture)
                  0001b98c    00000020                                    : mac_hl_patch.c.o (.text.macPibIndex)
                  0001b9ac    00000020                                    : mac_device.c.o (.text.macPollRxDisassoc)
                  0001b9cc    00000020                                    : mac_radio.c.o (.text.macRadioSetShortAddr)
                  0001b9ec    00000020                                    : mac_data.c.o (.text.macRxCheckPendingCallback)
                  0001ba0c    00000020                                    : mac_rx_onoff.c.o (.text.macRxEnable)
                  0001ba2c    00000020                                    : mac_rx_onoff.c.o (.text.macRxOnOffInit)
                  0001ba4c    00000020                                    : mac_rx.c.o (.text.macRxSFDTimerExpiry)
                  0001ba6c    00000020                                    : mac_symbol_timer.c.o (.text.macSymbolTimerSetTriggerRollover)
                  0001ba8c    00000020                                    : mac_timer.c.o (.text.macTimer)
                  0001baac    00000020     ti_sysbios_config.o (.text.pthread_attr_init)
                  0001bacc    0000001e     ti_sysbios_config.o (.text.BIOS_rtsLock)
                  0001baea    0000001e     maclib_osal_tirtos7_cc13x4_26x4.a : osal_port.c.o (.text.OsalPort_msgDeallocate)
                  0001bb08    0000001e     drivers_cc13x4.a : UART2.c.obj (.text.UART2_writeTimeout)
                  0001bb26    00000002     --HOLE-- [fill = 0]
                  0001bb28    0000001e     libclang_rt.builtins.a : ashldi3.S.obj (.text.__ashldi3)
                  0001bb46    0000001e     ssf.o (.text.collectorLedIndentifyAction)
                  0001bb64    0000001e     maclib_secure_cc13x4_tirtos7.a : mac_scan.c.o (.text.macScanFailedInProgress)
                  0001bb82    0000001e     ssf.o (.text.processMenuUpdate)
                  0001bba0    0000001c     ti_sysbios_config.o (.text.ClockP_destruct)
                  0001bbbc    0000001c     drivers_cc13x4.a : GPIOCC26XX.c.obj (.text.GPIO_read)
                  0001bbd8    0000001c                      : GPIO.c.obj (.text.GPIO_setCallback)
                  0001bbf4    0000001c     ti_sysbios_config.o (.text.HwiP_setPriority)
                  0001bc10    0000001c     driverlib.lib : ddi.c.obj (.text.NOROM_DDI16BitfieldRead)
                  0001bc2c    0000001c                   : osc.c.obj (.text.NOROM_OSCHF_TurnOnXosc)
                  0001bc48    0000001c                   : prcm.c.obj (.text.NOROM_PRCMDeepSleep)
                  0001bc64    0000001c                   : sys_ctrl.c.obj (.text.NOROM_SysCtrlResetSourceGet)
                  0001bc80    0000001c     nvocmp.o (.text.NVOCMP_expectCompApi)
                  0001bc9c    0000001c     maclib_osal_tirtos7_cc13x4_26x4.a : osal_port.c.o (.text.OsalPort_memcmp)
                  0001bcb8    0000001c     drivers_cc13x4.a : PowerCC26X2_helpers.c.obj (.text.PowerCC26X2_getOscHfSourceReady)
                  0001bcd4    0000001c                      : PowerCC26X2_calibrateRCOSC_helpers.c.obj (.text.PowerCC26X2_writeCtrim)
                  0001bcf0    0000001c                      : PowerCC26X2_calibrateRCOSC_helpers.c.obj (.text.PowerCC26X2_writeCtrimFract)
                  0001bd0c    0000001c                      : PowerCC26X2_calibrateRCOSC_helpers.c.obj (.text.PowerCC26X2_writeCtrimFractEn)
                  0001bd28    0000001c                      : PowerCC26X2_calibrateRCOSC_helpers.c.obj (.text.PowerCC26X2_writeRtrim)
                  0001bd44    0000001c                      : PowerCC26X2.c.obj (.text.Power_getTransitionLatency)
                  0001bd60    0000001c     rf_multiMode_cc13x4.a : RFCC26X2_multiMode.c.cc13x4.ticlang.o (.text.RF_clkInactivityCallback)
                  0001bd7c    0000001c                           : RFCC26X2_multiMode.c.cc13x4.ticlang.o (.text.RF_getPAOverrideOffsetAndValue)
                  0001bd98    0000001c                           : RFCC26X2_multiMode.c.cc13x4.ticlang.o (.text.RF_powerConstraintSet)
                  0001bdb4    0000001c                           : RFCC26X2_multiMode.c.cc13x4.ticlang.o (.text.RF_swiFsm)
                  0001bdd0    0000001c     drivers_cc13x4.a : RingBuf.c.obj (.text.RingBuf_flush)
                  0001bdec    0000001c     ti_sysbios_config.o (.text.SwiP_destruct)
                  0001be08    0000001c     cui.o (.text.UartReadCallback)
                  0001be24    0000001c     maclib_secure_cc13x4_tirtos7.a : mac_data.c.o (.text.macDataRxMemAlloc)
                  0001be40    0000001c                                    : mac_mcu.c.o (.text.macMcuOverflowCapture)
                  0001be5c    0000001c                                    : mac.c.o (.text.macNopBackoffTimerExpiry)
                  0001be78    0000001c                                    : mac_radio.c.o (.text.macRadioSelectConfig)
                  0001be94    0000001c                                    : mac_rx.c.o (.text.macRxAckTxDoneCallback)
                  0001beb0    0000001c                                    : mac_device.c.o (.text.macStartResponseTimer)
                  0001becc    0000001c                                    : mac_symbol_timer.c.o (.text.macSymbolTimerPowerDown)
                  0001bee8    0000001c     drivers_cc13x4.a : NVSCC26XX.c.obj (.text.restoreFlashCache)
                  0001bf04    0000001c     maclib_secure_cc13x4_tirtos7.a : mac_rx.c.o (.text.rxDone)
                  0001bf20    0000001c     ti_sysbios_config.o (.text.ti_sysbios_knl_Task_Params_init)
                  0001bf3c    0000001a     ti_sysbios_config.o (.text.BIOS_rtsUnlock)
                  0001bf56    0000001a     jdllc.o (.text.Jdllc_securityFill)
                  0001bf70    0000001a     drivers_cc13x4.a : LED.c.obj (.text.LED_toggle)
                  0001bf8a    0000001a     macTask.o (.text.MAC_CbackCheckPending)
                  0001bfa4    0000001a     macTask.o (.text.MAC_CbackQueryRetransmit)
                  0001bfbe    0000001a     driverlib.lib : timer.c.obj (.text.NOROM_TimerStallControl)
                  0001bfd8    0000001a                   : uart.c.obj (.text.NOROM_UARTDisable)
                  0001bff2    0000001a                   : udma.c.obj (.text.NOROM_uDMAChannelSizeGet)
                  0001c00c    0000001a     drivers_cc13x4.a : UART2CC26X2.c.obj (.text.UART2Support_disableRx)
                  0001c026    0000001a     api_mac.o (.text.copyApiMacAddrToMacAddr)
                  0001c040    0000001a     maclib_secure_cc13x4_tirtos7.a : mac_hl_patch.c.o (.text.macCheckPhyMode)
                  0001c05a    00000002     --HOLE-- [fill = 0]
                  0001c05c    0000001a     ti_sysbios_config.o (.text.ti_sysbios_knl_Idle_loop)
                  0001c076    00000002     --HOLE-- [fill = 0]
                  0001c078    00000018     driverlib.lib : aes.c.obj (.text.AESReadAuthenticationModeIV)
                  0001c090    00000018                   : aes.c.obj (.text.AESWriteKey3)
                  0001c0a8    00000018     drivers_cc13x4.a : CryptoUtils.c.obj (.text.CryptoUtils_memset)
                  0001c0c0    00000018                      : GPIOCC26XX.c.obj (.text.GPIO_disableInt)
                  0001c0d8    00000018     maclib_secure_cc13x4_tirtos7.a : mac_mgmt.c.o (.text.MAC_EnableFH)
                  0001c0f0    00000018     driverlib.lib : aes.c.obj (.text.NOROM_AESSetInitializationVector)
                  0001c108    00000018                   : trng.c.obj (.text.NOROM_TRNGNumberGet)
                  0001c120    00000018     drivers_cc13x4.a : NVSCC26XX.c.obj (.text.NVSCC26XX_getAttrs)
                  0001c138    00000018                      : NVSCC26XX.c.obj (.text.NVSCC26XX_lock)
                  0001c150    00000018                      : PowerCC26X2.c.obj (.text.PowerCC26XX_calibrate)
                  0001c168    00000018                      : PowerCC26X2.c.obj (.text.Power_idleFunc)
                  0001c180    00000018     rf_multiMode_cc13x4.a : RFCC26X2_multiMode.c.cc13x4.ticlang.o (.text.RF_ScheduleCmdParams_init)
                  0001c198    00000018                           : RFCC26X2_multiMode.c.cc13x4.ticlang.o (.text.RF_cancelCmd)
                  0001c1b0    00000018                           : RFCC26X2_multiMode.c.cc13x4.ticlang.o (.text.RF_restartClockTimeout)
                  0001c1c8    00000018     ti_sysbios_config.o (.text.SwiP_or)
                  0001c1e0    00000018     ti_sysbios_config.o (.text.SystemP_vsnprintf)
                  0001c1f8    00000018     maclib_osal_tirtos7_cc13x4_26x4.a : mac_util.c.o (.text.Util_clearEvent)
                  0001c210    00000018                                       : mac_util.c.o (.text.Util_setEvent)
                  0001c228    00000018     maclib_secure_cc13x4_tirtos7.a : mac_beacon.c.o (.text.macBeaconReset)
                  0001c240    00000018                                    : mac_data.c.o (.text.macFrameDuration)
                  0001c258    00000018                                    : mac_mgmt.c.o (.text.macGetMyAddrMode)
                  0001c270    00000018                                    : mac_device.c.o (.text.macPollCnf)
                  0001c288    00000018                                    : mac_device.c.o (.text.macPollRxAssocRsp)
                  0001c2a0    00000018                                    : mac_radio.c.o (.text.macRadioInit)
                  0001c2b8    00000018                                    : mac_radio_tx.c.o (.text.macRadioTxPrepCsmaSlotted)
                  0001c2d0    00000018                                    : mac_radio_tx.c.o (.text.macRadioTxPrepCsmaUnslotted)
                  0001c2e8    00000018                                    : mac.c.o (.text.macSendReceiveCmd)
                  0001c300    00000018                                    : mac_symbol_timer.c.o (.text.macSymbolTimerRealign)
                  0001c318    00000018                                    : mac_hl_patch.c.o (.text.macWrapper8ByteUnused)
                  0001c330    00000018     sysbios.a : TaskSupport_asm_gcc.s.obj (.text.ti_sysbios_knl_TaskSupport_glue)
                  0001c348    00000018     maclib_secure_cc13x4_tirtos7.a : mac_tx.c.o (.text.txCsmaGo)
                  0001c360    00000018     drivers_cc13x4.a : UART2CC26X2.c.obj (.text.uartDmaDisable)
                  0001c378    00000018                      : UART2CC26X2.c.obj (.text.uartDmaEnable)
                  0001c390    00000016     ti_drivers_config.o (.text.Board_init)
                  0001c3a6    00000016     ti_sysbios_config.o (.text.ClockP_start)
                  0001c3bc    00000016     ti_sysbios_config.o (.text.HwiP_interruptsEnabled)
                  0001c3d2    00000016     drivers_cc13x4.a : List.c.obj (.text.List_clearList)
                  0001c3e8    00000016     rf_multiMode_cc13x4.a : RFCC26X2_multiMode.c.cc13x4.ticlang.o (.text.RF_ratCompare)
                  0001c3fe    00000016     drivers_cc13x4.a : TRNGCC26XX.c.obj (.text.TRNGCC26XX_startJob)
                  0001c414    00000016     maclib_secure_cc13x4_tirtos7.a : mac_radio.c.o (.text.macRadioSetTxPower)
                  0001c42a    00000016                                    : mac_timer.c.o (.text.macTimerRemoveTimer)
                  0001c440    00000014     drivers_cc13x4.a : AESCCMCC26X4.c.obj (.text.AESCCM_init)
                  0001c454    00000014     api_mac.o (.text.ApiMac_mlmeSetReqBool)
                  0001c468    00000014     api_mac.o (.text.ApiMac_mlmeSetReqUint16)
                  0001c47c    00000014     api_mac.o (.text.ApiMac_mlmeSetReqUint8)
                  0001c490    00000014     api_mac.o (.text.ApiMac_mlmeSetSecurityReqUint16)
                  0001c4a4    00000014     ti_sysbios_config.o (.text.HwiP_post)
                  0001c4b8    00000014     ti_sysbios_config.o (.text.HwiP_setFunc)
                  0001c4cc    00000014     jdllc.o (.text.Jdllc_securityCheck)
                  0001c4e0    00000014     maclib_secure_cc13x4_tirtos7.a : mac_autopend.c.o (.text.MAC_SrcMatchCheckAllPending)
                  0001c4f4    00000014     driverlib.lib : aon_rtc.c.obj (.text.NOROM_AONRTCCurrent64BitValueGet)
                  0001c508    00000014                   : setup_rom.c.obj (.text.NOROM_SetupGetTrimForRcOscLfRtuneCtuneTrim)
                  0001c51c    00000014     rf_multiMode_cc13x4.a : RFCC26X2_multiMode.c.cc13x4.ticlang.o (.text.RF_dbellSyncOnAck)
                  0001c530    00000014                           : RFCC26X2_multiMode.c.cc13x4.ticlang.o (.text.RF_flushCmd)
                  0001c544    00000014     drivers_cc13x4.a : TRNGCC26XX.c.obj (.text.TRNG_close)
                  0001c558    00000014                      : UART2CC26X2.c.obj (.text.UART2CC26X2_postNotifyFxn)
                  0001c56c    00000014     libclang_rt.builtins.a : aeabi_uldivmod.S.obj (.text.__aeabi_uldivmod)
                  0001c580    00000014     libc.a : args_main.c.obj (.text._args_main)
                  0001c594    00000014     maclib_secure_cc13x4_tirtos7.a : mac_mgmt.c.o (.text.macConflictSyncLossInd)
                  0001c5a8    00000014                                    : mac_data.c.o (.text.macDataSend)
                  0001c5bc    00000014                                    : mac_main.c.o (.text.macMainReserve)
                  0001c5d0    00000014                                    : mac_rx_onoff.c.o (.text.macRxOnRequest)
                  0001c5e4    00000014                                    : mac_main.c.o (.text.macStateIdleOrPolling)
                  0001c5f8    00000014                                    : mac_main.c.o (.text.macStateScanning)
                  0001c60c    00000014                                    : mac_symbol_timer.c.o (.text.macSymbolSetupPwrMgmt)
                  0001c620    00000014                                    : mac_mgmt.c.o (.text.macWSAsyncCnf)
                  0001c634    00000014                                    : mac_rx.c.o (.text.rxDiscardFrame)
                  0001c648    00000014     drivers_cc13x4.a : Button.c.obj (.text.timediff)
                  0001c65c    00000012     ti_sysbios_config.o (.text.ClockP_getCpuFreq)
                  0001c66e    00000012     jdllc.o (.text.Jdllc_setJoiningPanId)
                  0001c680    00000012     main.o (.text.Main_excHandler)
                  0001c692    00000012     driverlib.lib : uart.c.obj (.text.NOROM_UARTCharPutNonBlocking)
                  0001c6a4    00000012     drivers_cc13x4.a : NVS.c.obj (.text.NVS_write)
                  0001c6b6    00000012     rf_multiMode_cc13x4.a : RFCC26X2_multiMode.c.cc13x4.ticlang.o (.text.RF_getCmdOp)
                  0001c6c8    00000012     drivers_cc13x4.a : StructRingBuf.c.obj (.text.StructRingBuf_construct)
                  0001c6da    00000012     ti_sysbios_config.o (.text._pthread_runStub)
                  0001c6ec    00000012     main.o (.text.assertHandler)
                  0001c6fe    00000012     maclib_secure_cc13x4_tirtos7.a : mac_device.c.o (.text.macAssocRxDisassoc)
                  0001c710    00000012                                    : mac_data.c.o (.text.macCheckSched)
                  0001c722    00000012                                    : mac_symbol_timer.c.o (.text.macSymbolTimerCompareIsr)
                  0001c734    00000012     ti_sysbios_config.o (.text.pthread_attr_setschedparam)
                  0001c746    00000012     maclib_secure_cc13x4_tirtos7.a : saddr.c.o (.text.sAddrCpy)
                  0001c758    00000012     ti_sysbios_config.o (.text.ti_sysbios_family_arm_v8m_cc26x4_Timer_dynamicStub)
                  0001c76a    00000012     ti_sysbios_config.o (.text.ti_sysbios_knl_Mailbox_Params_init)
                  0001c77c    00000012     maclib_secure_cc13x4_tirtos7.a : mac_tx.c.o (.text.txLbtPrep)
                  0001c78e    00000012     libc.a : memcpy_t2.S.obj (.text:TI_memcpy_small)
                  0001c7a0    00000010     drivers_cc13x4.a : AESCCM.c.obj (.text.AESCCM_Params_init)
                  0001c7b0    00000010                      : AESCCM.c.obj (.text.AESCCM_open)
                  0001c7c0    00000010                      : Button.c.obj (.text.Button_Params_init)
                  0001c7d0    00000010                      : GPIOCC26XX.c.obj (.text.GPIO_write)
                  0001c7e0    00000010     ti_sysbios_config.o (.text.HwiP_Params_init)
                  0001c7f0    00000010     maclib_secure_cc13x4_tirtos7.a : mac_autopend.c.o (.text.MAC_SrcMatchSetManualAddressTracking)
                  0001c800    00000010     driverlib.lib : ioc.c.obj (.text.NOROM_IOCPortConfigureSet)
                  0001c810    00000010     rf_multiMode_cc13x4.a : rfc.c.cc13x4.ticlang.o (.text.NOROM_RFCCpeIntGetAndClear)
                  0001c820    00000010                           : rfc.c.cc13x4.ticlang.o (.text.NOROM_RFCHwIntGetAndClear)
                  0001c830    00000010     driverlib.lib : vims.c.obj (.text.NOROM_VIMSModeGet)
                  0001c840    00000010     drivers_cc13x4.a : AESCCMCC26X4.c.obj (.text.OUTLINED_FUNCTION_0)
                  0001c850    00000010                      : GPIOCC26XX.c.obj (.text.OUTLINED_FUNCTION_0)
                  0001c860    00000010     maclib_secure_cc13x4_tirtos7.a : mac_mgmt.c.o (.text.OUTLINED_FUNCTION_0)
                  0001c870    00000010                                    : mac_tx.c.o (.text.OUTLINED_FUNCTION_1)
                  0001c880    00000010                                    : mac_hl_patch.c.o (.text.OUTLINED_FUNCTION_3)
                  0001c890    00000010     rf_multiMode_cc13x4.a : RFCC26X2_multiMode.c.cc13x4.ticlang.o (.text.OUTLINED_FUNCTION_3)
                  0001c8a0    00000010     maclib_osal_tirtos7_cc13x4_26x4.a : osal_port.c.o (.text.OsalPort_memcpy)
                  0001c8b0    00000010     drivers_cc13x4.a : PWM.c.obj (.text.PWM_Params_init)
                  0001c8c0    00000010                      : PowerCC26X2_helpers.c.obj (.text.PowerCC26X2_oscCtlClearXtal)
                  0001c8d0    00000010                      : PowerCC26X2_helpers.c.obj (.text.PowerCC26X2_prcmEnableCacheRetention)
                  0001c8e0    00000010                      : PowerCC26X2_calibrateRCOSC_helpers.c.obj (.text.PowerCC26X2_readCtrim)
                  0001c8f0    00000010                      : PowerCC26X2_calibrateRCOSC_helpers.c.obj (.text.PowerCC26X2_readCtrimFract)
                  0001c900    00000010                      : PowerCC26X2_calibrateRCOSC_helpers.c.obj (.text.PowerCC26X2_readRtrim)
                  0001c910    00000010                      : PowerCC26X2_helpers.c.obj (.text.PowerCC26X2_switchToTCXO)
                  0001c920    00000010                      : PowerCC26X2.c.obj (.text.Power_getDependencyCount)
                  0001c930    00000010                      : RingBuf.c.obj (.text.RingBuf_construct)
                  0001c940    00000010     ti_sysbios_config.o (.text.SwiP_Params_init)
                  0001c950    00000010     ti_sysbios_config.o (.text.SwiP_disable)
                  0001c960    00000010     drivers_cc13x4.a : Timer.c.obj (.text.Timer_Params_init)
                  0001c970    00000010                      : UART2CC26X2.c.obj (.text.UART2Support_txDone)
                  0001c980    00000010     maclib_secure_cc13x4_tirtos7.a : mac_data.c.o (.text.macDataTxTimeAvailable)
                  0001c990    00000010                                    : mac_main.c.o (.text.macSetEvent16)
                  0001c9a0    00000010                                    : mac_main.c.o (.text.macSetEvent)
                  0001c9b0    00000010     ti_sysbios_config.o (.text.pthread_mutexattr_init)
                  0001c9c0    00000010     ti_sysbios_config.o (.text.ti_sysbios_family_arm_v8m_Hwi_excHandler)
                  0001c9d0    00000010     libc.a : copy_zero_init.c.obj (.text:decompress:ZI)
                  0001c9e0    0000000e     drivers_cc13x4.a : AESCCMCC26X4.c.obj (.text.AESCCM_close)
                  0001c9ee    0000000e                      : GPTimerCC26XX.c.obj (.text.GPTimerCC26XX_Params_init)
                  0001c9fc    0000000e     jdllc.o (.text.Jdllc_getChanMask)
                  0001ca0a    0000000e     drivers_cc13x4.a : LED.c.obj (.text.LED_Params_init)
                  0001ca18    0000000e                      : NVS.c.obj (.text.NVS_read)
                  0001ca26    0000000e                      : PowerCC26X2.c.obj (.text.OUTLINED_FUNCTION_0)
                  0001ca34    0000000e     rf_multiMode_cc13x4.a : RFCC26X2_multiMode.c.cc13x4.ticlang.o (.text.OUTLINED_FUNCTION_0)
                  0001ca42    0000000e                           : RFCC26X2_multiMode.c.cc13x4.ticlang.o (.text.OUTLINED_FUNCTION_4)
                  0001ca50    0000000e                           : RFCC26X2_multiMode.c.cc13x4.ticlang.o (.text.RF_RatConfigCompare_init)
                  0001ca5e    0000000e     ssf.o (.text.Ssf_PostAppSem)
                  0001ca6c    0000000e     drivers_cc13x4.a : StructRingBuf.c.obj (.text.StructRingBuf_isFull)
                  0001ca7a    0000000e                      : TimerCC26XX.c.obj (.text.TimerSupport_timerFullWidth)
                  0001ca88    0000000e                      : UART2.c.obj (.text.UART2_write)
                  0001ca96    0000000e     maclib_secure_cc13x4_tirtos7.a : mac_low_level.c.o (.text.macLowLevelBufferInit)
                  0001caa4    0000000e                                    : mac_low_level.c.o (.text.macLowLevelReset)
                  0001cab2    0000000e                                    : mac_low_level.c.o (.text.macLowLevelResume)
                  0001cac0    0000000e     ti_sysbios_config.o (.text.pthread_self)
                  0001cace    0000000e     ti_sysbios_config.o (.text.sem_wait)
                  0001cadc    0000000e     drivers_cc13x4.a : PowerCC26X2.c.obj (.text.switchToTCXO)
                  0001caea    0000000e     ti_sysbios_config.o (.text.ti_sysbios_knl_Clock_tick)
                  0001caf8    0000000e     libc.a : memset_t2.S.obj (.text:TI_memset_small)
                  0001cb06    0000000e            : copy_decompress_none.c.obj (.text:decompress:none)
                  0001cb14    0000000c     api_mac.o (.text.ApiMac_registerCallbacks)
                  0001cb20    0000000c     ti_sysbios_config.o (.text.BIOS_linkedWithIncorrectBootLibrary)
                  0001cb2c    0000000c     ti_sysbios_config.o (.text.BIOS_start)
                  0001cb38    0000000c     drivers_cc13x4.a : CryptoKeyPlaintext.c.obj (.text.CryptoKeyPlaintext_initBlankKey)
                  0001cb44    0000000c                      : CryptoKeyPlaintext.c.obj (.text.CryptoKeyPlaintext_initKey)
                  0001cb50    0000000c     ti_sysbios_config.o (.text.HwiP_disable)
                  0001cb5c    0000000c     jdllc.o (.text.Jdllc_getPrevProvState)
                  0001cb68    0000000c     jdllc.o (.text.Jdllc_getProvState)
                  0001cb74    0000000c     jdllc.o (.text.Jdllc_setPollRate)
                  0001cb80    0000000c     maclib_secure_cc13x4_tirtos7.a : mac_autopend.c.o (.text.MAC_SrcMatchCheckManualAddressTracking)
                  0001cb8c    0000000c     driverlib.lib : osc.c.obj (.text.NOROM_OSC_HPOSCRelativeFrequencyOffsetToRFCoreFormatConvert)
                  0001cb98    0000000c     drivers_cc13x4.a : NVSCC26XX.c.obj (.text.NVSCC26XX_unlock)
                  0001cba4    0000000c                      : UART2CC26X2.c.obj (.text.OUTLINED_FUNCTION_0)
                  0001cbb0    0000000c     maclib_secure_cc13x4_tirtos7.a : mac.c.o (.text.OUTLINED_FUNCTION_0)
                  0001cbbc    0000000c                                    : mac_radio_tx.c.o (.text.OUTLINED_FUNCTION_0)
                  0001cbc8    0000000c                                    : mac_hl_patch.c.o (.text.OUTLINED_FUNCTION_2)
                  0001cbd4    0000000c     maclib_osal_tirtos7_cc13x4_26x4.a : osal_port_timers.c.o (.text.OsalPortTimers_registerCleanupEvent)
                  0001cbe0    0000000c                                       : osal_port.c.o (.text.OsalPort_stopTimer)
                  0001cbec    0000000c     drivers_cc13x4.a : PowerCC26X2.c.obj (.text.Power_getConstraintMask)
                  0001cbf8    0000000c     rf_multiMode_cc13x4.a : RFCC26X2_multiMode.c.cc13x4.ticlang.o (.text.RF_Params_init)
                  0001cc04    0000000c     ti_sysbios_config.o (.text.SwiP_getTrigger)
                  0001cc10    0000000c     drivers_cc13x4.a : TimerCC26XX.c.obj (.text.TimerSupport_timerLoad)
                  0001cc1c    0000000c                      : UART2CC26X2.c.obj (.text.UART2Support_disableTx)
                  0001cc28    0000000c                      : UART2CC26X2.c.obj (.text.UART2Support_enableRx)
                  0001cc34    0000000c                      : UART2CC26X2.c.obj (.text.UART2Support_enableTx)
                  0001cc40    0000000c                      : UART2.c.obj (.text.UART2_Params_init)
                  0001cc4c    0000000c     libc.a : _lock.c.obj (.text._register_lock)
                  0001cc58    0000000c            : _lock.c.obj (.text._register_unlock)
                  0001cc64    0000000c     maclib_secure_cc13x4_tirtos7.a : mac_mgmt.c.o (.text.macDefaultAction)
                  0001cc70    0000000c                                    : mac_mgmt.c.o (.text.macIsCsmOperational)
                  0001cc7c    0000000c                                    : mac_main.c.o (.text.macMainSetTaskId)
                  0001cc88    0000000c                                    : mac_pwr.c.o (.text.macPwrReset)
                  0001cc94    0000000c                                    : mac_rx.c.o (.text.macRxSequenceNum)
                  0001cca0    0000000c     maclib_osal_tirtos7_cc13x4_26x4.a : osal_port.c.o (.text.osalHeapInitFxn)
                  0001ccac    0000000c     ti_sysbios_config.o (.text.pthread_attr_setdetachstate)
                  0001ccb8    0000000a     drivers_cc13x4.a : AESCCM.c.obj (.text.AESCCM_Operation_init)
                  0001ccc2    0000000a     cui.o (.text.CUI_clientParamsInit)
                  0001cccc    0000000a     ti_sysbios_config.o (.text.ClockP_Params_init)
                  0001ccd6    0000000a     maclib_secure_cc13x4_tirtos7.a : mac_device.c.o (.text.MAC_MlmeAssociateReq)
                  0001cce0    0000000a                                    : mac_mgmt.c.o (.text.MAC_MlmeDisassociateReq)
                  0001ccea    0000000a     driverlib.lib : vims.c.obj (.text.NOROM_VIMSModeSet)
                  0001ccf4    0000000a     drivers_cc13x4.a : Button.c.obj (.text.OUTLINED_FUNCTION_0)
                  0001ccfe    0000000a     maclib_secure_cc13x4_tirtos7.a : mac_rx.c.o (.text.OUTLINED_FUNCTION_0)
                  0001cd08    0000000a                                    : mac.c.o (.text.OUTLINED_FUNCTION_1)
                  0001cd12    0000000a                                    : mac_mgmt.c.o (.text.OUTLINED_FUNCTION_1)
                  0001cd1c    0000000a                                    : mac_radio_tx.c.o (.text.OUTLINED_FUNCTION_1)
                  0001cd26    0000000a                                    : mac_rx.c.o (.text.OUTLINED_FUNCTION_1)
                  0001cd30    0000000a                                    : mac_hl_patch.c.o (.text.OUTLINED_FUNCTION_4)
                  0001cd3a    0000000a     rf_multiMode_cc13x4.a : RFCC26X2_multiMode.c.cc13x4.ticlang.o (.text.OUTLINED_FUNCTION_5)
                  0001cd44    0000000a                           : RFCC26X2_multiMode.c.cc13x4.ticlang.o (.text.OUTLINED_FUNCTION_6)
                  0001cd4e    0000000a     maclib_osal_tirtos7_cc13x4_26x4.a : osal_port.c.o (.text.OsalPort_enterCS)
                  0001cd58    0000000a     drivers_cc13x4.a : PowerCC26X2_helpers.c.obj (.text.PowerCC26X2_sysCtrlStandby)
                  0001cd62    0000000a     ti_sysbios_config.o (.text.SemaphoreP_pend)
                  0001cd6c    0000000a     ssf.o (.text.Ssf_free)
                  0001cd76    0000000a     ssf.o (.text.Ssf_readTempSensor)
                  0001cd80    0000000a     drivers_cc13x4.a : TimerCC26XX.c.obj (.text.TimerSupport_timerDisable)
                  0001cd8a    0000000a                      : TimerCC26XX.c.obj (.text.TimerSupport_timerEnable)
                  0001cd94    0000000a                      : UART2CC26X2.c.obj (.text.UDMACC26XX_disableAttribute)
                  0001cd9e    0000000a                      : UDMACC26XX.c.obj (.text.UDMACC26XX_hwiIntFxn)
                  0001cda8    0000000a     maclib_osal_tirtos7_cc13x4_26x4.a : mac_util.c.o (.text.Util_copyExtAddr)
                  0001cdb2    00000002     --HOLE-- [fill = 0]
                  0001cdb4    0000000a     libclang_rt.builtins.a : aeabi_memset.S.obj (.text.__aeabi_memset)
                  0001cdbe    0000000a     maclib_secure_cc13x4_tirtos7.a : mac_data.c.o (.text.macDataRxMemFree)
                  0001cdc8    0000000a                                    : mac_mcu.c.o (.text.macMcuRandomByte)
                  0001cdd2    0000000a                                    : mac_data.c.o (.text.macSetSched)
                  0001cddc    0000000a     ti_sysbios_config.o (.text.sem_post)
                  0001cde6    00000008     drivers_cc13x4.a : GPTimerCC26XX.c.obj (.text.GPTimerCC26XX_setLoadValue)
                  0001cdee    00000008     maclib_secure_cc13x4_tirtos7.a : mac_device.c.o (.text.MAC_MlmePollReq)
                  0001cdf6    00000008                                    : mac_mgmt.c.o (.text.MAC_MlmeSyncReq)
                  0001cdfe    00000008     driverlib.lib : cpu.c.obj (.text.NOROM_CPUcpsid)
                  0001ce06    00000008                   : cpu.c.obj (.text.NOROM_CPUcpsie)
                  0001ce0e    00000008     drivers_cc13x4.a : NVSCC26XX.c.obj (.text.NVSCC26XX_close)
                  0001ce16    00000008     rf_multiMode_cc13x4.a : RFCC26X2_multiMode.c.cc13x4.ticlang.o (.text.OUTLINED_FUNCTION_1)
                  0001ce1e    00000008                           : RFCC26X2_multiMode.c.cc13x4.ticlang.o (.text.OUTLINED_FUNCTION_2)
                  0001ce26    00000008     drivers_cc13x4.a : PowerCC26X2_helpers.c.obj (.text.PowerCC26X2_oschfTrySwitchToXosc)
                  0001ce2e    00000008     ti_sysbios_config.o (.text.SemaphoreP_Params_init)
                  0001ce36    00000008     maclib_osal_tirtos7_cc13x4_26x4.a : util_timer.c.o (.text.UtilTimer_setTimeout)
                  0001ce3e    00000002     --HOLE-- [fill = 0]
                  0001ce40    00000008     libc.a : aeabi_portable.c.obj (.text.__aeabi_errno_addr)
                  0001ce48    00000008     libclang_rt.builtins.a : aeabi_memset.S.obj (.text.__aeabi_memclr)
                  0001ce50    00000008     maclib_secure_cc13x4_tirtos7.a : mac_symbol_timer.c.o (.text.macCsmaTimerExpiry)
                  0001ce58    00000008                                    : mac_mgmt.c.o (.text.macGetCSMPhy)
                  0001ce60    00000008                                    : mac_pib.c.o (.text.macIEEEGetPhyDesc)
                  0001ce68    00000008                                    : mac.c.o (.text.macRxBackoffTimerExpiry)
                  0001ce70    00000008                                    : mac.c.o (.text.macTxBackoffTimerExpiry)
                  0001ce78    00000008     ti_sysbios_config.o (.text.pthread_attr_setstacksize)
                  0001ce80    00000008     ti_sysbios_config.o (.text.ti_sysbios_knl_Mailbox_getNumPendingMsgs)
                  0001ce88    00000006     drivers_cc13x4.a : AESCCMCC26X4.c.obj (.text.AESCCM_oneStepDecrypt)
                  0001ce8e    00000006                      : AESCCMCC26X4.c.obj (.text.AESCCM_oneStepEncrypt)
                  0001ce94    00000006                      : Button.c.obj (.text.Button_setCallback)
                  0001ce9a    00000006     cui.o (.text.CUI_paramsInit)
                  0001cea0    00000006     ti_sysbios_config.o (.text.ClockP_stop)
                  0001cea6    00000006     drivers_cc13x4.a : GPIOCC26XX.c.obj (.text.GPIO_setConfig)
                  0001ceac    00000006                      : GPTimerCC26XX.c.obj (.text.GPTimerCC26XX_getArg)
                  0001ceb2    00000006                      : GPTimerCC26XX.c.obj (.text.GPTimerCC26XX_setArg)
                  0001ceb8    00000006     ti_sysbios_config.o (.text.HwiP_restore)
                  0001cebe    00000006     driverlib.lib : cpu.c.obj (.text.NOROM_CPUdelay)
                  0001cec4    00000006     drivers_cc13x4.a : NVSCC26XX.c.obj (.text.NVSCC26XX_control)
                  0001ceca    00000006                      : NVS.c.obj (.text.NVS_erase)
                  0001ced0    00000006                      : NVS.c.obj (.text.NVS_getAttrs)
                  0001ced6    00000006                      : UART2.c.obj (.text.OUTLINED_FUNCTION_0)
                  0001cedc    00000006     maclib_secure_cc13x4_tirtos7.a : mac_tx.c.o (.text.OUTLINED_FUNCTION_0)
                  0001cee2    00000006                                    : mac_hl_patch.c.o (.text.OUTLINED_FUNCTION_1)
                  0001cee8    00000006     rf_multiMode_cc13x4.a : RFCC26X2_multiMode.c.cc13x4.ticlang.o (.text.OUTLINED_FUNCTION_7)
                  0001ceee    00000006     maclib_osal_tirtos7_cc13x4_26x4.a : osal_port.c.o (.text.OsalPort_clockFunc)
                  0001cef4    00000006                                       : osal_port.c.o (.text.OsalPort_leaveCS)
                  0001cefa    00000006     drivers_cc13x4.a : PWM.c.obj (.text.PWM_close)
                  0001cf00    00000006                      : PWM.c.obj (.text.PWM_setDuty)
                  0001cf06    00000006                      : PWM.c.obj (.text.PWM_start)
                  0001cf0c    00000006     rf_multiMode_cc13x4.a : RFCC26X2_multiMode.c.cc13x4.ticlang.o (.text.RF_RatConfigOutput_init)
                  0001cf12    00000006                           : RFCC26X2_multiMode.c.cc13x4.ticlang.o (.text.RF_clkReqAccess)
                  0001cf18    00000006                           : RFCC26X2_multiMode.c.cc13x4.ticlang.o (.text.RF_runDirectCmd)
                  0001cf1e    00000006                           : RFCC26X2_multiMode.c.cc13x4.ticlang.o (.text.RF_runImmediateCmd)
                  0001cf24    00000006     maclib_osal_tirtos7_cc13x4_26x4.a : mac_util.c.o (.text.Util_bufferUint16)
                  0001cf2a    00000006                                       : mac_util.c.o (.text.Util_bufferUint32)
                  0001cf30    00000006     maclib_secure_cc13x4_tirtos7.a : mac_mgmt.c.o (.text.macApiBadState)
                  0001cf36    00000006                                    : mac_mgmt.c.o (.text.macApiUnsupported)
                  0001cf3c    00000006                                    : mac_radio_tx.c.o (.text.macRadioTxGoGreenPower)
                  0001cf42    00000006                                    : mac_radio_tx.c.o (.text.macRadioTxGoSlotted)
                  0001cf48    00000006                                    : mac_mgmt.c.o (.text.macSecCpy)
                  0001cf4e    00000006                                    : mac_hl_patch.c.o (.text.macTxBackoffHandler)
                  0001cf54    00000006                                    : mac_mgmt.c.o (.text.macTxCsmaDelay)
                  0001cf5a    00000006     maclib_osal_tirtos7_cc13x4_26x4.a : osal_port.c.o (.text.osalHeapAllocFxn)
                  0001cf60    00000006                                       : osal_port.c.o (.text.osalHeapFreeFxn)
                  0001cf66    00000006                                       : osal_port.c.o (.text.osalHeapGetStatsFxn)
                  0001cf6c    00000006     maclib_secure_cc13x4_tirtos7.a : saddr.c.o (.text.sAddrExtCpy)
                  0001cf72    00000006     ti_sysbios_config.o (.text.ti_sysbios_family_arm_v8m_Hwi_doSwiRestore)
                  0001cf78    00000006     ti_sysbios_config.o (.text.ti_sysbios_family_arm_v8m_Hwi_doTaskRestore)
                  0001cf7e    00000006     ti_sysbios_config.o (.text.ti_sysbios_heaps_HeapCallback_alloc)
                  0001cf84    00000006     ti_sysbios_config.o (.text.ti_sysbios_heaps_HeapCallback_free)
                  0001cf8a    00000006     ti_sysbios_config.o (.text.ti_sysbios_heaps_HeapCallback_getStats)
                  0001cf90    00000006     ti_sysbios_config.o (.text.ti_sysbios_heaps_HeapCallback_isBlocking)
                  0001cf96    00000004     api_mac.o (.text.ApiMac_mcpsDataReq)
                  0001cf9a    00000004     api_mac.o (.text.ApiMac_mlmeAssociateReq)
                  0001cf9e    00000004     api_mac.o (.text.ApiMac_mlmeDisassociateReq)
                  0001cfa2    00000004     api_mac.o (.text.ApiMac_mlmeGetReqArray)
                  0001cfa6    00000004     api_mac.o (.text.ApiMac_mlmeGetReqBool)
                  0001cfaa    00000004     api_mac.o (.text.ApiMac_mlmeGetReqUint16)
                  0001cfae    00000004     api_mac.o (.text.ApiMac_mlmeGetReqUint32)
                  0001cfb2    00000004     api_mac.o (.text.ApiMac_mlmePollReq)
                  0001cfb6    00000004     api_mac.o (.text.ApiMac_mlmeScanReq)
                  0001cfba    00000004     api_mac.o (.text.ApiMac_mlmeSetSecurityReqArray)
                  0001cfbe    00000004     api_mac.o (.text.ApiMac_mlmeSetSecurityReqStruct)
                  0001cfc2    00000004     api_mac.o (.text.ApiMac_mlmeSyncReq)
                  0001cfc6    00000004     api_mac.o (.text.ApiMac_randomByte)
                  0001cfca    00000004     api_mac.o (.text.ApiMac_secAddDevice)
                  0001cfce    00000004     api_mac.o (.text.ApiMac_secAddKeyInitFrameCounter)
                  0001cfd2    00000004     api_mac.o (.text.ApiMac_secDeleteDevice)
                  0001cfd6    00000004     drivers_cc13x4.a : Button.c.obj (.text.Button_init)
                  0001cfda    00000004     ti_sysbios_config.o (.text.ClockP_getSystemTickPeriod)
                  0001cfde    00000004     ti_sysbios_config.o (.text.ClockP_isActive)
                  0001cfe2    00000004     ti_sysbios_config.o (.text.ClockP_setTimeout)
                  0001cfe6    00000004     maclib_secure_cc13x4_tirtos7.a : mac_mgmt.c.o (.text.MAC_RandomByte)
                  0001cfea    00000004     driverlib.lib : ddi.c.obj (.text.NOROM_DDI32RegWrite)
                  0001cfee    00000004     rf_multiMode_cc13x4.a : rfc.c.cc13x4.ticlang.o (.text.NOROM_RFCOverrideUpdate)
                  0001cff2    00000004     maclib_osal_tirtos7_cc13x4_26x4.a : osal_port.c.o (.text.OsalPort_free)
                  0001cff6    00000004                                       : osal_port.c.o (.text.OsalPort_malloc)
                  0001cffa    00000004     drivers_cc13x4.a : PowerCC26X2_helpers.c.obj (.text.PowerCC26X2_oscClockSourceGet)
                  0001cffe    00000004                      : PowerCC26X2_helpers.c.obj (.text.PowerCC26X2_oschfSwitchToRcosc)
                  0001d002    00000004                      : PowerCC26X2_helpers.c.obj (.text.PowerCC26X2_setPeriphDeepSleepEnable)
                  0001d006    00000004                      : PowerCC26X2_helpers.c.obj (.text.PowerCC26X2_sysCtrlGetResetSource)
                  0001d00a    00000004                      : PowerCC26X2_helpers.c.obj (.text.PowerCC26X2_sysCtrlIdle)
                  0001d00e    00000004                      : PowerCC26X2_helpers.c.obj (.text.PowerCC26X2_sysCtrlUpdateVoltageRegulator)
                  0001d012    00000004                      : PowerCC26X2_helpers.c.obj (.text.PowerCC26X2_turnOnXosc)
                  0001d016    00000004     rf_multiMode_cc13x4.a : RFCC26X2_multiMode.c.cc13x4.ticlang.o (.text.RF_defaultExecutionPolicy)
                  0001d01a    00000004     ti_sysbios_config.o (.text.ResetISR)
                  0001d01e    00000004     drivers_cc13x4.a : RingBuf.c.obj (.text.RingBuf_getCount)
                  0001d022    00000004     ti_sysbios_config.o (.text.SemaphoreP_post)
                  0001d026    00000004     ssf.o (.text.Ssf_malloc)
                  0001d02a    00000004     ti_sysbios_config.o (.text.SwiP_restore)
                  0001d02e    00000004     drivers_cc13x4.a : TRNGCC26XX.c.obj (.text.TRNG_generateEntropy)
                  0001d032    00000004     maclib_osal_tirtos7_cc13x4_26x4.a : util_timer.c.o (.text.UtilTimer_isActive)
                  0001d036    00000004                                       : util_timer.c.o (.text.UtilTimer_start)
                  0001d03a    00000004                                       : util_timer.c.o (.text.UtilTimer_stop)
                  0001d03e    00000004                                       : mac_util.c.o (.text.Util_parseUint16)
                  0001d042    00000004                                       : mac_util.c.o (.text.Util_parseUint32)
                  0001d046    00000002     --HOLE-- [fill = 0]
                  0001d048    00000004     libclang_rt.builtins.a : aeabi_memcpy.S.obj (.text.__aeabi_memcpy)
                  0001d04c    00000004     ti_sysbios_config.o (.text._system_post_cinit)
                  0001d050    00000004     ti_sysbios_config.o (.text._system_pre_init)
                  0001d054    00000004     drivers_cc13x4.a : PowerCC26X2.c.obj (.text.configureRFCoreClocks)
                  0001d058    00000004     maclib_secure_cc13x4_tirtos7.a : mac_mgmt.c.o (.text.macBcTimerHandler)
                  0001d05c    00000004                                    : mac_data.c.o (.text.macDataTxDelayCallback)
                  0001d060    00000004                                    : mac_device.c.o (.text.macPanConflictComplete)
                  0001d064    00000004                                    : mac_hl_patch.c.o (.text.macPibCheckByPatch)
                  0001d068    00000004                                    : mac_radio.c.o (.text.macRadioRandomByte)
                  0001d06c    00000004                                    : mac_hl_patch.c.o (.text.macRxBackoffHandler)
                  0001d070    00000004                                    : mac_symbol_timer.c.o (.text.macSymbolTimerPwrNotify)
                  0001d074    00000004                                    : mac_symbol_timer.c.o (.text.macSymbolTimerReset)
                  0001d078    00000004                                    : mac_tx.c.o (.text.macTxAckIsr)
                  0001d07c    00000004     drivers_cc13x4.a : PowerCC26X2.c.obj (.text.nopResourceHandler)
                  0001d080    00000004     maclib_osal_tirtos7_cc13x4_26x4.a : osal_port.c.o (.text.osalHeapIsBlockingFxn)
                  0001d084    00000002     ti_sysbios_config.o (.text.ti_sysbios_runtime_System_exitSpin)

__llvm_prf_cnts 
*          0    20000000    00000000     UNINITIALIZED

__llvm_prf_bits 
*          0    20000000    00000000     UNINITIALIZED

.TI.bound:dmaUart1RxControlTableEntry 
*          0    20000450    00000010     UNINITIALIZED
                  20000450    00000010     ti_drivers_config.o (.TI.bound:dmaUart1RxControlTableEntry)

.TI.bound:dmaUart1TxControlTableEntry 
*          0    20000460    00000010     UNINITIALIZED
                  20000460    00000010     ti_drivers_config.o (.TI.bound:dmaUart1TxControlTableEntry)

.args      0    0001d088    00000008     
                  0001d088    00000008     --HOLE-- [fill = 0]

.bss.1     0    20000000    00000450     UNINITIALIZED
                  20000000    000002c0     rf_multiMode_cc13x4.a : RFCC26X2_multiMode.c.cc13x4.ticlang.o (.bss.RF_cmdPool)
                  200002c0    00000170     (.common:uart2CC26X2Objects)
                  20000430    00000020     cui.o (.bss.gMenuResources)

.bss.2     0    20000470    0000410d     UNINITIALIZED
                  20000470    00001400     (.common:controlTaskStack)
                  20001870    00000800     (.common:sensorTaskStack)
                  20002070    00000800     (.common:tBuffer)
                  20002870    00000200     cui.o (.bss.gTxBuff)
                  20002a70    00000200     (.common:ti_sysbios_knl_Idle_taskStack)
                  20002c70    000001a5     (.common:menuBuff)
                  20002e15    00000001     nvocmp.o (.bss.NVOCMP_failW)
                  20002e16    00000002     cui.o (.bss.gCursorInfo.0)
                  20002e18    00000168     (.common:taskTbl)
                  20002f80    00000100     maclib_secure_cc13x4_tirtos7.a : mac_radio.c.o (.bss.RF_object)
                  20003080    000000fc     (.common:ti_sysbios_family_arm_v8m_Hwi_dispatchTable)
                  2000317c    000000fa     (.common:enhancedAckBuf)
                  20003276    00000002     cui.o (.bss.gCursorInfo.1)
                  20003278    000000c0     (.common:gpioCallbackFunctions)
                  20003338    000000c0     (.common:gpioUserArgs)
                  200033f8    000000b8     (.common:LEDObjects)
                  200034b0    0000008c     (.common:timerCC26XXObjects)
                  2000353c    00000088     (.common:FH_hnd)
                  200035c4    00000088     (.common:macPib)
                  2000364c    00000004     nvocmp.o (.bss.NVOCMP_nvsHandle)
                  20003650    00000068     rf_multiMode_cc13x4.a : RFCC26X2_multiMode.c.cc13x4.ticlang.o (.bss.RF_ratModule)
                  200036b8    00000064     (.common:aesccmCC26X4Objects)
                  2000371c    00000004     nvocmp.o (.bss.NVOCMP_voltCheckFptr)
                  20003720    00000060     (.common:ti_sysbios_knl_ClockSupport_timerStruct)
                  20003780    00000058     (.common:RF_cmdIEEERx)
                  200037d8    00000058     (.common:controlTask)
                  20003830    00000058     (.common:sensorTask)
                  20003888    00000058     (.common:ti_sysbios_knl_Idle_taskStruct)
                  200038e0    00000054     (.common:macScan)
                  20003934    00000050     cui.o (.bss.gClientsSemStruct)
                  20003984    00000050     cui.o (.bss.gMenuSemStruct)
                  200039d4    00000050     cui.o (.bss.gStatusSemStruct)
                  20003a24    00000050     cui.o (.bss.gUartSemStruct)
                  20003a74    00000050     (.common:CryptoResourceCC26XX_accessSemaphore)
                  20003ac4    00000050     (.common:CryptoResourceCC26XX_operationSemaphore)
                  20003b14    0000004c     (.common:cuiMultiMenuData)
                  20003b60    0000004c     (.common:gptimerCC26XXObjects)
                  20003bac    00000048     (.common:ButtonObjects)
                  20003bf4    00000044     rf_multiMode_cc13x4.a : RFCC26X2_multiMode.c.cc13x4.ticlang.o (.bss.RF_clkInactivityObj)
                  20003c38    00000044                           : RFCC26X2_multiMode.c.cc13x4.ticlang.o (.bss.RF_clkPowerUpObj)
                  20003c7c    00000044     ssf.o (.bss.pollClkStruct)
                  20003cc0    00000044     ssf.o (.bss.readingClkStruct)
                  20003d04    00000044     ssf.o (.bss.scanBackoffClkStruct)
                  20003d48    00000040     (.common:macSecurityPib)
                  20003d88    0000003c     rf_multiMode_cc13x4.a : RFCC26X2_multiMode.c.cc13x4.ticlang.o (.bss.RF_swiHwObj)
                  20003dc4    00000038     (.common:macDeviceAction1)
                  20003dfc    00000034     (.common:dcBucket)
                  20003e30    00000034     (.common:macBeaconDevice)
                  20003e64    00000030     (.common:RF_cmdPropRadioDivSetup)
                  20003e94    00000030     (.common:RF_cmdPropRxAdv)
                  20003ec4    00000030     (.common:macMgmtAction1)
                  20003ef4    00000030     (.common:macSrcExtAddrList)
                  20003f24    00000030     (.common:ti_sysbios_knl_Swi_readyQs)
                  20003f54    00000030     (.common:ti_sysbios_knl_Task_readyQs)
                  20003f84    0000002e     (.common:NVOCMP_nvHandle)
                  20003fb2    00000002     maclib_secure_cc13x4_tirtos7.a : mac_hl_patch.c.o (.bss.macEdScanISR.scanDurationMs)
                  20003fb4    0000002c     nvocmp.o (.bss.NVOCMP_gPosixMutex)
                  20003fe0    0000002c     (.common:macDevice)
                  2000400c    00000024     (.common:controlTaskParam)
                  20004030    00000024     (.common:sensorTaskParam)
                  20004054    00000020     ti_drivers_config.o (.bss.uart2RxRingBuffer0)
                  20004074    00000020     ti_drivers_config.o (.bss.uart2TxRingBuffer0)
                  20004094    00000020     (.common:RF_cmdIEEECsma)
                  200040b4    00000020     (.common:RF_cmdPropTxAdv)
                  200040d4    00000020     (.common:RF_cmdRadioSetup)
                  200040f4    00000020     (.common:RF_params)
                  20004114    00000020     (.common:macBeacon)
                  20004134    00000020     (.common:udmaCC26XXObject)
                  20004154    0000001c     api_mac.o (.bss.appSemHandle)
                  20004170    0000001c     drivers_cc13x4.a : GPIOCC26X4.c.obj (.bss.gpioHwi)
                  2000418c    0000001c     ti_sysbios_config.o (.bss.sem)
                  200041a8    0000001c     (.common:BIOS_heapCallbackObject)
                  200041c4    0000001c     (.common:BIOS_rtsGate)
                  200041e0    0000001c     (.common:CryptoResourceCC26XX_hwi)
                  200041fc    0000001c     (.common:RF_cmdPropCs)
                  20004218    0000001c     (.common:RF_cmdPropCsSlotted)
                  20004234    0000001c     (.common:control_task_InfoToHub_params)
                  20004250    0000001c     (.common:macReset)
                  2000426c    0000001c     (.common:macSemHandle)
                  20004288    0000001c     (.common:macSrcShortAddrList)
                  200042a4    00000018     (.common:RF_cmdFsRx)
                  200042bc    00000018     (.common:RF_cmdFsTx)
                  200042d4    00000018     (.common:RF_cmdIEEETx)
                  200042ec    00000018     (.common:macScanAction)
                  20004304    00000014     maclib_secure_cc13x4_tirtos7.a : mac_symbol_timer.c.o (.bss.macSymbolPwrNotifyObj)
                  20004318    00000014     drivers_cc13x4.a : Random.c.obj (.bss.state)
                  2000432c    00000014     (.common:RF_cmdRxAckCmd)
                  20004340    00000014     (.common:macAckDbg)
                  20004354    00000014     (.common:macDeviceAction2)
                  20004368    00000014     (.common:macMgmtAction2)
                  2000437c    00000012     (.common:macStatistics)
                  2000438e    00000011     ssf.o (.bss.setChMaskAction.channelMask)
                  2000439f    00000010     ssf.o (.bss.setNwkKeyAction.defaultNwkKey)
                  200043af    00000001     macTask.o (.bss._macTaskId)
                  200043b0    00000010     (.common:macData)
                  200043c0    00000010     (.common:macDataTxDelay)
                  200043d0    00000010     (.common:macFrmFilter)
                  200043e0    00000010     (.common:macRxOutputIeee)
                  200043f0    0000000f     (.common:control_Task_dev_info)
                  200043ff    00000001     main.o (.bss._macTaskId)
                  20004400    0000000c     nvocmp.o (.bss.NVOCMP_itemBuffer)
                  2000440c    0000000c     nvocmp.o (.bss.NVOCMP_nvsAttrs)
                  20004418    0000000c     sensor.o (.bss.configSettings)
                  20004424    0000000c     (.common:coexMetricsStruct)
                  20004430    0000000c     (.common:macMain)
                  2000443c    0000000c     (.common:macRxOutputSubG)
                  20004448    00000008     cui.o (.bss.gClientHandles)
                  20004450    00000008     cui.o (.bss.gMaxStatusLines)
                  20004458    00000008     cui.o (.bss.gSemParams)
                  20004460    00000008     cui.o (.bss.gStatusLineResources)
                  20004468    00000008     (.common:ApiMac_extAddr)
                  20004470    00000008     (.common:coexOverrideUseCases)
                  20004478    00000008     (.common:macRxDataEntryQueue)
                  20004480    00000005     cui.o (.bss.gUartRxBuffer)
                  20004485    00000001     cui.o (.bss.gCursorActive)
                  20004486    00000002     maclib_secure_cc13x4_tirtos7.a : mac_radio.c.o (.bss.macSavedPanID)
                  20004488    00000004     cui.o (.bss.gClientsSem)
                  2000448c    00000004     ssf.o (.bss.gGreenLedHandle)
                  20004490    00000004     ssf.o (.bss.gLeftButtonHandle)
                  20004494    00000004     cui.o (.bss.gMenuSem)
                  20004498    00000004     ssf.o (.bss.gRedLedHandle)
                  2000449c    00000004     ssf.o (.bss.gRightButtonHandle)
                  200044a0    00000004     cui.o (.bss.gStatusSem)
                  200044a4    00000004     cui.o (.bss.gUartSem)
                  200044a8    00000004     cui.o (.bss.gpCurrMenu)
                  200044ac    00000004     cui.o (.bss.gpMainMenu)
                  200044b0    00000004     ssf.o (.bss.pollClkHandle)
                  200044b4    00000004     ssf.o (.bss.readingClkHandle)
                  200044b8    00000004     ssf.o (.bss.scanBackoffClkHandle)
                  200044bc    00000004     sensor.o (.bss.sem)
                  200044c0    00000004     ssf.o (.bss.sensorSem)
                  200044c4    00000004     (.common:AESCCM_handle)
                  200044c8    00000004     (.common:HEAPMGR_SIZE)
                  200044cc    00000004     (.common:PowerCC26XX_swiKey)
                  200044d0    00000004     (.common:PowerCC26XX_taskKey)
                  200044d4    00000004     (.common:dcCritical)
                  200044d8    00000004     (.common:dcLimited)
                  200044dc    00000004     (.common:dcPtr)
                  200044e0    00000004     (.common:dcRegulated)
                  200044e4    00000004     (.common:dcTimeUsed)
                  200044e8    00000004     (.common:macAddrLsb)
                  200044ec    00000004     (.common:macAddrMsb)
                  200044f0    00000004     (.common:macCryptoDrvTblPtr)
                  200044f4    00000004     (.common:macPhyTxPower)
                  200044f8    00000004     (.common:macPrevPeriodRatCount)
                  200044fc    00000004     (.common:macRfDrvTblPtr)
                  20004500    00000004     (.common:macRxSymbol)
                  20004504    00000004     (.common:macSymbolTimerRollover)
                  20004508    00000004     (.common:macSymbolTimerTrigger)
                  2000450c    00000004     (.common:macThread)
                  20004510    00000004     (.common:macTimerActive)
                  20004514    00000004     (.common:macTxTimestamp)
                  20004518    00000004     (.common:pClockHandleEDScan)
                  2000451c    00000004     (.common:pMacRadioConfig)
                  20004520    00000004     (.common:pMaxPower)
                  20004524    00000004     (.common:pRfMode)
                  20004528    00000004     (.common:pRfPowerTable)
                  2000452c    00000004     (.common:rxRadioBufferPtr)
                  20004530    00000004     (.common:sensorStatusLine)
                  20004534    00000004     (.common:ssfCuiHndl)
                  20004538    00000004     (.common:ti_sysbios_family_arm_v8m_cc26x4_Timer_funcHookCH1)
                  2000453c    00000004     (.common:ti_sysbios_family_arm_v8m_cc26x4_Timer_funcHookCH2)
                  20004540    00000004     (.common:ti_sysbios_knl_Task_defaultStackHeap)
                  20004544    00000004     (.common:ti_sysbios_runtime_System_atexitHandlers)
                  20004548    00000004     (.common:timerAlignedQ)
                  2000454c    00000004     (.common:timerUnalignedQ)
                  20004550    00000002     ssf.o (.bss.setPanIdAction.panId)
                  20004552    00000002     (.common:conv)
                  20004554    00000002     (.common:macRxDataEntryOffset)
                  20004556    00000002     (.common:macTxCsmaBackoffDelay)
                  20004558    00000002     (.common:rxCmdHandle)
                  2000455a    00000002     (.common:txCmdHandle)
                  2000455c    00000001     maclib_secure_cc13x4_tirtos7.a : mac_symbol_timer.c.o (.bss.macSymbolTimerEvents)
                  2000455d    00000001                                    : mac_radio.c.o (.bss.radioInitFlag)
                  2000455e    00000001     (.common:AppTaskId)
                  2000455f    00000001     (.common:NVOCMP_size)
                  20004560    00000001     (.common:appTaskId)
                  20004561    00000001     (.common:dcStatus)
                  20004562    00000001     (.common:gAction)
                  20004563    00000001     (.common:lastRxPriority)
                  20004564    00000001     (.common:lastTxPriority)
                  20004565    00000001     (.common:macAckTxActive)
                  20004566    00000001     (.common:macMgmt)
                  20004567    00000001     (.common:macPanCoordinator)
                  20004568    00000001     (.common:macPhyChannel)
                  20004569    00000001     (.common:macPwr)
                  2000456a    00000001     (.common:macRxActive)
                  2000456b    00000001     (.common:macRxEnableFlags)
                  2000456c    00000001     (.common:macRxFilter)
                  2000456d    00000001     (.common:macRxOutgoingAckFlag)
                  2000456e    00000001     (.common:macSpecUsecsPerSymbol)
                  2000456f    00000001     (.common:macSrcResIndex)
                  20004570    00000001     (.common:macSymbolTimerImpending)
                  20004571    00000001     (.common:macTaskId)
                  20004572    00000001     (.common:macTxActive)
                  20004573    00000001     (.common:macTxBe)
                  20004574    00000001     (.common:macTxGpInterframeDelay)
                  20004575    00000001     (.common:macTxType)
                  20004576    00000001     (.common:macUnitBackoffPeriod)
                  20004577    00000001     (.common:nvsCC26XXObjects)
                  20004578    00000001     (.common:rxFhRsl)
                  20004579    00000001     (.common:rxPromiscuousMode)
                  2000457a    00000001     (.common:rxSeqNum)
                  2000457b    00000001     (.common:txAckReq)
                  2000457c    00000001     (.common:txSeqn)

MODULE SUMMARY

       Module                                           code     ro data   rw data
       ------                                           ----     -------   -------
    .\application\
       control_task.o                                   604      0         5309   
       main.o                                           306      8         2296   
    +--+------------------------------------------------+--------+---------+---------+
       Total:                                           910      8         7605   
                                                                                  
    .\application\cui\
       cui.o                                            4818     367       1478   
    +--+------------------------------------------------+--------+---------+---------+
       Total:                                           4818     367       1478   
                                                                                  
    .\application\sensor\
       ssf.o                                            4748     565       527    
       sensor.o                                         3156     70        202    
    +--+------------------------------------------------+--------+---------+---------+
       Total:                                           7904     635       729    
                                                                                  
    .\application\sensor\link_controller\
       jdllc.o                                          4190     57        184    
    +--+------------------------------------------------+--------+---------+---------+
       Total:                                           4190     57        184    
                                                                                  
    .\software_stack\ti15_4stack\mac\
       api_mac.o                                        2276     0         48     
       macTask.o                                        1236     19        52     
    +--+------------------------------------------------+--------+---------+---------+
       Total:                                           3512     19        100    
                                                                                  
    .\software_stack\ti15_4stack\mac\mac_settings\
       mac_settings.o                                   558      0         460    
       mac_cfg.o                                        0        552       208    
       mac_user_config.o                                40       204       0      
    +--+------------------------------------------------+--------+---------+---------+
       Total:                                           598      756       668    
                                                                                  
    .\software_stack\ti15_4stack\nv\
       nvocmp.o                                         7878     0         2174   
       crc.o                                            34       256       0      
    +--+------------------------------------------------+--------+---------+---------+
       Total:                                           7912     256       2174   
                                                                                  
    .\syscfg\
       ti_drivers_config.o                              232      296       18029  
       ti_sysbios_config.o                              12674    720       1810   
       ti_radio_config.o                                0        172       160    
       ti_devices_config.o                              0        124       0      
    +--+------------------------------------------------+--------+---------+---------+
       Total:                                           12906    1312      19999  
                                                                                  
    C:/ti/simplelink_cc13xx_cc26xx_sdk_7_40_00_77/kernel/tirtos7/packages/ti/sysbios/lib/ticlang/m33f/sysbios.a
       Hwi_asm_gcc.s.obj                                316      0         0      
       Hwi_asm_switch_gcc.s.obj                         126      0         0      
       TaskSupport_asm_gcc.s.obj                        84       0         0      
       boot_cortex_m.c.obj                              52       0         0      
    +--+------------------------------------------------+--------+---------+---------+
       Total:                                           578      0         0      
                                                                                  
    C:/ti/simplelink_cc13xx_cc26xx_sdk_7_40_00_77/source/ti/devices/cc13x4_cc26x4/driverlib/bin/ticlang/driverlib.lib
       setup_rom.c.obj                                  1104     0         0      
       prcm.c.obj                                       468      84        0      
       interrupt.c.obj                                  296      0         252    
       aes.c.obj                                        436      0         0      
       osc.c.obj                                        384      0         32     
       setup.c.obj                                      412      0         0      
       sys_ctrl.c.obj                                   408      0         0      
       chipinfo.c.obj                                   224      0         0      
       uart.c.obj                                       80       0         0      
       trng.c.obj                                       76       0         0      
       ddi.c.obj                                        74       0         0      
       udma.c.obj                                       70       0         0      
       aux_sysif.c.obj                                  56       8         0      
       aon_batmon.c.obj                                 40       0         0      
       aon_event.c.obj                                  40       0         0      
       timer.c.obj                                      26       0         0      
       vims.c.obj                                       26       0         0      
       cpu.c.obj                                        22       0         0      
       aon_rtc.c.obj                                    20       0         0      
       ioc.c.obj                                        16       0         0      
    +--+------------------------------------------------+--------+---------+---------+
       Total:                                           4278     92        284    
                                                                                  
    C:/ti/simplelink_cc13xx_cc26xx_sdk_7_40_00_77/source/ti/drivers/lib/ticlang/m33f/drivers_cc13x4.a
       PowerCC26X2.c.obj                                1838     104       380    
       UART2CC26X2.c.obj                                2264     21        0      
       AESCCMCC26X4.c.obj                               2056     0         1      
       UART2.c.obj                                      1636     36        0      
       TRNGCC26XX.c.obj                                 980      0         104    
       GPTimerCC26XX.c.obj                              910      36        0      
       NVSCC26XX.c.obj                                  890      40        12     
       PowerCC26X2_calibrateRCOSC.c.obj                 836      0         0      
       Button.c.obj                                     702      30        0      
       LED.c.obj                                        706      8         0      
       GPIOCC26X4.c.obj                                 400      0         29     
       TimerCC26XX.c.obj                                392      12        0      
       PowerCC26X2_helpers.c.obj                        366      0         0      
       PowerCC26X2_calibrateRCOSC_helpers.c.obj         364      0         0      
       GPIOCC26XX.c.obj                                 330      0         0      
       RingBuf.c.obj                                    300      0         0      
       CryptoResourceCC26XX.c.obj                       98       0         189    
       Timer.c.obj                                      244      12        0      
       List.c.obj                                       206      0         0      
       Random.c.obj                                     164      12        20     
       StructRingBuf.c.obj                              194      0         0      
       PWM.c.obj                                        166      24        1      
       UDMACC26XX.c.obj                                 166      0         0      
       NVS.c.obj                                        160      4         1      
       GPIO.c.obj                                       88       0         0      
       CryptoUtils.c.obj                                78       0         0      
       AESCCM.c.obj                                     42       16        0      
       CryptoKeyPlaintext.c.obj                         24       0         0      
       TRNG.c.obj                                       0        20        0      
    +--+------------------------------------------------+--------+---------+---------+
       Total:                                           16600    375       737    
                                                                                  
    C:/ti/simplelink_cc13xx_cc26xx_sdk_7_40_00_77/source/ti/drivers/rf/lib/ticlang/m33f/rf_multiMode_cc13x4.a
       RFCC26X2_multiMode.c.cc13x4.ticlang.o            10070    40        1316   
       rf_patch_cpe_multi_protocol.c.cc13x4.ticlang.o   152      1576      1      
       rfc.c.cc13x4.ticlang.o                           268      0         0      
    +--+------------------------------------------------+--------+---------+---------+
       Total:                                           10490    1616      1317   
                                                                                  
    C:/ti/simplelink_cc13xx_cc26xx_sdk_7_40_00_77/source/ti/ti154stack/lib/ticlang/m33f/maclib_osal_tirtos7_cc13x4_26x4.a
       osal_port.c.o                                    1686     0         388    
       util_timer.c.o                                   106      0         0      
       osal_port_timers.c.o                             64       0         16     
       mac_util.c.o                                     78       0         0      
    +--+------------------------------------------------+--------+---------+---------+
       Total:                                           1934     0         404    
                                                                                  
    C:/ti/simplelink_cc13xx_cc26xx_sdk_7_40_00_77/source/ti/ti154stack/lib/ticlang/m33f/maclib_secure_cc13x4_tirtos7.a
       mac_hl_patch.c.o                                 7454     0         12     
       mac_radio_tx.c.o                                 4736     0         14     
       mac.c.o                                          3218     0         193    
       mac_mgmt.c.o                                     3404     0         0      
       mac_rx.c.o                                       3272     8         40     
       mac_tx.c.o                                       2996     0         43     
       mac_radio.c.o                                    2456     40        323    
       mac_data.c.o                                     2066     0         0      
       mac_device.c.o                                   1920     0         0      
       hmac_global.c.o                                  0        703       1186   
       mac_security_pib.c.o                             1456     0         0      
       mac_symbol_timer.c.o                             1070     0         39     
       mac_timer.c.o                                    1050     0         0      
       mac_autopend.c.o                                 858      0         4      
       mac_duty_cycle.c.o                               736      16        98     
       mac_scan.c.o                                     850      0         0      
       mac_main.c.o                                     628      0         0      
       mac_pib.c.o                                      616      0         0      
       mac_rx_onoff.c.o                                 496      0         1      
       mac_ie_build.c.o                                 448      0         0      
       mac_mcu.c.o                                      412      0         4      
       mac_low_level.c.o                                180      0         32     
       mac_beacon_device.c.o                            208      0         0      
       mac_ie_parse.c.o                                 208      0         0      
       mac_coord.c.o                                    144      0         0      
       mac_pwr.c.o                                      138      0         1      
       fh_global.c.o                                    0        0         136    
       mac_beacon.c.o                                   108      0         0      
       saddr.c.o                                        96       0         0      
       mac_sleep.c.o                                    92       0         0      
       lmac_global.c.o                                  0        0         11     
    +--+------------------------------------------------+--------+---------+---------+
       Total:                                           41316    767       2137   
                                                                                  
    C:\ti\ccs1270\ccs\tools\compiler\ti-cgt-armllvm_3.2.2.LTS\lib\armv8m.main-ti-none-eabihf/c/libc.a
       strtol.c.obj                                     312      0         0      
       aeabi_ctype.S.obj                                0        257       0      
       copy_decompress_lzss.c.obj                       112      0         0      
       autoinit.c.obj                                   56       0         0      
       _lock.c.obj                                      26       0         8      
       args_main.c.obj                                  20       0         0      
       memcpy_t2.S.obj                                  18       0         0      
       copy_zero_init.c.obj                             16       0         0      
       copy_decompress_none.c.obj                       14       0         0      
       memset_t2.S.obj                                  14       0         0      
       aeabi_portable.c.obj                             8        0         4      
    +--+------------------------------------------------+--------+---------+---------+
       Total:                                           596      257       12     
                                                                                  
    C:\ti\ccs1270\ccs\tools\compiler\ti-cgt-armllvm_3.2.2.LTS\lib\clang/15.0.7/lib/armv8m.main-ti-none-eabihf/libclang_rt.builtins.a
       udivmoddi4.S.obj                                 176      0         0      
       ashldi3.S.obj                                    30       0         0      
       aeabi_uldivmod.S.obj                             20       0         0      
       aeabi_memset.S.obj                               18       0         0      
       aeabi_memcpy.S.obj                               4        0         0      
       aeabi_div0.c.obj                                 2        0         0      
    +--+------------------------------------------------+--------+---------+---------+
       Total:                                           250      0         0      
                                                                                  
       Stack:                                           0        0         20480  
       Linker Generated:                                0        898       0      
    +--+------------------------------------------------+--------+---------+---------+
       Grand Total:                                     118792   7415      58308  


LINKER GENERATED COPY TABLES

__TI_cinit_table @ 0001eca4 records: 6, size/record: 8, table size: 48
	.data: load addr=0001e950, load size=0000031e bytes, run addr=20004600, run size=00000c4f bytes, compression=lzss
	.TI.bound:dmaUart1RxControlTableEntry: load addr=0001ec7c, load size=00000008 bytes, run addr=20000450, run size=00000010 bytes, compression=zero_init
	.TI.bound:dmaUart1TxControlTableEntry: load addr=0001ec84, load size=00000008 bytes, run addr=20000460, run size=00000010 bytes, compression=zero_init
	.bss.1: load addr=0001ec8c, load size=00000008 bytes, run addr=20000000, run size=00000450 bytes, compression=zero_init
	.bss.2: load addr=0001ec94, load size=00000008 bytes, run addr=20000470, run size=0000410d bytes, compression=zero_init
	.ramVecs: load addr=0001ec9c, load size=00000008 bytes, run addr=20005300, run size=000001fc bytes, compression=zero_init


LINKER GENERATED HANDLER TABLE

__TI_handler_table @ 0001ec70 records: 3, size/record: 4, table size: 12
	index: 0, handler: __TI_zero_init
	index: 1, handler: __TI_decompress_lzss
	index: 2, handler: __TI_decompress_none


SEGMENT ATTRIBUTES

    id tag       seg value 
    -- ---       --- ----- 
     0 PHA_BOUND 3   (null)
     1 PHA_BOUND 5   (null)


GLOBAL SYMBOLS: SORTED ALPHABETICALLY BY Name 

address   name                                                             
-------   ----                                                             
0001ccb9  AESCCM_Operation_init                                            
0001c7a1  AESCCM_Params_init                                               
0001c9e1  AESCCM_close                                                     
0001e850  AESCCM_config                                                    
0001560d  AESCCM_construct                                                 
0001e67c  AESCCM_defaultParams                                             
200044c4  AESCCM_handle                                                    
0001c441  AESCCM_init                                                      
0001ce89  AESCCM_oneStepDecrypt                                            
0001ce8f  AESCCM_oneStepEncrypt                                            
0001c7b1  AESCCM_open                                                      
0001b48d  AESCCM_setLengths                                                
000178ab  AESCCM_setNonce                                                  
0001c079  AESReadAuthenticationModeIV                                      
0001c091  AESWriteKey3                                                     
0001912d  ApiMac_convertCapabilityInfo                                     
20004468  ApiMac_extAddr                                                   
20005222  ApiMac_gpOffsetToms                                              
00014151  ApiMac_init                                                      
0001cf97  ApiMac_mcpsDataReq                                               
0001cf9b  ApiMac_mlmeAssociateReq                                          
0001cf9f  ApiMac_mlmeDisassociateReq                                       
0001cfa3  ApiMac_mlmeGetReqArray                                           
0001cfa7  ApiMac_mlmeGetReqBool                                            
0001cfab  ApiMac_mlmeGetReqUint16                                          
0001cfaf  ApiMac_mlmeGetReqUint32                                          
0001cfb3  ApiMac_mlmePollReq                                               
0001cfb7  ApiMac_mlmeScanReq                                               
00010357  ApiMac_mlmeSetReqArray                                           
0001c455  ApiMac_mlmeSetReqBool                                            
0001c469  ApiMac_mlmeSetReqUint16                                          
0001c47d  ApiMac_mlmeSetReqUint8                                           
0001cfbb  ApiMac_mlmeSetSecurityReqArray                                   
0001cfbf  ApiMac_mlmeSetSecurityReqStruct                                  
0001c491  ApiMac_mlmeSetSecurityReqUint16                                  
0001cfc3  ApiMac_mlmeSyncReq                                               
20005223  ApiMac_mtDataReqTxOptionGp                                       
00000e55  ApiMac_processIncoming                                           
0001cfc7  ApiMac_randomByte                                                
0001cb15  ApiMac_registerCallbacks                                         
0001cfcb  ApiMac_secAddDevice                                              
0001cfcf  ApiMac_secAddKeyInitFrameCounter                                 
0001cfd3  ApiMac_secDeleteDevice                                           
2000455e  AppTaskId                                                        
20004e18  BIOS_Module_state                                                
0001820d  BIOS_atExitFunc                                                  
000172b9  BIOS_exitFunc                                                    
200041a8  BIOS_heapCallbackObject                                          
0001cb21  BIOS_linkedWithIncorrectBootLibrary                              
00000e53  BIOS_nullFunc                                                    
200041c4  BIOS_rtsGate                                                     
0001bacd  BIOS_rtsLock                                                     
0001bf3d  BIOS_rtsUnlock                                                   
0001cb2d  BIOS_start                                                       
00010c7d  BIOS_startFunc                                                   
0001c391  Board_init                                                       
00001f9b  Board_initHook                                                   
00017311  Board_sendExtFlashByte                                           
00014951  Board_shutDownExtFlash                                           
20003bac  ButtonObjects                                                    
0001c7c1  Button_Params_init                                               
0001e69c  Button_config                                                    
0001dda3  Button_count                                                     
0001e578  Button_defaultParams                                             
00016e41  Button_gpioCallbackFxn                                           
0001cfd7  Button_init                                                      
0000e9e9  Button_open                                                      
0001ce95  Button_setCallback                                               
000115d5  CUI_clientOpen                                                   
0001ccc3  CUI_clientParamsInit                                             
00006fa5  CUI_init                                                         
0001abbd  CUI_menuActionBack                                               
00011945  CUI_menuActionHelp                                               
0001ce9b  CUI_paramsInit                                                   
00001a4d  CUI_processMenuUpdate                                            
0000615d  CUI_registerMenu                                                 
00006bb5  CUI_statusLinePrintf                                             
00008c75  CUI_statusLineResourceRequest                                    
0001cccd  ClockP_Params_init                                               
000140c9  ClockP_construct                                                 
0000f3a5  ClockP_create                                                    
0001a7c9  ClockP_delete                                                    
0001bba1  ClockP_destruct                                                  
0001c65d  ClockP_getCpuFreq                                                
0001cfdb  ClockP_getSystemTickPeriod                                       
0001afb5  ClockP_getSystemTicks                                            
00017c1d  ClockP_getTimeout                                                
0001cfdf  ClockP_isActive                                                  
0001cfe3  ClockP_setTimeout                                                
0001c3a7  ClockP_start                                                     
0001cea1  ClockP_stop                                                      
0001cb39  CryptoKeyPlaintext_initBlankKey                                  
0001cb45  CryptoKeyPlaintext_initKey                                       
20003a74  CryptoResourceCC26XX_accessSemaphore                             
000165c5  CryptoResourceCC26XX_constructRTOSObjects                        
200041e0  CryptoResourceCC26XX_hwi                                         
20003ac4  CryptoResourceCC26XX_operationSemaphore                          
00019b7d  CryptoUtils_buffersMatch                                         
0001c0a9  CryptoUtils_memset                                               
2000353c  FH_hnd                                                           
0001e6ac  GPIO_config                                                      
0001c0c1  GPIO_disableInt                                                  
000143e5  GPIO_hwiIntFxn                                                   
0000c9e5  GPIO_init                                                        
0001e67b  GPIO_pinLowerBound                                               
0001e84f  GPIO_pinUpperBound                                               
0001bbbd  GPIO_read                                                        
00019169  GPIO_resetConfig                                                 
0001bbd9  GPIO_setCallback                                                 
0001cea7  GPIO_setConfig                                                   
00010801  GPIO_setConfigAndMux                                             
0001a295  GPIO_setInterruptConfig                                          
0001c7d1  GPIO_write                                                       
0001c9ef  GPTimerCC26XX_Params_init                                        
00012aa1  GPTimerCC26XX_close                                              
0001e770  GPTimerCC26XX_config                                             
0001b6cd  GPTimerCC26XX_configureDebugStall                                
0001ad0d  GPTimerCC26XX_enableInterrupt                                    
0001cead  GPTimerCC26XX_getArg                                             
00011029  GPTimerCC26XX_open                                               
00017c6d  GPTimerCC26XX_registerInterrupt                                  
0001ceb3  GPTimerCC26XX_setArg                                             
0001cde7  GPTimerCC26XX_setLoadValue                                       
000178fd  GPTimerCC26XX_start                                              
00017469  GPTimerCC26XX_stop                                               
00019525  GPTimerCC26XX_unregisterInterrupt                                
00016ef1  HEAPMGR_GETLARGESTFREEBUF                                        
200044c8  HEAPMGR_SIZE                                                     
0001c7e1  HwiP_Params_init                                                 
000105b1  HwiP_construct                                                   
00014d91  HwiP_destruct                                                    
0001cb51  HwiP_disable                                                     
000189e9  HwiP_enableInterrupt                                             
0001c3bd  HwiP_interruptsEnabled                                           
0001c4a5  HwiP_post                                                        
0001ceb9  HwiP_restore                                                     
0001c4b9  HwiP_setFunc                                                     
0001bbf5  HwiP_setPriority                                                 
UNDEFED   ITM_flush                                                        
UNDEFED   ITM_restore                                                      
00018a2b  Jdllc_addSecDevice                                               
2000508a  Jdllc_events                                                     
0001c9fd  Jdllc_getChanMask                                                
0001b0e3  Jdllc_getDefaultKey                                              
00019035  Jdllc_getJoiningPanId                                            
0001cb5d  Jdllc_getPrevProvState                                           
0001cb69  Jdllc_getProvState                                               
0001246f  Jdllc_init                                                       
00018b75  Jdllc_join                                                       
0001e858  Jdllc_keySource                                                  
00002885  Jdllc_process                                                    
0001365b  Jdllc_rejoin                                                     
0001c4cd  Jdllc_securityCheck                                              
0001bf57  Jdllc_securityFill                                               
00012b39  Jdllc_securityInit                                               
00019475  Jdllc_sendDisassociationRequest                                  
0001b6ed  Jdllc_setChanMask                                                
00018a6d  Jdllc_setDefaultKey                                              
0001c66f  Jdllc_setJoiningPanId                                            
0001cb75  Jdllc_setPollRate                                                
200033f8  LEDObjects                                                       
0001ca0b  LED_Params_init                                                  
0001e6bc  LED_config                                                       
0001e90f  LED_count                                                        
0001e860  LED_defaultParams                                                
00003d67  LED_init                                                         
0000caf5  LED_open                                                         
00019073  LED_setBrightnessLevel                                           
000190b1  LED_setOff                                                       
0001955d  LED_setOn                                                        
000151a9  LED_startBlinking                                                
0001b4af  LED_stopBlinking                                                 
0001bf71  LED_toggle                                                       
0001c3d3  List_clearList                                                   
0001b4d1  List_get                                                         
0001afdb  List_insert                                                      
0001b107  List_put                                                         
0001b12b  List_putHead                                                     
0001ad35  List_remove                                                      
0001b70d  MAC_AbortScan                                                    
0001bf8b  MAC_CbackCheckPending                                            
0000a4c5  MAC_CbackEvent                                                   
0001bfa5  MAC_CbackQueryRetransmit                                         
0001c0d9  MAC_EnableFH                                                     
00015ec1  MAC_Init                                                         
00015ab1  MAC_InitDevice                                                   
0000fa75  MAC_McpsDataAlloc                                                
00009a1d  MAC_McpsDataReq                                                  
0001ccd7  MAC_MlmeAssociateReq                                             
0001cce1  MAC_MlmeDisassociateReq                                          
0001ad5d  MAC_MlmeGetPointerSecurityReq                                    
00018bb5  MAC_MlmeGetReq                                                   
00009131  MAC_MlmeGetSecurityReq                                           
0001cdef  MAC_MlmePollReq                                                  
000110e1  MAC_MlmeResetReq                                                 
000131c1  MAC_MlmeScanReq                                                  
0000841d  MAC_MlmeSetReq                                                   
00005d11  MAC_MlmeSetSecurityReq                                           
0001cdf7  MAC_MlmeSyncReq                                                  
0001cfe7  MAC_RandomByte                                                   
00016b61  MAC_ResumeReq                                                    
00017cb9  MAC_SrcMatchAckAllPending                                        
00012099  MAC_SrcMatchAddEntry                                             
0001c4e1  MAC_SrcMatchCheckAllPending                                      
0001cb81  MAC_SrcMatchCheckManualAddressTracking                           
000191a5  MAC_SrcMatchCheckResult                                          
00019595  MAC_SrcMatchDeleteEntry                                          
000174bd  MAC_SrcMatchEnable                                               
00018255  MAC_SrcMatchSetDefaultPend                                       
0001c7f1  MAC_SrcMatchSetManualAddressTracking                             
0001a19d  MAC_SrcMatchSetPend                                              
20005226  Main_assertReason                                                
0001c681  Main_excHandler                                                  
20004adc  Main_user1Cfg                                                    
0001a7f5  NOROM_AESReadFromKeyStore                                        
0001a821  NOROM_AESReadTag                                                 
0001c0f1  NOROM_AESSetInitializationVector                                 
0001a2c5  NOROM_AESStartDMAOperation                                       
0001b151  NOROM_AESWaitForIRQFlags                                         
000108c1  NOROM_AESWriteToKeyStore                                         
0001ad85  NOROM_AONBatMonTemperatureGetDegC                                
0001adad  NOROM_AONEventMcuWakeUpSet                                       
0001c4f5  NOROM_AONRTCCurrent64BitValueGet                                 
000195cd  NOROM_AUXSYSIFOpModeChange                                       
0001cdff  NOROM_CPUcpsid                                                   
0001ce07  NOROM_CPUcpsie                                                   
0001cebf  NOROM_CPUdelay                                                   
00014ac1  NOROM_ChipInfo_GetChipType                                       
0001829d  NOROM_ChipInfo_GetHwRevision                                     
0001bc11  NOROM_DDI16BitfieldRead                                          
0001abe7  NOROM_DDI16BitfieldWrite                                         
0001cfeb  NOROM_DDI32RegWrite                                              
0001c801  NOROM_IOCPortConfigureSet                                        
0001536d  NOROM_IntDisable                                                 
00015679  NOROM_IntEnable                                                  
00017d05  NOROM_IntPendClear                                               
0001add5  NOROM_OSCClockSourceGet                                          
00019605  NOROM_OSCClockSourceSet                                          
00016f49  NOROM_OSCHF_AttemptToSwitchToXosc                                
0001a84d  NOROM_OSCHF_SwitchToRcOscTurnOffXosc                             
0001bc2d  NOROM_OSCHF_TurnOnXosc                                           
000191e1  NOROM_OSC_HPOSCRelativeFrequencyOffsetGet                        
0001cb8d  NOROM_OSC_HPOSCRelativeFrequencyOffsetToRFCoreFormatConvert      
0001bc49  NOROM_PRCMDeepSleep                                              
0001b175  NOROM_PRCMPeripheralDeepSleepDisable                             
0001b72d  NOROM_PRCMPeripheralDeepSleepEnable                              
0001b199  NOROM_PRCMPeripheralRunDisable                                   
0001b74d  NOROM_PRCMPeripheralRunEnable                                    
0001b1bd  NOROM_PRCMPeripheralSleepDisable                                 
0001b76d  NOROM_PRCMPeripheralSleepEnable                                  
00019cbd  NOROM_PRCMPowerDomainOff                                         
0001a2f5  NOROM_PRCMPowerDomainOn                                          
00018521  NOROM_PRCMPowerDomainsAllOff                                     
00018565  NOROM_PRCMPowerDomainsAllOn                                      
00016a45  NOROM_RFCAnaDivTxOverride                                        
0001c811  NOROM_RFCCpeIntGetAndClear                                       
00004ee7  NOROM_RFCCpePatchReset                                           
0001b78d  NOROM_RFCDoorbellSendTo                                          
0001c821  NOROM_RFCHwIntGetAndClear                                        
0001b7ad  NOROM_RFCOverrideSearch                                          
0001cfef  NOROM_RFCOverrideUpdate                                          
000182e5  NOROM_RFCSynthPowerDown                                          
00016625  NOROM_SetupAfterColdResetWakeupFromShutDownCfg1                  
0000cd15  NOROM_SetupAfterColdResetWakeupFromShutDownCfg2                  
0000c6a9  NOROM_SetupAfterColdResetWakeupFromShutDownCfg3                  
00016bbd  NOROM_SetupGetTrimForAmpcompCtrl                                 
00016fa1  NOROM_SetupGetTrimForAnabypassValue1                             
0001c509  NOROM_SetupGetTrimForRcOscLfRtuneCtuneTrim                       
0001b7cd  NOROM_SetupGetTrimForXoscHfCtl                                   
0001b7ed  NOROM_SetupSetAonRtcSubSecInc                                    
00017d51  NOROM_SetupSetCacheModeAccordingToCcfgSetting                    
000146e5  NOROM_SetupStepVddrTrimTo                                        
0000d771  NOROM_SetupTrimDevice                                            
0001a325  NOROM_SysCtrlIdle                                                
0001bc65  NOROM_SysCtrlResetSourceGet                                      
0000f025  NOROM_SysCtrlStandby                                             
000156e5  NOROM_SysCtrl_DCDC_VoltageConditionalControl                     
00019cf1  NOROM_TRNGConfigure                                              
0001c109  NOROM_TRNGNumberGet                                              
0001b80d  NOROM_ThisLibraryIsFor_CC13x4_CC26x4_HaltIfViolated              
0001bfbf  NOROM_TimerStallControl                                          
0001c693  NOROM_UARTCharPutNonBlocking                                     
0001b1e1  NOROM_UARTConfigSetExpClk                                        
0001bfd9  NOROM_UARTDisable                                                
0001c831  NOROM_VIMSModeGet                                                
0001cceb  NOROM_VIMSModeSet                                                
0001a879  NOROM_uDMAChannelAttributeDisable                                
0001bff3  NOROM_uDMAChannelSizeGet                                         
00014665  NVOCMP_loadApiPtrs                                               
20003f84  NVOCMP_nvHandle                                                  
2000455f  NVOCMP_size                                                      
0001ce0f  NVSCC26XX_close                                                  
0001cec5  NVSCC26XX_control                                                
0001a355  NVSCC26XX_erase                                                  
0001e18c  NVSCC26XX_fxnTable                                               
0001c121  NVSCC26XX_getAttrs                                               
000185a9  NVSCC26XX_init                                                   
0001c139  NVSCC26XX_lock                                                   
00014b39  NVSCC26XX_open                                                   
00017d9d  NVSCC26XX_read                                                   
0001cb99  NVSCC26XX_unlock                                                 
0000bddd  NVSCC26XX_write                                                  
0001e77c  NVS_config                                                       
0001e948  NVS_count                                                        
0001e910  NVS_defaultParams                                                
0001cecb  NVS_erase                                                        
0001ced1  NVS_getAttrs                                                     
0001a8a5  NVS_init                                                         
0001832d  NVS_open                                                         
0001ca19  NVS_read                                                         
0001c6a5  NVS_write                                                        
00019d25  OsalPortTimers_cleanUpTimers                                     
0001cbd5  OsalPortTimers_registerCleanupEvent                              
0001ac11  OsalPort_buildUint32                                             
00015f25  OsalPort_clearEvent                                              
00018bf5  OsalPort_deleteTimer                                             
0001cd4f  OsalPort_enterCS                                                 
0001cff3  OsalPort_free                                                    
0001adfd  OsalPort_heapGetStats                                            
00014e7d  OsalPort_heapInit                                                
0001cef5  OsalPort_leaveCS                                                 
0001cff7  OsalPort_malloc                                                  
0001bc9d  OsalPort_memcmp                                                  
0001c8a1  OsalPort_memcpy                                                  
0001b205  OsalPort_msgAllocate                                             
0001baeb  OsalPort_msgDeallocate                                           
0001b001  OsalPort_msgDequeue                                              
0001ae25  OsalPort_msgEnqueue                                              
00018c35  OsalPort_msgEnqueueMax                                           
0001a385  OsalPort_msgExtract                                              
00016c19  OsalPort_msgReceive                                              
00016ff9  OsalPort_msgSend                                                 
000153dd  OsalPort_pwrmgrTaskState                                         
00019d59  OsalPort_registerTask                                            
00016685  OsalPort_setEvent                                                
00014465  OsalPort_setTimer                                                
0001cbe1  OsalPort_stopTimer                                               
00019675  OsalPort_waitEvent                                               
0001c8b1  PWM_Params_init                                                  
0001cefb  PWM_close                                                        
UNDEFED   PWM_config                                                       
UNDEFED   PWM_count                                                        
0001e3e8  PWM_defaultParams                                                
000185ed  PWM_init                                                         
00018c75  PWM_open                                                         
0001cf01  PWM_setDuty                                                      
0001cf07  PWM_start                                                        
00018cb5  PowerCC26X2_RCOSC_clockFunc                                      
00008e09  PowerCC26X2_auxISR                                               
0000cf2d  PowerCC26X2_calibrate                                            
0001e58c  PowerCC26X2_config                                               
0001b82d  PowerCC26X2_disableTCXOQual                                      
0001b84d  PowerCC26X2_enableTCXOQual                                       
0001bcb9  PowerCC26X2_getOscHfSourceReady                                  
00015f89  PowerCC26X2_initiateCalibration                                  
20004600  PowerCC26X2_module                                               
0001cffb  PowerCC26X2_oscClockSourceGet                                    
0001c8c1  PowerCC26X2_oscCtlClearXtal                                      
0001a3b5  PowerCC26X2_oscDisableQualifiers                                 
0001cfff  PowerCC26X2_oschfSwitchToRcosc                                   
0001ce27  PowerCC26X2_oschfTrySwitchToXosc                                 
0001c8d1  PowerCC26X2_prcmEnableCacheRetention                             
0001c8e1  PowerCC26X2_readCtrim                                            
0001c8f1  PowerCC26X2_readCtrimFract                                       
0001c901  PowerCC26X2_readRtrim                                            
0001a8d1  PowerCC26X2_releasePeriphDependency                              
00019d8d  PowerCC26X2_setAclkRefSrc                                        
0001d003  PowerCC26X2_setPeriphDeepSleepEnable                             
0001a8fd  PowerCC26X2_setPeriphDependency                                  
0001a929  PowerCC26X2_setSubSecIncToXoscLf                                 
0001a3e5  PowerCC26X2_setTdcClkSrc24M                                      
0001c911  PowerCC26X2_switchToTCXO                                         
0001d007  PowerCC26X2_sysCtrlGetResetSource                                
0001d00b  PowerCC26X2_sysCtrlIdle                                          
0001cd59  PowerCC26X2_sysCtrlStandby                                       
0001d00f  PowerCC26X2_sysCtrlUpdateVoltageRegulator                        
0001d013  PowerCC26X2_turnOnXosc                                           
00015b19  PowerCC26X2_updateSubSecInc                                      
0001bcd5  PowerCC26X2_writeCtrim                                           
0001bcf1  PowerCC26X2_writeCtrimFract                                      
0001bd0d  PowerCC26X2_writeCtrimFractEn                                    
0001bd29  PowerCC26X2_writeRtrim                                           
0001c151  PowerCC26XX_calibrate                                            
0001ae4d  PowerCC26XX_isStableXOSC_HF                                      
0001a415  PowerCC26XX_schedulerDisable                                     
0001b4f3  PowerCC26XX_schedulerRestore                                     
0000e265  PowerCC26XX_standbyPolicy                                        
200044cc  PowerCC26XX_swiKey                                               
000183bd  PowerCC26XX_switchXOSC_HF                                        
200044d0  PowerCC26XX_taskKey                                              
0001cbed  Power_getConstraintMask                                          
0001c921  Power_getDependencyCount                                         
0001bd45  Power_getTransitionLatency                                       
0001c169  Power_idleFunc                                                   
0000c131  Power_init                                                       
0001b229  Power_registerNotify                                             
00019dc1  Power_releaseConstraint                                          
00011309  Power_releaseDependency                                          
0001a445  Power_setConstraint                                              
00010d39  Power_setDependency                                              
0000a235  Power_sleep                                                      
0001b86d  Power_unregisterNotify                                           
0001e788  RFCC26XX_hwAttrs                                                 
2000512c  RFCC26XX_schedulerPolicy                                         
0001cbf9  RF_Params_init                                                   
0001ca51  RF_RatConfigCompare_init                                         
0001cf0d  RF_RatConfigOutput_init                                          
0001c181  RF_ScheduleCmdParams_init                                        
00018631  RF_TxPowerTable_findValue                                        
0001c199  RF_cancelCmd                                                     
0000b11d  RF_close                                                         
200042a4  RF_cmdFsRx                                                       
200042bc  RF_cmdFsTx                                                       
0001e400  RF_cmdFs_2gfsk50kbps154g                                         
20004094  RF_cmdIEEECsma                                                   
20003780  RF_cmdIEEERx                                                     
200042d4  RF_cmdIEEETx                                                     
2000501c  RF_cmdNop                                                        
2000502c  RF_cmdNopFg                                                      
200041fc  RF_cmdPropCs                                                     
20004218  RF_cmdPropCsSlotted                                              
0001e324  RF_cmdPropCs_2gfsk50kbps154g                                     
20003e64  RF_cmdPropRadioDivSetup                                          
0001e1b4  RF_cmdPropRadioDivSetup_2gfsk50kbps154g                          
20003e94  RF_cmdPropRxAdv                                                  
0001e12c  RF_cmdPropRxAdv_2gfsk50kbps154g                                  
200040b4  RF_cmdPropTxAdv                                                  
0001e26c  RF_cmdPropTxAdv_2gfsk50kbps154g                                  
200040d4  RF_cmdRadioSetup                                                 
2000432c  RF_cmdRxAckCmd                                                   
0000f481  RF_control                                                       
0001d017  RF_defaultExecutionPolicy                                        
00012c69  RF_defaultSubmitPolicy                                           
0001c531  RF_flushCmd                                                      
0001c6b7  RF_getCmdOp                                                      
00017e35  RF_getCurrentTime                                                
000141d5  RF_getInfo                                                       
0001b8ad  RF_getRssi                                                       
000136ed  RF_getTxPower                                                    
20005110  RF_handle                                                        
00005409  RF_open                                                          
200040f4  RF_params                                                        
000119f5  RF_pendCmd                                                       
00019df5  RF_powerConstraintRelease                                        
0001bd99  RF_powerConstraintSet                                            
2000503c  RF_prop_2gfsk50kbps154g                                          
0001c3e9  RF_ratCompare                                                    
00014761  RF_ratDisableChannel                                             
000125b1  RF_requestAccess                                                 
0001cf19  RF_runDirectCmd                                                  
0001cf1f  RF_runImmediateCmd                                               
00007571  RF_scheduleCmd                                                   
0001b90d  RF_setTxPower                                                    
00014259  RF_yield                                                         
000196ad  Random_getNumber                                                 
000157bd  Random_seedAutomatic                                             
0001d01b  ResetISR                                                         
0001c931  RingBuf_construct                                                
0001bdd1  RingBuf_flush                                                    
0001a6e3  RingBuf_getConsume                                               
0001d01f  RingBuf_getCount                                                 
0001b537  RingBuf_getPointer                                               
00018495  RingBuf_put                                                      
000196e5  RingBuf_putAdvance                                               
0001a711  RingBuf_putPointer                                               
0001ce2f  SemaphoreP_Params_init                                           
00016563  SemaphoreP_construct                                             
0001971d  SemaphoreP_constructBinary                                       
000166e5  SemaphoreP_createBinary                                          
0001a1cf  SemaphoreP_delete                                                
0001b2dd  SemaphoreP_destruct                                              
0001cd63  SemaphoreP_pend                                                  
0001d023  SemaphoreP_post                                                  
20005210  Sensor_events                                                    
0000eacd  Sensor_init                                                      
20004de8  Sensor_msgStats                                                  
00003a3f  Sensor_process                                                   
00011471  Sensor_sendIdentifyLedRequest                                    
0000c361  Sensor_sendMsg                                                   
0001a73f  Ssf_OffLED                                                       
0001a4a5  Ssf_OnLED                                                        
0001ca5f  Ssf_PostAppSem                                                   
0001a76d  Ssf_clearNetworkInfo                                             
000186b9  Ssf_configurationUpdate                                          
00019e5d  Ssf_displayError                                                 
0001cd6d  Ssf_free                                                         
000190ef  Ssf_getConfigInfo                                                
00016119  Ssf_getFrameCounter                                              
00015829  Ssf_getNetworkInfo                                               
00006db1  Ssf_init                                                         
00019755  Ssf_initializePollClock                                          
00019bb3  Ssf_initializeReadingClock                                       
0001978d  Ssf_initializeScanBackoffClock                                   
0001d027  Ssf_malloc                                                       
0000f639  Ssf_networkUpdate                                                
0000d145  Ssf_processEvents                                                
0001cd77  Ssf_readTempSensor                                               
20005212  Ssf_resetCount                                                   
20005228  Ssf_resetReseason                                                
00005d0f  Ssf_sensorReadingUpdate                                          
000186fd  Ssf_setPollClock                                                 
00018741  Ssf_setReadingClock                                              
00018785  Ssf_setScanBackoffClock                                          
0000c479  Ssf_stateChangeUpdate                                            
0001b301  Ssf_stopScanBackoffClock                                         
000181c3  Ssf_toggleLED                                                    
0000615b  Ssf_trackingUpdate                                               
000187c9  Ssf_updateFrameCounter                                           
0001c6c9  StructRingBuf_construct                                          
00017e81  StructRingBuf_get                                                
0001ca6d  StructRingBuf_isFull                                             
00017367  StructRingBuf_put                                                
0001c941  SwiP_Params_init                                                 
0001028d  SwiP_construct                                                   
0001bded  SwiP_destruct                                                    
0001c951  SwiP_disable                                                     
0001cc05  SwiP_getTrigger                                                  
0001c1c9  SwiP_or                                                          
0001d02b  SwiP_restore                                                     
000197c5  SwiP_setPriority                                                 
0001b027  SystemP_snprintf                                                 
0001c1e1  SystemP_vsnprintf                                                
0001c78f  TI_memcpy_small                                                  
0001caf9  TI_memset_small                                                  
0001c545  TRNG_close                                                       
00013add  TRNG_construct                                                   
0001e5a0  TRNG_defaultParams                                               
0001d02f  TRNG_generateEntropy                                             
0001ac3b  TRNG_generateKey                                                 
000170a9  TRNG_init                                                        
0001cd81  TimerSupport_timerDisable                                        
0001cd8b  TimerSupport_timerEnable                                         
0001ca7b  TimerSupport_timerFullWidth                                      
0001cc11  TimerSupport_timerLoad                                           
0001c961  Timer_Params_init                                                
0001a4d5  Timer_close                                                      
0001e868  Timer_config                                                     
0001e949  Timer_count                                                      
0000da71  Timer_open                                                       
00016745  Timer_setPeriod                                                  
0001880d  Timer_start                                                      
00018cf5  Timer_stop                                                       
0001e914  TimestampP_nativeFormat32                                        
0001e918  TimestampP_nativeFormat64                                        
0001c00d  UART2Support_disableRx                                           
0001cc1d  UART2Support_disableTx                                           
0000e639  UART2Support_dmaStartRx                                          
00010eb1  UART2Support_dmaStartTx                                          
00016aa3  UART2Support_dmaStopRx                                           
00014e07  UART2Support_dmaStopTx                                           
0001a9d9  UART2Support_enableInts                                          
0001cc29  UART2Support_enableRx                                            
0001cc35  UART2Support_enableTx                                            
0001ac8f  UART2Support_powerRelConstraint                                  
0001b04d  UART2Support_powerSetConstraint                                  
0001b559  UART2Support_sendData                                            
0001c971  UART2Support_txDone                                              
0001cc41  UART2_Params_init                                                
0001377d  UART2_close                                                      
0001e870  UART2_config                                                     
0001e94a  UART2_count                                                      
0001e204  UART2_defaultParams                                              
000092b9  UART2_open                                                       
0001b57b  UART2_read                                                       
000173bd  UART2_readCancel                                                 
00018405  UART2_readFull                                                   
00007ce5  UART2_readTimeout                                                
00019e91  UART2_rxDisable                                                  
000197fd  UART2_rxEnable                                                   
0001ca89  UART2_write                                                      
00012a05  UART2_writeCancel                                                
0001bb09  UART2_writeTimeout                                               
0000973f  UART2_writeTimeoutBlocking                                       
0000c591  UART2_writeTimeoutNonblocking                                    
00019835  UDMACC26XX_close                                                 
0001e878  UDMACC26XX_config                                                
0001cd9f  UDMACC26XX_hwiIntFxn                                             
0001617d  UDMACC26XX_open                                                  
00017413  UtilTimer_construct                                              
0001d033  UtilTimer_isActive                                               
0001ce37  UtilTimer_setTimeout                                             
0001d037  UtilTimer_start                                                  
0001d03b  UtilTimer_stop                                                   
0001cf25  Util_bufferUint16                                                
0001cf2b  Util_bufferUint32                                                
0001c1f9  Util_clearEvent                                                  
0001cda9  Util_copyExtAddr                                                 
0001d03f  Util_parseUint16                                                 
0001d043  Util_parseUint32                                                 
0001c211  Util_setEvent                                                    
20040000  __STACK_END                                                      
00005000  __STACK_SIZE                                                     
00000000  __TI_ATRegion0_region_sz                                         
00000000  __TI_ATRegion0_src_addr                                          
00000000  __TI_ATRegion0_trg_addr                                          
00000000  __TI_ATRegion1_region_sz                                         
00000000  __TI_ATRegion1_src_addr                                          
00000000  __TI_ATRegion1_trg_addr                                          
00000000  __TI_ATRegion2_region_sz                                         
00000000  __TI_ATRegion2_src_addr                                          
00000000  __TI_ATRegion2_trg_addr                                          
0001eca4  __TI_CINIT_Base                                                  
0001ecd4  __TI_CINIT_Limit                                                 
0001ecd4  __TI_CINIT_Warm                                                  
0001ec70  __TI_Handler_Table_Base                                          
0001ec7c  __TI_Handler_Table_Limit                                         
00019b45  __TI_auto_init_nobinit_nopinit                                   
0001559d  __TI_decompress_lzss                                             
0001cb07  __TI_decompress_none                                             
ffffffff  __TI_pprof_out_hndl                                              
ffffffff  __TI_prof_data_size                                              
ffffffff  __TI_prof_data_start                                             
00000000  __TI_static_base__                                               
0001c9d1  __TI_zero_init                                                   
0001d6c0  __aeabi_ctype_table_                                             
0001d6c0  __aeabi_ctype_table_C                                            
20005160  __aeabi_errno                                                    
0001ce41  __aeabi_errno_addr                                               
00006fa3  __aeabi_ldiv0                                                    
0001bb29  __aeabi_llsl                                                     
0001ce49  __aeabi_memclr                                                   
0001ce49  __aeabi_memclr4                                                  
0001ce49  __aeabi_memclr8                                                  
0001d049  __aeabi_memcpy                                                   
0001d049  __aeabi_memcpy4                                                  
0001d049  __aeabi_memcpy8                                                  
0001cdb5  __aeabi_memset                                                   
0001cdb5  __aeabi_memset4                                                  
0001cdb5  __aeabi_memset8                                                  
0001c56d  __aeabi_uldivmod                                                 
0001bb29  __ashldi3                                                        
ffffffff  __binit__                                                        
0001d088  __c_args__                                                       
50000000  __ccfg                                                           
UNDEFED   __mpu_init                                                       
2003b000  __stack                                                          
ffffffff  __start___llvm_prf_bits                                          
ffffffff  __start___llvm_prf_cnts                                          
ffffffff  __stop___llvm_prf_bits                                           
ffffffff  __stop___llvm_prf_cnts                                           
00011895  __udivmoddi4                                                     
0001c581  _args_main                                                       
0001a169  _c_int00                                                         
2000504c  _hposcCoeffs                                                     
20005164  _lock                                                            
0000841b  _nop                                                             
00012d01  _pthread_cleanupFxn                                              
000132e9  _pthread_removeThreadKeys                                        
0001cc4d  _register_lock                                                   
0001cc59  _register_unlock                                                 
0001d04d  _system_post_cinit                                               
0001d051  _system_pre_init                                                 
20005168  _unlock                                                          
0001e1dc  activityObject                                                   
0001e94b  aesccmCC26X4HWAttrs                                              
200036b8  aesccmCC26X4Objects                                              
2000516c  appEvents                                                        
20004e9c  appSubMenu                                                       
20004560  appTaskId                                                        
0001c6ed  assertHandler                                                    
20005214  assoc_resp_no_ack_cnt                                            
20005229  bInSwi                                                           
ffffffff  binit                                                            
20004424  coexMetricsStruct                                                
20004470  coexOverrideUseCases                                             
200050ea  collectorAddr_app                                                
20004d50  commissionSubMenu                                                
20004c20  configureSubMenu                                                 
200037d8  controlTask                                                      
2000400c  controlTaskParam                                                 
20000470  controlTaskStack                                                 
200043f0  control_Task_dev_info                                            
00015e59  control_taskInit                                                 
20005170  control_task_InfoToHub_handle                                    
20004234  control_task_InfoToHub_params                                    
00018db5  control_task_mail_post_InfoToHub                                 
20004552  conv                                                             
00018af1  convertTxOptions                                                 
0001c027  copyApiMacAddrToMacAddr                                          
0001b59d  crc_update                                                       
2000522c  csmPhy                                                           
20005174  cuiMultiMenu                                                     
20003b14  cuiMultiMenuData                                                 
2000522d  customMinTxOffEnabled                                            
20003dfc  dcBucket                                                         
200044d4  dcCritical                                                       
2000522e  dcEnabled                                                        
200044d8  dcLimited                                                        
200044dc  dcPtr                                                            
200044e0  dcRegulated                                                      
20004561  dcStatus                                                         
200044e4  dcTimeUsed                                                       
2000522f  devInfoConfirmationFlag                                          
20005230  devInfoConfirmationMail                                          
20005178  devInfoConfirmationTimer                                         
2000517c  endToEndDelay                                                    
2000317c  enhancedAckBuf                                                   
200048d8  fhObject                                                         
20004562  gAction                                                          
20003278  gpioCallbackFunctions                                            
20004778  gpioPinConfigs                                                   
20003338  gpioUserArgs                                                     
0001e7b8  gptimerCC26XXHWAttrs                                             
20003b60  gptimerCC26XXObjects                                             
2003b000  heapEnd                                                          
200054fc  heapStart                                                        
200050b8  heapmgrMemFreeError                                              
200050b4  heapmgrMemFreeTotal                                              
20004f40  ieeeCoexEnabled                                                  
20005233  initBroadcastMsg                                                 
20004f44  lastPostCmd                                                      
20004f38  lastRatChanA                                                     
20004f39  lastRatChanB                                                     
20004563  lastRxPriority                                                   
20004564  lastTxPriority                                                   
20004340  macAckDbg                                                        
20004565  macAckTxActive                                                   
20004f10  macActionSet                                                     
200044e8  macAddrLsb                                                       
200044ec  macAddrMsb                                                       
0000b821  macAllocTxBuffer                                                 
0000e729  macApiAssociateReq                                               
0001cf31  macApiBadState                                                   
00011685  macApiDataReq                                                    
00015901  macApiDisassociateReq                                            
0001b325  macApiPending                                                    
00017565  macApiPollReq                                                    
000098b3  macApiPwrOnReq                                                   
00009b7d  macApiScanReq                                                    
0001cf37  macApiUnsupported                                                
00019ef9  macApiWSAsyncReq                                                 
00018851  macAssocDataReq                                                  
0001799d  macAssocDataReqComplete                                          
000161e1  macAssocDataRxInd                                                
0001986d  macAssocFailed                                                   
0001ae9d  macAssocFrameResponseTimeout                                     
0001c6ff  macAssocRxDisassoc                                               
00019f2d  macAssociateCnf                                                  
0001dbdb  macAssociatingSt                                                 
0001e8a0  macAuthTagLen                                                    
00012651  macAutoPendAddSrcMatchTableEntry                                 
00011aa1  macAutoPendMaintainSrcMatchTable                                 
0001d059  macBcTimerHandler                                                
20004114  macBeacon                                                        
20003e30  macBeaconDevice                                                  
20004f58  macBeaconMargin                                                  
20004d84  macBeaconPayload                                                 
0001c229  macBeaconReset                                                   
000175b9  macBeaconSetupCap                                                
000198a5  macBeaconStopTrack                                               
000167a5  macBeaconSyncLoss                                                
000142dd  macBlacklistChecking                                             
0000db71  macBuildAssociateReq                                             
00011735  macBuildBeaconNotifyInd                                          
000098b5  macBuildCommonReq                                                
0000d461  macBuildDataFrame                                                
0000f55d  macBuildDisassociateReq                                          
00004379  macBuildHeader                                                   
00010679  macBuildHeaderIes                                                
000117e5  macBuildPayloadCoexistIe                                         
0000cc05  macBuildPayloadIes                                               
00016c75  macBuildWSAsyncMsg                                               
000128cd  macBuildWSAsyncReq                                               
00016cd1  macCanSleep                                                      
0001e7c4  macCbackEventTbl                                                 
000126f1  macCbackForEvent                                                 
00013ea9  macCcmDecrypt                                                    
00014361  macCcmEncrypt                                                    
00013f31  macCcmStarInverseTransform                                       
0000f7ed  macCcmStarTransform                                              
2000506c  macCfg                                                           
000179ed  macCheckIndPacket                                                
0001c041  macCheckPhyMode                                                  
000194af  macCheckPhyRate                                                  
0001c711  macCheckSched                                                    
0001e729  macCmdBufSize                                                    
0001e0c0  macCmdIncludeFHIe                                                
0001e820  macCmdLen                                                        
000100f5  macCommStatusInd                                                 
0001c595  macConflictSyncLossInd                                           
0001b349  macCoordAddrCmp                                                  
0001e000  macCryptoDriverTable                                             
200044f0  macCryptoDrvTblPtr                                               
2000511c  macCsmaRtcTimerId                                                
0001ce51  macCsmaTimerExpiry                                               
200043b0  macData                                                          
200051a4  macDataBeaconRequeue                                             
200051a8  macDataCheckSched                                                
200051ac  macDataCheckTxTime                                               
200051b0  macDataRequeueIndirect                                           
00016805  macDataReset                                                     
200051b4  macDataRxBeaconCritical                                          
000198dd  macDataRxInd                                                     
0001be25  macDataRxMemAlloc                                                
0001cdbf  macDataRxMemFree                                                 
0001c5a9  macDataSend                                                      
200051b8  macDataSetSched                                                  
200051bc  macDataTxBeaconComplete                                          
00012285  macDataTxComplete                                                
200043c0  macDataTxDelay                                                   
0001d05d  macDataTxDelayCallback                                           
00011b4d  macDataTxEnqueue                                                 
200051c0  macDataTxIndirect                                                
0000a37d  macDataTxSend                                                    
0001c981  macDataTxTimeAvailable                                           
0001cc65  macDefaultAction                                                 
00018b33  macDestSAddrCmp                                                  
20003fe0  macDevice                                                        
20003dc4  macDeviceAction1                                                 
20004354  macDeviceAction2                                                 
0001a505  macDeviceDescriptorLookup                                        
000101c1  macDeviceReset                                                   
00015be9  macDisassocComplete                                              
00017ecd  macDutyCycleByteToUSec                                           
0001aa05  macDutyCycleCheck                                                
0000dc71  macDutyCycleInit                                                 
00019f61  macDutyCycleUpdateTransmission                                   
0000fc19  macEdScanISR                                                     
00016865  macExecute                                                       
0001c241  macFrameDuration                                                 
0001a535  macFrameDurationIeee                                             
000144e5  macFrameDurationSubG                                             
200043d0  macFrmFilter                                                     
20004f3b  macFsCmdActive                                                   
0001ce59  macGetCSMPhy                                                     
0001b92d  macGetCoordAddress                                               
0001c259  macGetMyAddrMode                                                 
000113bd  macGetRFCmdDuration                                              
0001b94d  macGetRadioState                                                 
00017f19  macGetRadioTxPowerReg                                            
0001a565  macHandleTxAck                                                   
0001ce61  macIEEEGetPhyDesc                                                
0001e6dc  macIEEEPhyTable                                                  
0001dc4d  macIdleSt                                                        
0000a751  macIncomingFrameSecurity                                         
0000943d  macIncomingFrameSecurityMaterialRetrieval                        
0001760d  macIncomingKeyUsagePolicyChecking                                
00019915  macIncomingNonSlottedTx                                          
00012d99  macIncomingSecurityLevelChecking                                 
0001380d  macIndirectSend                                                  
0001cc71  macIsCsmOperational                                              
00014f65  macKeyDescriptorLookup                                           
0001e924  macKeySourceLen                                                  
0001ca97  macLowLevelBufferInit                                            
0001b073  macLowLevelDiags                                                 
00016245  macLowLevelInit                                                  
0001caa5  macLowLevelReset                                                 
0001cab3  macLowLevelResume                                                
20004838  macMRFSKGenPhyTable                                              
00019295  macMRFSKGetPhyDesc                                               
0001df28  macMRFSKStdPhyTable                                              
20004430  macMain                                                          
0001c5bd  macMainReserve                                                   
0001844d  macMainReset                                                     
0001cc7d  macMainSetTaskId                                                 
0000a74f  macMcuBitReverse                                                 
000162a9  macMcuInit                                                       
0001be41  macMcuOverflowCapture                                            
00014fd9  macMcuOverflowSetCompare                                         
000147dd  macMcuOverflowSetPeriod                                          
0001cdc9  macMcuRandomByte                                                 
0001b96d  macMcuTimerCapture                                               
20004566  macMgmt                                                          
20003ec4  macMgmtAction1                                                   
20004368  macMgmtAction2                                                   
00012329  macMgmtReset                                                     
0000b6f7  macNoAction                                                      
0001be5d  macNopBackoffTimerExpiry                                         
0000f1e5  macOutgoingFrameKeyDescRetrieval                                 
00010421  macOutgoingFrameSecurity                                         
0001d061  macPanConflictComplete                                           
20004567  macPanCoordinator                                                
20004568  macPhyChannel                                                    
200044f4  macPhyTxPower                                                    
200035c4  macPib                                                           
0001d065  macPibCheckByPatch                                               
0001dacc  macPibDefaults                                                   
0001b98d  macPibIndex                                                      
0001aec5  macPibReset                                                      
0001d8c1  macPibTbl                                                        
0001c271  macPollCnf                                                       
00018895  macPollDataReqComplete                                           
00017101  macPollDataRxInd                                                 
00018e35  macPollFrameResponseTimeout                                      
0001c289  macPollRxAssocRsp                                                
0001b9ad  macPollRxDisassoc                                                
0001dcbf  macPollingSt                                                     
200044f8  macPrevPeriodRatCount                                            
20004569  macPwr                                                           
0001cc89  macPwrReset                                                      
00014859  macPwrVote                                                       
20005117  macRadioAckFrame                                                 
20005114  macRadioAckIeeeFrame                                             
0001acb9  macRadioComputeLQI                                               
00004665  macRadioCsmaTxCb                                                 
00013bf5  macRadioFHEncryptFrame                                           
0001c2a1  macRadioInit                                                     
0000bcb9  macRadioInitIeee                                                 
000051a1  macRadioInitSubG                                                 
0000a9d5  macRadioLbtTxCb                                                  
0001a595  macRadioLimitTxPower                                             
0001994d  macRadioNeedAdjustPower                                          
00015c51  macRadioPowerDown                                                
00019f95  macRadioPowerUp                                                  
0001aa31  macRadioPowerUpWait                                              
0001d069  macRadioRandomByte                                               
00017f65  macRadioSendEnhAck                                               
00013fb9  macRadioSendImmAck                                               
00017a3d  macRadioSetChannel                                               
00019985  macRadioSetIEEEAddr                                              
000192d1  macRadioSetPanCoordinator                                        
0001930d  macRadioSetPanID                                                 
0000c12f  macRadioSetRE                                                    
0001b9cd  macRadioSetShortAddr                                             
0001c415  macRadioSetTxPower                                               
000154bd  macRadioStartScan                                                
00019fc9  macRadioStopScan                                                 
0001b36d  macRadioSwInit                                                   
00017159  macRadioTxBackoffBoundary                                        
0000e263  macRadioTxCancelTxAck                                            
0001504d  macRadioTxEnhAckCb                                               
000014b9  macRadioTxGo                                                     
0001cf3d  macRadioTxGoGreenPower                                           
000171b1  macRadioTxGoLbt                                                  
0001cf43  macRadioTxGoSlotted                                              
00019ffd  macRadioTxGoSlottedCsma                                          
00017fb1  macRadioTxHandleAck                                              
0001c2b9  macRadioTxPrepCsmaSlotted                                        
00017a8d  macRadioTxPrepCsmaSlottedIeee                                    
0000fdb9  macRadioTxPrepCsmaSlottedSubG                                    
0001c2d1  macRadioTxPrepCsmaUnslotted                                      
0001a5c5  macRadioTxPrepCsmaUnslottedIeee                                  
000188d9  macRadioTxPrepCsmaUnslottedSubG                                  
0001a031  macRadioTxPrepGreenPower                                         
0001630d  macRadioTxPrepLbt                                                
00017661  macRadioTxPrepSlotted                                            
0000637d  macRadioTxRequestTxAck                                           
00014041  macRadioUpdateChannel                                            
00017add  macRadioUpdateTxPower                                            
00017ffd  macRadioWakeupCb                                                 
2000523a  macRadioYielded                                                  
0001b391  macRatCb_A                                                       
0001aa5d  macRatCb_B                                                       
0001aa89  macRatDisableChannelB                                            
0001891d  macRatDisableChannels                                            
00014c29  macRequestBackoff                                                
000176b5  macRequestSFDTimeout                                             
20004250  macReset                                                         
0001dda4  macRfDriverTable                                                 
200044fc  macRfDrvTblPtr                                                   
0001be95  macRxAckTxDoneCallback                                           
2000456a  macRxActive                                                      
00014ca1  macRxAssocRsp                                                    
0001d06d  macRxBackoffHandler                                              
0001ce69  macRxBackoffTimerExpiry                                          
00012e31  macRxBeacon                                                      
0000b375  macRxBeaconCritical                                              
00004085  macRxCb                                                          
000199bd  macRxCheckMACPendingCallback                                     
0001b9ed  macRxCheckPendingCallback                                        
20004f3a  macRxCmdActive                                                   
0000dd71  macRxCompleteCallback                                            
00017209  macRxCoordRealign                                                
20004554  macRxDataEntryOffset                                             
20004478  macRxDataEntryQueue                                              
00019349  macRxDisable                                                     
00016d2d  macRxDisassoc                                                    
0001ba0d  macRxEnable                                                      
2000456b  macRxEnableFlags                                                 
2000456c  macRxFilter                                                      
0000003d  macRxFrameIsr                                                    
00016371  macRxHaltCleanup                                                 
0001aab5  macRxHardDisable                                                 
00011ea1  macRxInit                                                        
00018961  macRxNokIsr                                                      
0001aeed  macRxOff                                                         
0001596d  macRxOffRequest                                                  
00017261  macRxOn                                                          
0001ba2d  macRxOnOffInit                                                   
0001c5d1  macRxOnRequest                                                   
2000456d  macRxOutgoingAckFlag                                             
200043e0  macRxOutputIeee                                                  
2000443c  macRxOutputSubG                                                  
20004f3c  macRxPreempted                                                   
0001ba4d  macRxSFDTimerExpiry                                              
0001cc95  macRxSequenceNum                                                 
0001b3b5  macRxSoftDisable                                                 
0001b3d9  macRxSoftEnable                                                  
20004500  macRxSymbol                                                      
200038e0  macScan                                                          
200042ec  macScanAction                                                    
0001a065  macScanCnfInit                                                   
000168c5  macScanComplete                                                  
0001bb65  macScanFailedInProgress                                          
0000de71  macScanNextChan                                                  
0000f8c5  macScanRxBeacon                                                  
00012ec9  macScanRxCoordRealign                                            
00015cb9  macScanStartTimer                                                
0001dd31  macScanningSt                                                    
0001cf49  macSecCpy                                                        
20003d48  macSecurityPib                                                   
00007b0d  macSecurityPibReset                                              
0001de78  macSecurityPibTbl                                                
2000426c  macSemHandle                                                     
000104e9  macSendDataMsg                                                   
000189a5  macSendFsCmd                                                     
00016925  macSendMsg                                                       
0001e418  macSendMsgBufSize                                                
0001e7d0  macSendMsgDataSize                                               
0001c2e9  macSendReceiveCmd                                                
00007eb9  macSendReceiveCmdIeee                                            
00006599  macSendReceiveCmdSubG                                            
00018e75  macSetDefaultsByPatch                                            
0000e451  macSetDefaultsByPhyID                                            
0001aae1  macSetDefaultsByRE                                               
0001c9a1  macSetEvent                                                      
0001c991  macSetEvent16                                                    
0001cdd3  macSetSched                                                      
0001af15  macSetTxPowerVal                                                 
0001a5f5  macSetUserConfig                                                 
000159d9  macSetupFsCmd                                                    
0000e819  macSetupRATChanCompare                                           
000148d5  macSetupReceiveCmd                                               
20004f48  macSfdDetectCback                                                
2000456e  macSpecUsecsPerSymbol                                            
20003ef4  macSrcExtAddrList                                                
20004fbb  macSrcMatchDefaultPendOn                                         
20004fba  macSrcMatchIsAckAllPending                                       
2000523b  macSrcMatchIsEnabled                                             
2000523c  macSrcMatchManualAddressTracking                                 
2000456f  macSrcResIndex                                                   
20004288  macSrcShortAddrList                                              
00019385  macStartFrameResponseTimer                                       
0001beb1  macStartResponseTimer                                            
0001c5e5  macStateIdleOrPolling                                            
0001c5f9  macStateScanning                                                 
20004fd0  macStateTbl                                                      
2000437c  macStatistics                                                    
0001392d  macStopCmd                                                       
0001c60d  macSymbolSetupPwrMgmt                                            
0001ab0d  macSymbolTimerBCWakeUp                                           
0001c723  macSymbolTimerCompareIsr                                         
000199f5  macSymbolTimerCount                                              
00018049  macSymbolTimerEventHandler                                       
0001ab39  macSymbolTimerICallTimerCback                                    
20004570  macSymbolTimerImpending                                          
00012969  macSymbolTimerInit                                               
00016985  macSymbolTimerPeriodIsr                                          
0001becd  macSymbolTimerPowerDown                                          
0001c301  macSymbolTimerRealign                                            
00018eb5  macSymbolTimerRealignIeee                                        
00018ef5  macSymbolTimerRealignSubG                                        
0001d075  macSymbolTimerReset                                              
0001b421  macSymbolTimerRestore                                            
20004504  macSymbolTimerRollover                                           
00018095  macSymbolTimerRolloverCallback                                   
0001b445  macSymbolTimerSetRollover                                        
0001a101  macSymbolTimerSetTrigger                                         
0001ba6d  macSymbolTimerSetTriggerRollover                                 
20004508  macSymbolTimerTrigger                                            
00012f61  macSymbolTimerTriggerCallback                                    
0000fe89  macSymbolTimerUpdateWakeup                                       
20004571  macTaskId                                                        
0001337d  macTaskInit                                                      
2000450c  macThread                                                        
0001ba8d  macTimer                                                         
20004510  macTimerActive                                                   
00017709  macTimerAddTimer                                                 
0001ab65  macTimerAligned                                                  
0001775d  macTimerCancel                                                   
00017b2d  macTimerGetNextTimer                                             
0001a625  macTimerInit                                                     
200051d0  macTimerNewRollover                                              
000163d5  macTimerRealign                                                  
0001a655  macTimerRecalcUnaligned                                          
0001c42b  macTimerRemoveTimer                                              
200051d4  macTimerRollover                                                 
0001e040  macTimerRolloverValue                                            
00015d21  macTimerSetRollover                                              
00018f35  macTimerUpdActive                                                
0001552d  macTimerUpdateSymbolTimer                                        
000169e5  macTrackPeriodCallback                                           
0001a135  macTxAbortIsr                                                    
0001d079  macTxAckIsr                                                      
00019a2d  macTxAckNotReceivedCallback                                      
000177b1  macTxAckReceivedCallback                                         
20004572  macTxActive                                                      
0001cf4f  macTxBackoffHandler                                              
0001ce71  macTxBackoffTimerExpiry                                          
20004573  macTxBe                                                          
0000ec95  macTxChannelBusyCallback                                         
2000523d  macTxCmdActive                                                   
00007385  macTxCompleteCallback                                            
20004556  macTxCsmaBackoffDelay                                            
0001cf55  macTxCsmaDelay                                                   
000193c1  macTxDecrypt                                                     
00014565  macTxDoneCallback                                                
00008791  macTxFrame                                                       
0001e737  macTxFrameFailed                                                 
00018f75  macTxFrameIsr                                                    
00019a65  macTxFrameRetransmit                                             
0001e745  macTxFrameSuccess                                                
00015d89  macTxGetDefaultMinTxOffTime                                      
20004574  macTxGpInterframeDelay                                           
0001af3d  macTxInit                                                        
00011251  macTxRequestCsmaDelay                                            
00010981  macTxRequestCsmaRtcDelay                                         
2000523e  macTxSlottedDelay                                                
2000523f  macTxSlottedDelayFactor                                          
00011f49  macTxStartQueuedFrame                                            
20004514  macTxTimestamp                                                   
00018fb5  macTxTimestampCallback                                           
20004575  macTxType                                                        
00019a9d  macTxUpdateIE                                                    
20004576  macUnitBackoffPeriod                                             
000150c1  macUpdateHeaderIEPtr                                             
00016d89  macUpdatePayloadIEPtr                                            
20004fe4  macUser0Cfg                                                      
0001c621  macWSAsyncCnf                                                    
0001c319  macWrapper8ByteUnused                                            
00003d69  macWrapperAddDevice                                              
00008f9d  macWrapperAddKeyInitFCtr                                         
0000b949  macWrapperDeleteDevice                                           
000193fd  mac_msg_deallocate                                               
000145e5  main                                                             
000194e9  malloc                                                           
20002c70  menuBuff                                                         
200051d8  minTxOffTime                                                     
0001e5b4  msacbackSizeTable                                                
20004f3d  numRfCmd                                                         
20004f3e  numRxCmd                                                         
20004f3f  numRxPostCmd                                                     
20005242  numTx                                                            
20004577  nvsCC26XXObjects                                                 
0001cf5b  osalHeapAllocFxn                                                 
0001cf61  osalHeapFreeFxn                                                  
0001cf67  osalHeapGetStatsFxn                                              
0001cca1  osalHeapInitFxn                                                  
0001d081  osalHeapIsBlockingFxn                                            
20004518  pClockHandleEDScan                                               
200051e4  pMacCbackCheckPending                                            
200051e8  pMacCbackQueryRetransmit                                         
200051ec  pMacDataTx                                                       
200051f0  pMacEnhancedAck                                                  
2000451c  pMacRadioConfig                                                  
20004520  pMaxPower                                                        
20004e70  pOverrides_2gfsk50kbps154g                                       
20004524  pRfMode                                                          
20004528  pRfPowerTable                                                    
20005244  parentFound                                                      
2000521a  personal_addr                                                    
0001baad  pthread_attr_init                                                
0001ccad  pthread_attr_setdetachstate                                      
0001c735  pthread_attr_setschedparam                                       
0001ce79  pthread_attr_setstacksize                                        
000085d9  pthread_create                                                   
00016439  pthread_exit                                                     
00017805  pthread_mutex_init                                               
0001521b  pthread_mutex_lock                                               
00019be9  pthread_mutex_unlock                                             
0001c9b1  pthread_mutexattr_init                                           
0001cac1  pthread_self                                                     
0001ace3  radioComputeED                                                   
20005247  reqAccessAlloc                                                   
0001de10  resourceDB                                                       
0001af65  rfSelect                                                         
00005ae1  rfSetConfigSubG                                                  
0001ab91  rf_patch_cpe_multi_protocol                                      
20004558  rxCmdHandle                                                      
20004578  rxFhRsl                                                          
20004579  rxPromiscuousMode                                                
2000452c  rxRadioBufferPtr                                                 
2000457a  rxSeqNum                                                         
0001b099  sAddrCmp                                                         
0001c747  sAddrCpy                                                         
0001b669  sAddrExtCmp                                                      
0001cf6d  sAddrExtCpy                                                      
00010a41  scheduleNopWakeupCmd                                             
00017bcd  sem_init                                                         
0001cddd  sem_post                                                         
0001cacf  sem_wait                                                         
20004530  sensorStatusLine                                                 
20003830  sensorTask                                                       
20004030  sensorTaskParam                                                  
20001870  sensorTaskStack                                                  
00013a4d  sensorTask_                                                      
20004534  ssfCuiHndl                                                       
20004c60  ssfMainMenu                                                      
0000ac51  strtol                                                           
20002070  tBuffer                                                          
200050b0  taskCnt                                                          
20002e18  taskTbl                                                          
00005f39  ti_sysbios_family_arm_v8m_Hwi_Instance_init                      
20004ca0  ti_sysbios_family_arm_v8m_Hwi_Module_state                       
0000d66d  ti_sysbios_family_arm_v8m_Hwi_dispatch                           
00014d19  ti_sysbios_family_arm_v8m_Hwi_dispatchC                          
20003080  ti_sysbios_family_arm_v8m_Hwi_dispatchTable                      
0001cf73  ti_sysbios_family_arm_v8m_Hwi_doSwiRestore                       
0001cf79  ti_sysbios_family_arm_v8m_Hwi_doTaskRestore                      
0001c9c1  ti_sysbios_family_arm_v8m_Hwi_excHandler                         
00019ad5  ti_sysbios_family_arm_v8m_Hwi_excHandlerAsm                      
00016de5  ti_sysbios_family_arm_v8m_Hwi_initStacks                         
0000d72e  ti_sysbios_family_arm_v8m_Hwi_interruptsAreDisabledButShouldNotBe
0000d733  ti_sysbios_family_arm_v8m_Hwi_pendSV                             
20005400  ti_sysbios_family_arm_v8m_Hwi_ramVectors                         
00000000  ti_sysbios_family_arm_v8m_Hwi_resetVectors                       
0000d754  ti_sysbios_family_arm_v8m_Hwi_return                             
0001e93c  ti_sysbios_family_arm_v8m_Hwi_swiTaskKeyAddress                  
0001b68b  ti_sysbios_family_arm_v8m_Hwi_switchAndRunFunc                   
200050bc  ti_sysbios_family_arm_v8m_cc26x4_Timer_Module_state              
0000893d  ti_sysbios_family_arm_v8m_cc26x4_Timer_construct                 
00016b01  ti_sysbios_family_arm_v8m_cc26x4_Timer_dynamicMultiStub          
0001c759  ti_sysbios_family_arm_v8m_cc26x4_Timer_dynamicStub               
20004538  ti_sysbios_family_arm_v8m_cc26x4_Timer_funcHookCH1               
2000453c  ti_sysbios_family_arm_v8m_cc26x4_Timer_funcHookCH2               
20005134  ti_sysbios_gates_GateMutexPri_Module_state                       
0000ed79  ti_sysbios_gates_GateMutexPri_enter                              
00013411  ti_sysbios_gates_GateMutexPri_leave                              
2000513c  ti_sysbios_heaps_HeapCallback_Module_state                       
0001cf7f  ti_sysbios_heaps_HeapCallback_alloc                              
0001cf85  ti_sysbios_heaps_HeapCallback_free                               
0001cf8b  ti_sysbios_heaps_HeapCallback_getStats                           
0001cf91  ti_sysbios_heaps_HeapCallback_isBlocking                         
20003720  ti_sysbios_knl_ClockSupport_timerStruct                          
200049ac  ti_sysbios_knl_Clock_Module_state                                
0000e545  ti_sysbios_knl_Clock_init                                        
0000d24f  ti_sysbios_knl_Clock_startI                                      
0001caeb  ti_sysbios_knl_Clock_tick                                        
0001e940  ti_sysbios_knl_Clock_tickPeriod                                  
00008089  ti_sysbios_knl_Clock_workFuncDynamic                             
0001e8c0  ti_sysbios_knl_Idle_funcList                                     
2000524d  ti_sysbios_knl_Idle_initDone                                     
0001c05d  ti_sysbios_knl_Idle_loop                                         
20002a70  ti_sysbios_knl_Idle_taskStack                                    
20003888  ti_sysbios_knl_Idle_taskStruct                                   
0000bef9  ti_sysbios_knl_Mailbox_Instance_init                             
20005144  ti_sysbios_knl_Mailbox_Module_state                              
0001c76b  ti_sysbios_knl_Mailbox_Params_init                               
00017859  ti_sysbios_knl_Mailbox_create                                    
0001ce81  ti_sysbios_knl_Mailbox_getNumPendingMsgs                         
00015135  ti_sysbios_knl_Mailbox_pend                                      
00012ff9  ti_sysbios_knl_Mailbox_post                                      
2000514c  ti_sysbios_knl_Semaphore_Module_state                            
0000b4a1  ti_sysbios_knl_Semaphore_pend                                    
0001649d  ti_sysbios_knl_Semaphore_pendTimeout                             
00013537  ti_sysbios_knl_Semaphore_post                                    
20004ec4  ti_sysbios_knl_Swi_Module_state                                  
00012791  ti_sysbios_knl_Swi_post                                          
20003f24  ti_sysbios_knl_Swi_readyQs                                       
000139bd  ti_sysbios_knl_Swi_restore                                       
0000ef41  ti_sysbios_knl_Swi_restoreHwi                                    
00010b01  ti_sysbios_knl_Swi_runLoop                                       
00013d0d  ti_sysbios_knl_Swi_startup                                       
0001c331  ti_sysbios_knl_TaskSupport_glue                                  
00014a45  ti_sysbios_knl_TaskSupport_start                                 
00019439  ti_sysbios_knl_TaskSupport_swap                                  
00019452  ti_sysbios_knl_TaskSupport_swapReturn                            
0000d039  ti_sysbios_knl_Task_Instance_finalize                            
00010bbf  ti_sysbios_knl_Task_Instance_init                                
20004cdc  ti_sysbios_knl_Task_Module_state                                 
0001bf21  ti_sysbios_knl_Task_Params_init                                  
0001af8d  ti_sysbios_knl_Task_construct                                    
20004540  ti_sysbios_knl_Task_defaultStackHeap                             
00013c81  ti_sysbios_knl_Task_enter                                        
000135c9  ti_sysbios_knl_Task_exit                                         
0000f713  ti_sysbios_knl_Task_postInit                                     
20003f54  ti_sysbios_knl_Task_readyQs                                      
00011bf9  ti_sysbios_knl_Task_restore                                      
00013091  ti_sysbios_knl_Task_restoreHwi                                   
00010f6d  ti_sysbios_knl_Task_setPri                                       
0000ff59  ti_sysbios_knl_Task_sleep                                        
0001812d  ti_sysbios_knl_Task_sleepTimeout                                 
00011ca5  ti_sysbios_knl_Task_startup                                      
200050c8  ti_sysbios_runtime_Error_ignore                                  
000123cd  ti_sysbios_runtime_Memory_alloc                                  
20005208  ti_sysbios_runtime_Memory_defaultHeapInstance                    
2000524e  ti_sysbios_runtime_Startup_done                                  
00005655  ti_sysbios_runtime_Startup_exec                                  
200050d4  ti_sysbios_runtime_System_Module_state                           
20004544  ti_sysbios_runtime_System_atexitHandlers                         
00002cbd  ti_sysbios_runtime_System_doPrint                                
0001a201  ti_sysbios_runtime_System_exit                                   
0001d085  ti_sysbios_runtime_System_exitSpin                               
0001a233  ti_sysbios_runtime_System_printf                                 
20004548  timerAlignedQ                                                    
0001e6ec  timerCC26XXHWAttrs                                               
200034b0  timerCC26XXObjects                                               
2000454c  timerUnalignedQ                                                  
00019b0d  timer_callback                                                   
2000520c  totalE2EDelaySum                                                 
2000457b  txAckReq                                                         
2000455a  txCmdHandle                                                      
0000c8d1  txComplete                                                       
00009cdd  txCsmaDelay                                                      
20004a78  txPowerTable_868_pa13                                            
2000457c  txSeqn                                                           
200002c0  uart2CC26X2Objects                                               
0001e8c8  udmaCC26XXHWAttrs                                                
20004134  udmaCC26XXObject                                                 


GLOBAL SYMBOLS: SORTED BY Symbol Address 

address   name                                                             
-------   ----                                                             
00000000  __TI_ATRegion0_region_sz                                         
00000000  __TI_ATRegion0_src_addr                                          
00000000  __TI_ATRegion0_trg_addr                                          
00000000  __TI_ATRegion1_region_sz                                         
00000000  __TI_ATRegion1_src_addr                                          
00000000  __TI_ATRegion1_trg_addr                                          
00000000  __TI_ATRegion2_region_sz                                         
00000000  __TI_ATRegion2_src_addr                                          
00000000  __TI_ATRegion2_trg_addr                                          
00000000  __TI_static_base__                                               
00000000  ti_sysbios_family_arm_v8m_Hwi_resetVectors                       
0000003d  macRxFrameIsr                                                    
00000e53  BIOS_nullFunc                                                    
00000e55  ApiMac_processIncoming                                           
000014b9  macRadioTxGo                                                     
00001a4d  CUI_processMenuUpdate                                            
00001f9b  Board_initHook                                                   
00002885  Jdllc_process                                                    
00002cbd  ti_sysbios_runtime_System_doPrint                                
00003a3f  Sensor_process                                                   
00003d67  LED_init                                                         
00003d69  macWrapperAddDevice                                              
00004085  macRxCb                                                          
00004379  macBuildHeader                                                   
00004665  macRadioCsmaTxCb                                                 
00004ee7  NOROM_RFCCpePatchReset                                           
00005000  __STACK_SIZE                                                     
000051a1  macRadioInitSubG                                                 
00005409  RF_open                                                          
00005655  ti_sysbios_runtime_Startup_exec                                  
00005ae1  rfSetConfigSubG                                                  
00005d0f  Ssf_sensorReadingUpdate                                          
00005d11  MAC_MlmeSetSecurityReq                                           
00005f39  ti_sysbios_family_arm_v8m_Hwi_Instance_init                      
0000615b  Ssf_trackingUpdate                                               
0000615d  CUI_registerMenu                                                 
0000637d  macRadioTxRequestTxAck                                           
00006599  macSendReceiveCmdSubG                                            
00006bb5  CUI_statusLinePrintf                                             
00006db1  Ssf_init                                                         
00006fa3  __aeabi_ldiv0                                                    
00006fa5  CUI_init                                                         
00007385  macTxCompleteCallback                                            
00007571  RF_scheduleCmd                                                   
00007b0d  macSecurityPibReset                                              
00007ce5  UART2_readTimeout                                                
00007eb9  macSendReceiveCmdIeee                                            
00008089  ti_sysbios_knl_Clock_workFuncDynamic                             
0000841b  _nop                                                             
0000841d  MAC_MlmeSetReq                                                   
000085d9  pthread_create                                                   
00008791  macTxFrame                                                       
0000893d  ti_sysbios_family_arm_v8m_cc26x4_Timer_construct                 
00008c75  CUI_statusLineResourceRequest                                    
00008e09  PowerCC26X2_auxISR                                               
00008f9d  macWrapperAddKeyInitFCtr                                         
00009131  MAC_MlmeGetSecurityReq                                           
000092b9  UART2_open                                                       
0000943d  macIncomingFrameSecurityMaterialRetrieval                        
0000973f  UART2_writeTimeoutBlocking                                       
000098b3  macApiPwrOnReq                                                   
000098b5  macBuildCommonReq                                                
00009a1d  MAC_McpsDataReq                                                  
00009b7d  macApiScanReq                                                    
00009cdd  txCsmaDelay                                                      
0000a235  Power_sleep                                                      
0000a37d  macDataTxSend                                                    
0000a4c5  MAC_CbackEvent                                                   
0000a74f  macMcuBitReverse                                                 
0000a751  macIncomingFrameSecurity                                         
0000a9d5  macRadioLbtTxCb                                                  
0000ac51  strtol                                                           
0000b11d  RF_close                                                         
0000b375  macRxBeaconCritical                                              
0000b4a1  ti_sysbios_knl_Semaphore_pend                                    
0000b6f7  macNoAction                                                      
0000b821  macAllocTxBuffer                                                 
0000b949  macWrapperDeleteDevice                                           
0000bcb9  macRadioInitIeee                                                 
0000bddd  NVSCC26XX_write                                                  
0000bef9  ti_sysbios_knl_Mailbox_Instance_init                             
0000c12f  macRadioSetRE                                                    
0000c131  Power_init                                                       
0000c361  Sensor_sendMsg                                                   
0000c479  Ssf_stateChangeUpdate                                            
0000c591  UART2_writeTimeoutNonblocking                                    
0000c6a9  NOROM_SetupAfterColdResetWakeupFromShutDownCfg3                  
0000c8d1  txComplete                                                       
0000c9e5  GPIO_init                                                        
0000caf5  LED_open                                                         
0000cc05  macBuildPayloadIes                                               
0000cd15  NOROM_SetupAfterColdResetWakeupFromShutDownCfg2                  
0000cf2d  PowerCC26X2_calibrate                                            
0000d039  ti_sysbios_knl_Task_Instance_finalize                            
0000d145  Ssf_processEvents                                                
0000d24f  ti_sysbios_knl_Clock_startI                                      
0000d461  macBuildDataFrame                                                
0000d66d  ti_sysbios_family_arm_v8m_Hwi_dispatch                           
0000d72e  ti_sysbios_family_arm_v8m_Hwi_interruptsAreDisabledButShouldNotBe
0000d733  ti_sysbios_family_arm_v8m_Hwi_pendSV                             
0000d754  ti_sysbios_family_arm_v8m_Hwi_return                             
0000d771  NOROM_SetupTrimDevice                                            
0000da71  Timer_open                                                       
0000db71  macBuildAssociateReq                                             
0000dc71  macDutyCycleInit                                                 
0000dd71  macRxCompleteCallback                                            
0000de71  macScanNextChan                                                  
0000e263  macRadioTxCancelTxAck                                            
0000e265  PowerCC26XX_standbyPolicy                                        
0000e451  macSetDefaultsByPhyID                                            
0000e545  ti_sysbios_knl_Clock_init                                        
0000e639  UART2Support_dmaStartRx                                          
0000e729  macApiAssociateReq                                               
0000e819  macSetupRATChanCompare                                           
0000e9e9  Button_open                                                      
0000eacd  Sensor_init                                                      
0000ec95  macTxChannelBusyCallback                                         
0000ed79  ti_sysbios_gates_GateMutexPri_enter                              
0000ef41  ti_sysbios_knl_Swi_restoreHwi                                    
0000f025  NOROM_SysCtrlStandby                                             
0000f1e5  macOutgoingFrameKeyDescRetrieval                                 
0000f3a5  ClockP_create                                                    
0000f481  RF_control                                                       
0000f55d  macBuildDisassociateReq                                          
0000f639  Ssf_networkUpdate                                                
0000f713  ti_sysbios_knl_Task_postInit                                     
0000f7ed  macCcmStarTransform                                              
0000f8c5  macScanRxBeacon                                                  
0000fa75  MAC_McpsDataAlloc                                                
0000fc19  macEdScanISR                                                     
0000fdb9  macRadioTxPrepCsmaSlottedSubG                                    
0000fe89  macSymbolTimerUpdateWakeup                                       
0000ff59  ti_sysbios_knl_Task_sleep                                        
000100f5  macCommStatusInd                                                 
000101c1  macDeviceReset                                                   
0001028d  SwiP_construct                                                   
00010357  ApiMac_mlmeSetReqArray                                           
00010421  macOutgoingFrameSecurity                                         
000104e9  macSendDataMsg                                                   
000105b1  HwiP_construct                                                   
00010679  macBuildHeaderIes                                                
00010801  GPIO_setConfigAndMux                                             
000108c1  NOROM_AESWriteToKeyStore                                         
00010981  macTxRequestCsmaRtcDelay                                         
00010a41  scheduleNopWakeupCmd                                             
00010b01  ti_sysbios_knl_Swi_runLoop                                       
00010bbf  ti_sysbios_knl_Task_Instance_init                                
00010c7d  BIOS_startFunc                                                   
00010d39  Power_setDependency                                              
00010eb1  UART2Support_dmaStartTx                                          
00010f6d  ti_sysbios_knl_Task_setPri                                       
00011029  GPTimerCC26XX_open                                               
000110e1  MAC_MlmeResetReq                                                 
00011251  macTxRequestCsmaDelay                                            
00011309  Power_releaseDependency                                          
000113bd  macGetRFCmdDuration                                              
00011471  Sensor_sendIdentifyLedRequest                                    
000115d5  CUI_clientOpen                                                   
00011685  macApiDataReq                                                    
00011735  macBuildBeaconNotifyInd                                          
000117e5  macBuildPayloadCoexistIe                                         
00011895  __udivmoddi4                                                     
00011945  CUI_menuActionHelp                                               
000119f5  RF_pendCmd                                                       
00011aa1  macAutoPendMaintainSrcMatchTable                                 
00011b4d  macDataTxEnqueue                                                 
00011bf9  ti_sysbios_knl_Task_restore                                      
00011ca5  ti_sysbios_knl_Task_startup                                      
00011ea1  macRxInit                                                        
00011f49  macTxStartQueuedFrame                                            
00012099  MAC_SrcMatchAddEntry                                             
00012285  macDataTxComplete                                                
00012329  macMgmtReset                                                     
000123cd  ti_sysbios_runtime_Memory_alloc                                  
0001246f  Jdllc_init                                                       
000125b1  RF_requestAccess                                                 
00012651  macAutoPendAddSrcMatchTableEntry                                 
000126f1  macCbackForEvent                                                 
00012791  ti_sysbios_knl_Swi_post                                          
000128cd  macBuildWSAsyncReq                                               
00012969  macSymbolTimerInit                                               
00012a05  UART2_writeCancel                                                
00012aa1  GPTimerCC26XX_close                                              
00012b39  Jdllc_securityInit                                               
00012c69  RF_defaultSubmitPolicy                                           
00012d01  _pthread_cleanupFxn                                              
00012d99  macIncomingSecurityLevelChecking                                 
00012e31  macRxBeacon                                                      
00012ec9  macScanRxCoordRealign                                            
00012f61  macSymbolTimerTriggerCallback                                    
00012ff9  ti_sysbios_knl_Mailbox_post                                      
00013091  ti_sysbios_knl_Task_restoreHwi                                   
000131c1  MAC_MlmeScanReq                                                  
000132e9  _pthread_removeThreadKeys                                        
0001337d  macTaskInit                                                      
00013411  ti_sysbios_gates_GateMutexPri_leave                              
00013537  ti_sysbios_knl_Semaphore_post                                    
000135c9  ti_sysbios_knl_Task_exit                                         
0001365b  Jdllc_rejoin                                                     
000136ed  RF_getTxPower                                                    
0001377d  UART2_close                                                      
0001380d  macIndirectSend                                                  
0001392d  macStopCmd                                                       
000139bd  ti_sysbios_knl_Swi_restore                                       
00013a4d  sensorTask_                                                      
00013add  TRNG_construct                                                   
00013bf5  macRadioFHEncryptFrame                                           
00013c81  ti_sysbios_knl_Task_enter                                        
00013d0d  ti_sysbios_knl_Swi_startup                                       
00013ea9  macCcmDecrypt                                                    
00013f31  macCcmStarInverseTransform                                       
00013fb9  macRadioSendImmAck                                               
00014041  macRadioUpdateChannel                                            
000140c9  ClockP_construct                                                 
00014151  ApiMac_init                                                      
000141d5  RF_getInfo                                                       
00014259  RF_yield                                                         
000142dd  macBlacklistChecking                                             
00014361  macCcmEncrypt                                                    
000143e5  GPIO_hwiIntFxn                                                   
00014465  OsalPort_setTimer                                                
000144e5  macFrameDurationSubG                                             
00014565  macTxDoneCallback                                                
000145e5  main                                                             
00014665  NVOCMP_loadApiPtrs                                               
000146e5  NOROM_SetupStepVddrTrimTo                                        
00014761  RF_ratDisableChannel                                             
000147dd  macMcuOverflowSetPeriod                                          
00014859  macPwrVote                                                       
000148d5  macSetupReceiveCmd                                               
00014951  Board_shutDownExtFlash                                           
00014a45  ti_sysbios_knl_TaskSupport_start                                 
00014ac1  NOROM_ChipInfo_GetChipType                                       
00014b39  NVSCC26XX_open                                                   
00014c29  macRequestBackoff                                                
00014ca1  macRxAssocRsp                                                    
00014d19  ti_sysbios_family_arm_v8m_Hwi_dispatchC                          
00014d91  HwiP_destruct                                                    
00014e07  UART2Support_dmaStopTx                                           
00014e7d  OsalPort_heapInit                                                
00014f65  macKeyDescriptorLookup                                           
00014fd9  macMcuOverflowSetCompare                                         
0001504d  macRadioTxEnhAckCb                                               
000150c1  macUpdateHeaderIEPtr                                             
00015135  ti_sysbios_knl_Mailbox_pend                                      
000151a9  LED_startBlinking                                                
0001521b  pthread_mutex_lock                                               
0001536d  NOROM_IntDisable                                                 
000153dd  OsalPort_pwrmgrTaskState                                         
000154bd  macRadioStartScan                                                
0001552d  macTimerUpdateSymbolTimer                                        
0001559d  __TI_decompress_lzss                                             
0001560d  AESCCM_construct                                                 
00015679  NOROM_IntEnable                                                  
000156e5  NOROM_SysCtrl_DCDC_VoltageConditionalControl                     
000157bd  Random_seedAutomatic                                             
00015829  Ssf_getNetworkInfo                                               
00015901  macApiDisassociateReq                                            
0001596d  macRxOffRequest                                                  
000159d9  macSetupFsCmd                                                    
00015ab1  MAC_InitDevice                                                   
00015b19  PowerCC26X2_updateSubSecInc                                      
00015be9  macDisassocComplete                                              
00015c51  macRadioPowerDown                                                
00015cb9  macScanStartTimer                                                
00015d21  macTimerSetRollover                                              
00015d89  macTxGetDefaultMinTxOffTime                                      
00015e59  control_taskInit                                                 
00015ec1  MAC_Init                                                         
00015f25  OsalPort_clearEvent                                              
00015f89  PowerCC26X2_initiateCalibration                                  
00016119  Ssf_getFrameCounter                                              
0001617d  UDMACC26XX_open                                                  
000161e1  macAssocDataRxInd                                                
00016245  macLowLevelInit                                                  
000162a9  macMcuInit                                                       
0001630d  macRadioTxPrepLbt                                                
00016371  macRxHaltCleanup                                                 
000163d5  macTimerRealign                                                  
00016439  pthread_exit                                                     
0001649d  ti_sysbios_knl_Semaphore_pendTimeout                             
00016563  SemaphoreP_construct                                             
000165c5  CryptoResourceCC26XX_constructRTOSObjects                        
00016625  NOROM_SetupAfterColdResetWakeupFromShutDownCfg1                  
00016685  OsalPort_setEvent                                                
000166e5  SemaphoreP_createBinary                                          
00016745  Timer_setPeriod                                                  
000167a5  macBeaconSyncLoss                                                
00016805  macDataReset                                                     
00016865  macExecute                                                       
000168c5  macScanComplete                                                  
00016925  macSendMsg                                                       
00016985  macSymbolTimerPeriodIsr                                          
000169e5  macTrackPeriodCallback                                           
00016a45  NOROM_RFCAnaDivTxOverride                                        
00016aa3  UART2Support_dmaStopRx                                           
00016b01  ti_sysbios_family_arm_v8m_cc26x4_Timer_dynamicMultiStub          
00016b61  MAC_ResumeReq                                                    
00016bbd  NOROM_SetupGetTrimForAmpcompCtrl                                 
00016c19  OsalPort_msgReceive                                              
00016c75  macBuildWSAsyncMsg                                               
00016cd1  macCanSleep                                                      
00016d2d  macRxDisassoc                                                    
00016d89  macUpdatePayloadIEPtr                                            
00016de5  ti_sysbios_family_arm_v8m_Hwi_initStacks                         
00016e41  Button_gpioCallbackFxn                                           
00016ef1  HEAPMGR_GETLARGESTFREEBUF                                        
00016f49  NOROM_OSCHF_AttemptToSwitchToXosc                                
00016fa1  NOROM_SetupGetTrimForAnabypassValue1                             
00016ff9  OsalPort_msgSend                                                 
000170a9  TRNG_init                                                        
00017101  macPollDataRxInd                                                 
00017159  macRadioTxBackoffBoundary                                        
000171b1  macRadioTxGoLbt                                                  
00017209  macRxCoordRealign                                                
00017261  macRxOn                                                          
000172b9  BIOS_exitFunc                                                    
00017311  Board_sendExtFlashByte                                           
00017367  StructRingBuf_put                                                
000173bd  UART2_readCancel                                                 
00017413  UtilTimer_construct                                              
00017469  GPTimerCC26XX_stop                                               
000174bd  MAC_SrcMatchEnable                                               
00017565  macApiPollReq                                                    
000175b9  macBeaconSetupCap                                                
0001760d  macIncomingKeyUsagePolicyChecking                                
00017661  macRadioTxPrepSlotted                                            
000176b5  macRequestSFDTimeout                                             
00017709  macTimerAddTimer                                                 
0001775d  macTimerCancel                                                   
000177b1  macTxAckReceivedCallback                                         
00017805  pthread_mutex_init                                               
00017859  ti_sysbios_knl_Mailbox_create                                    
000178ab  AESCCM_setNonce                                                  
000178fd  GPTimerCC26XX_start                                              
0001799d  macAssocDataReqComplete                                          
000179ed  macCheckIndPacket                                                
00017a3d  macRadioSetChannel                                               
00017a8d  macRadioTxPrepCsmaSlottedIeee                                    
00017add  macRadioUpdateTxPower                                            
00017b2d  macTimerGetNextTimer                                             
00017bcd  sem_init                                                         
00017c1d  ClockP_getTimeout                                                
00017c6d  GPTimerCC26XX_registerInterrupt                                  
00017cb9  MAC_SrcMatchAckAllPending                                        
00017d05  NOROM_IntPendClear                                               
00017d51  NOROM_SetupSetCacheModeAccordingToCcfgSetting                    
00017d9d  NVSCC26XX_read                                                   
00017e35  RF_getCurrentTime                                                
00017e81  StructRingBuf_get                                                
00017ecd  macDutyCycleByteToUSec                                           
00017f19  macGetRadioTxPowerReg                                            
00017f65  macRadioSendEnhAck                                               
00017fb1  macRadioTxHandleAck                                              
00017ffd  macRadioWakeupCb                                                 
00018049  macSymbolTimerEventHandler                                       
00018095  macSymbolTimerRolloverCallback                                   
0001812d  ti_sysbios_knl_Task_sleepTimeout                                 
000181c3  Ssf_toggleLED                                                    
0001820d  BIOS_atExitFunc                                                  
00018255  MAC_SrcMatchSetDefaultPend                                       
0001829d  NOROM_ChipInfo_GetHwRevision                                     
000182e5  NOROM_RFCSynthPowerDown                                          
0001832d  NVS_open                                                         
000183bd  PowerCC26XX_switchXOSC_HF                                        
00018405  UART2_readFull                                                   
0001844d  macMainReset                                                     
00018495  RingBuf_put                                                      
00018521  NOROM_PRCMPowerDomainsAllOff                                     
00018565  NOROM_PRCMPowerDomainsAllOn                                      
000185a9  NVSCC26XX_init                                                   
000185ed  PWM_init                                                         
00018631  RF_TxPowerTable_findValue                                        
000186b9  Ssf_configurationUpdate                                          
000186fd  Ssf_setPollClock                                                 
00018741  Ssf_setReadingClock                                              
00018785  Ssf_setScanBackoffClock                                          
000187c9  Ssf_updateFrameCounter                                           
0001880d  Timer_start                                                      
00018851  macAssocDataReq                                                  
00018895  macPollDataReqComplete                                           
000188d9  macRadioTxPrepCsmaUnslottedSubG                                  
0001891d  macRatDisableChannels                                            
00018961  macRxNokIsr                                                      
000189a5  macSendFsCmd                                                     
000189e9  HwiP_enableInterrupt                                             
00018a2b  Jdllc_addSecDevice                                               
00018a6d  Jdllc_setDefaultKey                                              
00018af1  convertTxOptions                                                 
00018b33  macDestSAddrCmp                                                  
00018b75  Jdllc_join                                                       
00018bb5  MAC_MlmeGetReq                                                   
00018bf5  OsalPort_deleteTimer                                             
00018c35  OsalPort_msgEnqueueMax                                           
00018c75  PWM_open                                                         
00018cb5  PowerCC26X2_RCOSC_clockFunc                                      
00018cf5  Timer_stop                                                       
00018db5  control_task_mail_post_InfoToHub                                 
00018e35  macPollFrameResponseTimeout                                      
00018e75  macSetDefaultsByPatch                                            
00018eb5  macSymbolTimerRealignIeee                                        
00018ef5  macSymbolTimerRealignSubG                                        
00018f35  macTimerUpdActive                                                
00018f75  macTxFrameIsr                                                    
00018fb5  macTxTimestampCallback                                           
00019035  Jdllc_getJoiningPanId                                            
00019073  LED_setBrightnessLevel                                           
000190b1  LED_setOff                                                       
000190ef  Ssf_getConfigInfo                                                
0001912d  ApiMac_convertCapabilityInfo                                     
00019169  GPIO_resetConfig                                                 
000191a5  MAC_SrcMatchCheckResult                                          
000191e1  NOROM_OSC_HPOSCRelativeFrequencyOffsetGet                        
00019295  macMRFSKGetPhyDesc                                               
000192d1  macRadioSetPanCoordinator                                        
0001930d  macRadioSetPanID                                                 
00019349  macRxDisable                                                     
00019385  macStartFrameResponseTimer                                       
000193c1  macTxDecrypt                                                     
000193fd  mac_msg_deallocate                                               
00019439  ti_sysbios_knl_TaskSupport_swap                                  
00019452  ti_sysbios_knl_TaskSupport_swapReturn                            
00019475  Jdllc_sendDisassociationRequest                                  
000194af  macCheckPhyRate                                                  
000194e9  malloc                                                           
00019525  GPTimerCC26XX_unregisterInterrupt                                
0001955d  LED_setOn                                                        
00019595  MAC_SrcMatchDeleteEntry                                          
000195cd  NOROM_AUXSYSIFOpModeChange                                       
00019605  NOROM_OSCClockSourceSet                                          
00019675  OsalPort_waitEvent                                               
000196ad  Random_getNumber                                                 
000196e5  RingBuf_putAdvance                                               
0001971d  SemaphoreP_constructBinary                                       
00019755  Ssf_initializePollClock                                          
0001978d  Ssf_initializeScanBackoffClock                                   
000197c5  SwiP_setPriority                                                 
000197fd  UART2_rxEnable                                                   
00019835  UDMACC26XX_close                                                 
0001986d  macAssocFailed                                                   
000198a5  macBeaconStopTrack                                               
000198dd  macDataRxInd                                                     
00019915  macIncomingNonSlottedTx                                          
0001994d  macRadioNeedAdjustPower                                          
00019985  macRadioSetIEEEAddr                                              
000199bd  macRxCheckMACPendingCallback                                     
000199f5  macSymbolTimerCount                                              
00019a2d  macTxAckNotReceivedCallback                                      
00019a65  macTxFrameRetransmit                                             
00019a9d  macTxUpdateIE                                                    
00019ad5  ti_sysbios_family_arm_v8m_Hwi_excHandlerAsm                      
00019b0d  timer_callback                                                   
00019b45  __TI_auto_init_nobinit_nopinit                                   
00019b7d  CryptoUtils_buffersMatch                                         
00019bb3  Ssf_initializeReadingClock                                       
00019be9  pthread_mutex_unlock                                             
00019cbd  NOROM_PRCMPowerDomainOff                                         
00019cf1  NOROM_TRNGConfigure                                              
00019d25  OsalPortTimers_cleanUpTimers                                     
00019d59  OsalPort_registerTask                                            
00019d8d  PowerCC26X2_setAclkRefSrc                                        
00019dc1  Power_releaseConstraint                                          
00019df5  RF_powerConstraintRelease                                        
00019e5d  Ssf_displayError                                                 
00019e91  UART2_rxDisable                                                  
00019ef9  macApiWSAsyncReq                                                 
00019f2d  macAssociateCnf                                                  
00019f61  macDutyCycleUpdateTransmission                                   
00019f95  macRadioPowerUp                                                  
00019fc9  macRadioStopScan                                                 
00019ffd  macRadioTxGoSlottedCsma                                          
0001a031  macRadioTxPrepGreenPower                                         
0001a065  macScanCnfInit                                                   
0001a101  macSymbolTimerSetTrigger                                         
0001a135  macTxAbortIsr                                                    
0001a169  _c_int00                                                         
0001a19d  MAC_SrcMatchSetPend                                              
0001a1cf  SemaphoreP_delete                                                
0001a201  ti_sysbios_runtime_System_exit                                   
0001a233  ti_sysbios_runtime_System_printf                                 
0001a295  GPIO_setInterruptConfig                                          
0001a2c5  NOROM_AESStartDMAOperation                                       
0001a2f5  NOROM_PRCMPowerDomainOn                                          
0001a325  NOROM_SysCtrlIdle                                                
0001a355  NVSCC26XX_erase                                                  
0001a385  OsalPort_msgExtract                                              
0001a3b5  PowerCC26X2_oscDisableQualifiers                                 
0001a3e5  PowerCC26X2_setTdcClkSrc24M                                      
0001a415  PowerCC26XX_schedulerDisable                                     
0001a445  Power_setConstraint                                              
0001a4a5  Ssf_OnLED                                                        
0001a4d5  Timer_close                                                      
0001a505  macDeviceDescriptorLookup                                        
0001a535  macFrameDurationIeee                                             
0001a565  macHandleTxAck                                                   
0001a595  macRadioLimitTxPower                                             
0001a5c5  macRadioTxPrepCsmaUnslottedIeee                                  
0001a5f5  macSetUserConfig                                                 
0001a625  macTimerInit                                                     
0001a655  macTimerRecalcUnaligned                                          
0001a6e3  RingBuf_getConsume                                               
0001a711  RingBuf_putPointer                                               
0001a73f  Ssf_OffLED                                                       
0001a76d  Ssf_clearNetworkInfo                                             
0001a7c9  ClockP_delete                                                    
0001a7f5  NOROM_AESReadFromKeyStore                                        
0001a821  NOROM_AESReadTag                                                 
0001a84d  NOROM_OSCHF_SwitchToRcOscTurnOffXosc                             
0001a879  NOROM_uDMAChannelAttributeDisable                                
0001a8a5  NVS_init                                                         
0001a8d1  PowerCC26X2_releasePeriphDependency                              
0001a8fd  PowerCC26X2_setPeriphDependency                                  
0001a929  PowerCC26X2_setSubSecIncToXoscLf                                 
0001a9d9  UART2Support_enableInts                                          
0001aa05  macDutyCycleCheck                                                
0001aa31  macRadioPowerUpWait                                              
0001aa5d  macRatCb_B                                                       
0001aa89  macRatDisableChannelB                                            
0001aab5  macRxHardDisable                                                 
0001aae1  macSetDefaultsByRE                                               
0001ab0d  macSymbolTimerBCWakeUp                                           
0001ab39  macSymbolTimerICallTimerCback                                    
0001ab65  macTimerAligned                                                  
0001ab91  rf_patch_cpe_multi_protocol                                      
0001abbd  CUI_menuActionBack                                               
0001abe7  NOROM_DDI16BitfieldWrite                                         
0001ac11  OsalPort_buildUint32                                             
0001ac3b  TRNG_generateKey                                                 
0001ac8f  UART2Support_powerRelConstraint                                  
0001acb9  macRadioComputeLQI                                               
0001ace3  radioComputeED                                                   
0001ad0d  GPTimerCC26XX_enableInterrupt                                    
0001ad35  List_remove                                                      
0001ad5d  MAC_MlmeGetPointerSecurityReq                                    
0001ad85  NOROM_AONBatMonTemperatureGetDegC                                
0001adad  NOROM_AONEventMcuWakeUpSet                                       
0001add5  NOROM_OSCClockSourceGet                                          
0001adfd  OsalPort_heapGetStats                                            
0001ae25  OsalPort_msgEnqueue                                              
0001ae4d  PowerCC26XX_isStableXOSC_HF                                      
0001ae9d  macAssocFrameResponseTimeout                                     
0001aec5  macPibReset                                                      
0001aeed  macRxOff                                                         
0001af15  macSetTxPowerVal                                                 
0001af3d  macTxInit                                                        
0001af65  rfSelect                                                         
0001af8d  ti_sysbios_knl_Task_construct                                    
0001afb5  ClockP_getSystemTicks                                            
0001afdb  List_insert                                                      
0001b001  OsalPort_msgDequeue                                              
0001b027  SystemP_snprintf                                                 
0001b04d  UART2Support_powerSetConstraint                                  
0001b073  macLowLevelDiags                                                 
0001b099  sAddrCmp                                                         
0001b0e3  Jdllc_getDefaultKey                                              
0001b107  List_put                                                         
0001b12b  List_putHead                                                     
0001b151  NOROM_AESWaitForIRQFlags                                         
0001b175  NOROM_PRCMPeripheralDeepSleepDisable                             
0001b199  NOROM_PRCMPeripheralRunDisable                                   
0001b1bd  NOROM_PRCMPeripheralSleepDisable                                 
0001b1e1  NOROM_UARTConfigSetExpClk                                        
0001b205  OsalPort_msgAllocate                                             
0001b229  Power_registerNotify                                             
0001b2dd  SemaphoreP_destruct                                              
0001b301  Ssf_stopScanBackoffClock                                         
0001b325  macApiPending                                                    
0001b349  macCoordAddrCmp                                                  
0001b36d  macRadioSwInit                                                   
0001b391  macRatCb_A                                                       
0001b3b5  macRxSoftDisable                                                 
0001b3d9  macRxSoftEnable                                                  
0001b421  macSymbolTimerRestore                                            
0001b445  macSymbolTimerSetRollover                                        
0001b48d  AESCCM_setLengths                                                
0001b4af  LED_stopBlinking                                                 
0001b4d1  List_get                                                         
0001b4f3  PowerCC26XX_schedulerRestore                                     
0001b537  RingBuf_getPointer                                               
0001b559  UART2Support_sendData                                            
0001b57b  UART2_read                                                       
0001b59d  crc_update                                                       
0001b669  sAddrExtCmp                                                      
0001b68b  ti_sysbios_family_arm_v8m_Hwi_switchAndRunFunc                   
0001b6cd  GPTimerCC26XX_configureDebugStall                                
0001b6ed  Jdllc_setChanMask                                                
0001b70d  MAC_AbortScan                                                    
0001b72d  NOROM_PRCMPeripheralDeepSleepEnable                              
0001b74d  NOROM_PRCMPeripheralRunEnable                                    
0001b76d  NOROM_PRCMPeripheralSleepEnable                                  
0001b78d  NOROM_RFCDoorbellSendTo                                          
0001b7ad  NOROM_RFCOverrideSearch                                          
0001b7cd  NOROM_SetupGetTrimForXoscHfCtl                                   
0001b7ed  NOROM_SetupSetAonRtcSubSecInc                                    
0001b80d  NOROM_ThisLibraryIsFor_CC13x4_CC26x4_HaltIfViolated              
0001b82d  PowerCC26X2_disableTCXOQual                                      
0001b84d  PowerCC26X2_enableTCXOQual                                       
0001b86d  Power_unregisterNotify                                           
0001b8ad  RF_getRssi                                                       
0001b90d  RF_setTxPower                                                    
0001b92d  macGetCoordAddress                                               
0001b94d  macGetRadioState                                                 
0001b96d  macMcuTimerCapture                                               
0001b98d  macPibIndex                                                      
0001b9ad  macPollRxDisassoc                                                
0001b9cd  macRadioSetShortAddr                                             
0001b9ed  macRxCheckPendingCallback                                        
0001ba0d  macRxEnable                                                      
0001ba2d  macRxOnOffInit                                                   
0001ba4d  macRxSFDTimerExpiry                                              
0001ba6d  macSymbolTimerSetTriggerRollover                                 
0001ba8d  macTimer                                                         
0001baad  pthread_attr_init                                                
0001bacd  BIOS_rtsLock                                                     
0001baeb  OsalPort_msgDeallocate                                           
0001bb09  UART2_writeTimeout                                               
0001bb29  __aeabi_llsl                                                     
0001bb29  __ashldi3                                                        
0001bb65  macScanFailedInProgress                                          
0001bba1  ClockP_destruct                                                  
0001bbbd  GPIO_read                                                        
0001bbd9  GPIO_setCallback                                                 
0001bbf5  HwiP_setPriority                                                 
0001bc11  NOROM_DDI16BitfieldRead                                          
0001bc2d  NOROM_OSCHF_TurnOnXosc                                           
0001bc49  NOROM_PRCMDeepSleep                                              
0001bc65  NOROM_SysCtrlResetSourceGet                                      
0001bc9d  OsalPort_memcmp                                                  
0001bcb9  PowerCC26X2_getOscHfSourceReady                                  
0001bcd5  PowerCC26X2_writeCtrim                                           
0001bcf1  PowerCC26X2_writeCtrimFract                                      
0001bd0d  PowerCC26X2_writeCtrimFractEn                                    
0001bd29  PowerCC26X2_writeRtrim                                           
0001bd45  Power_getTransitionLatency                                       
0001bd99  RF_powerConstraintSet                                            
0001bdd1  RingBuf_flush                                                    
0001bded  SwiP_destruct                                                    
0001be25  macDataRxMemAlloc                                                
0001be41  macMcuOverflowCapture                                            
0001be5d  macNopBackoffTimerExpiry                                         
0001be95  macRxAckTxDoneCallback                                           
0001beb1  macStartResponseTimer                                            
0001becd  macSymbolTimerPowerDown                                          
0001bf21  ti_sysbios_knl_Task_Params_init                                  
0001bf3d  BIOS_rtsUnlock                                                   
0001bf57  Jdllc_securityFill                                               
0001bf71  LED_toggle                                                       
0001bf8b  MAC_CbackCheckPending                                            
0001bfa5  MAC_CbackQueryRetransmit                                         
0001bfbf  NOROM_TimerStallControl                                          
0001bfd9  NOROM_UARTDisable                                                
0001bff3  NOROM_uDMAChannelSizeGet                                         
0001c00d  UART2Support_disableRx                                           
0001c027  copyApiMacAddrToMacAddr                                          
0001c041  macCheckPhyMode                                                  
0001c05d  ti_sysbios_knl_Idle_loop                                         
0001c079  AESReadAuthenticationModeIV                                      
0001c091  AESWriteKey3                                                     
0001c0a9  CryptoUtils_memset                                               
0001c0c1  GPIO_disableInt                                                  
0001c0d9  MAC_EnableFH                                                     
0001c0f1  NOROM_AESSetInitializationVector                                 
0001c109  NOROM_TRNGNumberGet                                              
0001c121  NVSCC26XX_getAttrs                                               
0001c139  NVSCC26XX_lock                                                   
0001c151  PowerCC26XX_calibrate                                            
0001c169  Power_idleFunc                                                   
0001c181  RF_ScheduleCmdParams_init                                        
0001c199  RF_cancelCmd                                                     
0001c1c9  SwiP_or                                                          
0001c1e1  SystemP_vsnprintf                                                
0001c1f9  Util_clearEvent                                                  
0001c211  Util_setEvent                                                    
0001c229  macBeaconReset                                                   
0001c241  macFrameDuration                                                 
0001c259  macGetMyAddrMode                                                 
0001c271  macPollCnf                                                       
0001c289  macPollRxAssocRsp                                                
0001c2a1  macRadioInit                                                     
0001c2b9  macRadioTxPrepCsmaSlotted                                        
0001c2d1  macRadioTxPrepCsmaUnslotted                                      
0001c2e9  macSendReceiveCmd                                                
0001c301  macSymbolTimerRealign                                            
0001c319  macWrapper8ByteUnused                                            
0001c331  ti_sysbios_knl_TaskSupport_glue                                  
0001c391  Board_init                                                       
0001c3a7  ClockP_start                                                     
0001c3bd  HwiP_interruptsEnabled                                           
0001c3d3  List_clearList                                                   
0001c3e9  RF_ratCompare                                                    
0001c415  macRadioSetTxPower                                               
0001c42b  macTimerRemoveTimer                                              
0001c441  AESCCM_init                                                      
0001c455  ApiMac_mlmeSetReqBool                                            
0001c469  ApiMac_mlmeSetReqUint16                                          
0001c47d  ApiMac_mlmeSetReqUint8                                           
0001c491  ApiMac_mlmeSetSecurityReqUint16                                  
0001c4a5  HwiP_post                                                        
0001c4b9  HwiP_setFunc                                                     
0001c4cd  Jdllc_securityCheck                                              
0001c4e1  MAC_SrcMatchCheckAllPending                                      
0001c4f5  NOROM_AONRTCCurrent64BitValueGet                                 
0001c509  NOROM_SetupGetTrimForRcOscLfRtuneCtuneTrim                       
0001c531  RF_flushCmd                                                      
0001c545  TRNG_close                                                       
0001c56d  __aeabi_uldivmod                                                 
0001c581  _args_main                                                       
0001c595  macConflictSyncLossInd                                           
0001c5a9  macDataSend                                                      
0001c5bd  macMainReserve                                                   
0001c5d1  macRxOnRequest                                                   
0001c5e5  macStateIdleOrPolling                                            
0001c5f9  macStateScanning                                                 
0001c60d  macSymbolSetupPwrMgmt                                            
0001c621  macWSAsyncCnf                                                    
0001c65d  ClockP_getCpuFreq                                                
0001c66f  Jdllc_setJoiningPanId                                            
0001c681  Main_excHandler                                                  
0001c693  NOROM_UARTCharPutNonBlocking                                     
0001c6a5  NVS_write                                                        
0001c6b7  RF_getCmdOp                                                      
0001c6c9  StructRingBuf_construct                                          
0001c6ed  assertHandler                                                    
0001c6ff  macAssocRxDisassoc                                               
0001c711  macCheckSched                                                    
0001c723  macSymbolTimerCompareIsr                                         
0001c735  pthread_attr_setschedparam                                       
0001c747  sAddrCpy                                                         
0001c759  ti_sysbios_family_arm_v8m_cc26x4_Timer_dynamicStub               
0001c76b  ti_sysbios_knl_Mailbox_Params_init                               
0001c78f  TI_memcpy_small                                                  
0001c7a1  AESCCM_Params_init                                               
0001c7b1  AESCCM_open                                                      
0001c7c1  Button_Params_init                                               
0001c7d1  GPIO_write                                                       
0001c7e1  HwiP_Params_init                                                 
0001c7f1  MAC_SrcMatchSetManualAddressTracking                             
0001c801  NOROM_IOCPortConfigureSet                                        
0001c811  NOROM_RFCCpeIntGetAndClear                                       
0001c821  NOROM_RFCHwIntGetAndClear                                        
0001c831  NOROM_VIMSModeGet                                                
0001c8a1  OsalPort_memcpy                                                  
0001c8b1  PWM_Params_init                                                  
0001c8c1  PowerCC26X2_oscCtlClearXtal                                      
0001c8d1  PowerCC26X2_prcmEnableCacheRetention                             
0001c8e1  PowerCC26X2_readCtrim                                            
0001c8f1  PowerCC26X2_readCtrimFract                                       
0001c901  PowerCC26X2_readRtrim                                            
0001c911  PowerCC26X2_switchToTCXO                                         
0001c921  Power_getDependencyCount                                         
0001c931  RingBuf_construct                                                
0001c941  SwiP_Params_init                                                 
0001c951  SwiP_disable                                                     
0001c961  Timer_Params_init                                                
0001c971  UART2Support_txDone                                              
0001c981  macDataTxTimeAvailable                                           
0001c991  macSetEvent16                                                    
0001c9a1  macSetEvent                                                      
0001c9b1  pthread_mutexattr_init                                           
0001c9c1  ti_sysbios_family_arm_v8m_Hwi_excHandler                         
0001c9d1  __TI_zero_init                                                   
0001c9e1  AESCCM_close                                                     
0001c9ef  GPTimerCC26XX_Params_init                                        
0001c9fd  Jdllc_getChanMask                                                
0001ca0b  LED_Params_init                                                  
0001ca19  NVS_read                                                         
0001ca51  RF_RatConfigCompare_init                                         
0001ca5f  Ssf_PostAppSem                                                   
0001ca6d  StructRingBuf_isFull                                             
0001ca7b  TimerSupport_timerFullWidth                                      
0001ca89  UART2_write                                                      
0001ca97  macLowLevelBufferInit                                            
0001caa5  macLowLevelReset                                                 
0001cab3  macLowLevelResume                                                
0001cac1  pthread_self                                                     
0001cacf  sem_wait                                                         
0001caeb  ti_sysbios_knl_Clock_tick                                        
0001caf9  TI_memset_small                                                  
0001cb07  __TI_decompress_none                                             
0001cb15  ApiMac_registerCallbacks                                         
0001cb21  BIOS_linkedWithIncorrectBootLibrary                              
0001cb2d  BIOS_start                                                       
0001cb39  CryptoKeyPlaintext_initBlankKey                                  
0001cb45  CryptoKeyPlaintext_initKey                                       
0001cb51  HwiP_disable                                                     
0001cb5d  Jdllc_getPrevProvState                                           
0001cb69  Jdllc_getProvState                                               
0001cb75  Jdllc_setPollRate                                                
0001cb81  MAC_SrcMatchCheckManualAddressTracking                           
0001cb8d  NOROM_OSC_HPOSCRelativeFrequencyOffsetToRFCoreFormatConvert      
0001cb99  NVSCC26XX_unlock                                                 
0001cbd5  OsalPortTimers_registerCleanupEvent                              
0001cbe1  OsalPort_stopTimer                                               
0001cbed  Power_getConstraintMask                                          
0001cbf9  RF_Params_init                                                   
0001cc05  SwiP_getTrigger                                                  
0001cc11  TimerSupport_timerLoad                                           
0001cc1d  UART2Support_disableTx                                           
0001cc29  UART2Support_enableRx                                            
0001cc35  UART2Support_enableTx                                            
0001cc41  UART2_Params_init                                                
0001cc4d  _register_lock                                                   
0001cc59  _register_unlock                                                 
0001cc65  macDefaultAction                                                 
0001cc71  macIsCsmOperational                                              
0001cc7d  macMainSetTaskId                                                 
0001cc89  macPwrReset                                                      
0001cc95  macRxSequenceNum                                                 
0001cca1  osalHeapInitFxn                                                  
0001ccad  pthread_attr_setdetachstate                                      
0001ccb9  AESCCM_Operation_init                                            
0001ccc3  CUI_clientParamsInit                                             
0001cccd  ClockP_Params_init                                               
0001ccd7  MAC_MlmeAssociateReq                                             
0001cce1  MAC_MlmeDisassociateReq                                          
0001cceb  NOROM_VIMSModeSet                                                
0001cd4f  OsalPort_enterCS                                                 
0001cd59  PowerCC26X2_sysCtrlStandby                                       
0001cd63  SemaphoreP_pend                                                  
0001cd6d  Ssf_free                                                         
0001cd77  Ssf_readTempSensor                                               
0001cd81  TimerSupport_timerDisable                                        
0001cd8b  TimerSupport_timerEnable                                         
0001cd9f  UDMACC26XX_hwiIntFxn                                             
0001cda9  Util_copyExtAddr                                                 
0001cdb5  __aeabi_memset                                                   
0001cdb5  __aeabi_memset4                                                  
0001cdb5  __aeabi_memset8                                                  
0001cdbf  macDataRxMemFree                                                 
0001cdc9  macMcuRandomByte                                                 
0001cdd3  macSetSched                                                      
0001cddd  sem_post                                                         
0001cde7  GPTimerCC26XX_setLoadValue                                       
0001cdef  MAC_MlmePollReq                                                  
0001cdf7  MAC_MlmeSyncReq                                                  
0001cdff  NOROM_CPUcpsid                                                   
0001ce07  NOROM_CPUcpsie                                                   
0001ce0f  NVSCC26XX_close                                                  
0001ce27  PowerCC26X2_oschfTrySwitchToXosc                                 
0001ce2f  SemaphoreP_Params_init                                           
0001ce37  UtilTimer_setTimeout                                             
0001ce41  __aeabi_errno_addr                                               
0001ce49  __aeabi_memclr                                                   
0001ce49  __aeabi_memclr4                                                  
0001ce49  __aeabi_memclr8                                                  
0001ce51  macCsmaTimerExpiry                                               
0001ce59  macGetCSMPhy                                                     
0001ce61  macIEEEGetPhyDesc                                                
0001ce69  macRxBackoffTimerExpiry                                          
0001ce71  macTxBackoffTimerExpiry                                          
0001ce79  pthread_attr_setstacksize                                        
0001ce81  ti_sysbios_knl_Mailbox_getNumPendingMsgs                         
0001ce89  AESCCM_oneStepDecrypt                                            
0001ce8f  AESCCM_oneStepEncrypt                                            
0001ce95  Button_setCallback                                               
0001ce9b  CUI_paramsInit                                                   
0001cea1  ClockP_stop                                                      
0001cea7  GPIO_setConfig                                                   
0001cead  GPTimerCC26XX_getArg                                             
0001ceb3  GPTimerCC26XX_setArg                                             
0001ceb9  HwiP_restore                                                     
0001cebf  NOROM_CPUdelay                                                   
0001cec5  NVSCC26XX_control                                                
0001cecb  NVS_erase                                                        
0001ced1  NVS_getAttrs                                                     
0001cef5  OsalPort_leaveCS                                                 
0001cefb  PWM_close                                                        
0001cf01  PWM_setDuty                                                      
0001cf07  PWM_start                                                        
0001cf0d  RF_RatConfigOutput_init                                          
0001cf19  RF_runDirectCmd                                                  
0001cf1f  RF_runImmediateCmd                                               
0001cf25  Util_bufferUint16                                                
0001cf2b  Util_bufferUint32                                                
0001cf31  macApiBadState                                                   
0001cf37  macApiUnsupported                                                
0001cf3d  macRadioTxGoGreenPower                                           
0001cf43  macRadioTxGoSlotted                                              
0001cf49  macSecCpy                                                        
0001cf4f  macTxBackoffHandler                                              
0001cf55  macTxCsmaDelay                                                   
0001cf5b  osalHeapAllocFxn                                                 
0001cf61  osalHeapFreeFxn                                                  
0001cf67  osalHeapGetStatsFxn                                              
0001cf6d  sAddrExtCpy                                                      
0001cf73  ti_sysbios_family_arm_v8m_Hwi_doSwiRestore                       
0001cf79  ti_sysbios_family_arm_v8m_Hwi_doTaskRestore                      
0001cf7f  ti_sysbios_heaps_HeapCallback_alloc                              
0001cf85  ti_sysbios_heaps_HeapCallback_free                               
0001cf8b  ti_sysbios_heaps_HeapCallback_getStats                           
0001cf91  ti_sysbios_heaps_HeapCallback_isBlocking                         
0001cf97  ApiMac_mcpsDataReq                                               
0001cf9b  ApiMac_mlmeAssociateReq                                          
0001cf9f  ApiMac_mlmeDisassociateReq                                       
0001cfa3  ApiMac_mlmeGetReqArray                                           
0001cfa7  ApiMac_mlmeGetReqBool                                            
0001cfab  ApiMac_mlmeGetReqUint16                                          
0001cfaf  ApiMac_mlmeGetReqUint32                                          
0001cfb3  ApiMac_mlmePollReq                                               
0001cfb7  ApiMac_mlmeScanReq                                               
0001cfbb  ApiMac_mlmeSetSecurityReqArray                                   
0001cfbf  ApiMac_mlmeSetSecurityReqStruct                                  
0001cfc3  ApiMac_mlmeSyncReq                                               
0001cfc7  ApiMac_randomByte                                                
0001cfcb  ApiMac_secAddDevice                                              
0001cfcf  ApiMac_secAddKeyInitFrameCounter                                 
0001cfd3  ApiMac_secDeleteDevice                                           
0001cfd7  Button_init                                                      
0001cfdb  ClockP_getSystemTickPeriod                                       
0001cfdf  ClockP_isActive                                                  
0001cfe3  ClockP_setTimeout                                                
0001cfe7  MAC_RandomByte                                                   
0001cfeb  NOROM_DDI32RegWrite                                              
0001cfef  NOROM_RFCOverrideUpdate                                          
0001cff3  OsalPort_free                                                    
0001cff7  OsalPort_malloc                                                  
0001cffb  PowerCC26X2_oscClockSourceGet                                    
0001cfff  PowerCC26X2_oschfSwitchToRcosc                                   
0001d003  PowerCC26X2_setPeriphDeepSleepEnable                             
0001d007  PowerCC26X2_sysCtrlGetResetSource                                
0001d00b  PowerCC26X2_sysCtrlIdle                                          
0001d00f  PowerCC26X2_sysCtrlUpdateVoltageRegulator                        
0001d013  PowerCC26X2_turnOnXosc                                           
0001d017  RF_defaultExecutionPolicy                                        
0001d01b  ResetISR                                                         
0001d01f  RingBuf_getCount                                                 
0001d023  SemaphoreP_post                                                  
0001d027  Ssf_malloc                                                       
0001d02b  SwiP_restore                                                     
0001d02f  TRNG_generateEntropy                                             
0001d033  UtilTimer_isActive                                               
0001d037  UtilTimer_start                                                  
0001d03b  UtilTimer_stop                                                   
0001d03f  Util_parseUint16                                                 
0001d043  Util_parseUint32                                                 
0001d049  __aeabi_memcpy                                                   
0001d049  __aeabi_memcpy4                                                  
0001d049  __aeabi_memcpy8                                                  
0001d04d  _system_post_cinit                                               
0001d051  _system_pre_init                                                 
0001d059  macBcTimerHandler                                                
0001d05d  macDataTxDelayCallback                                           
0001d061  macPanConflictComplete                                           
0001d065  macPibCheckByPatch                                               
0001d069  macRadioRandomByte                                               
0001d06d  macRxBackoffHandler                                              
0001d075  macSymbolTimerReset                                              
0001d079  macTxAckIsr                                                      
0001d081  osalHeapIsBlockingFxn                                            
0001d085  ti_sysbios_runtime_System_exitSpin                               
0001d088  __c_args__                                                       
0001d6c0  __aeabi_ctype_table_                                             
0001d6c0  __aeabi_ctype_table_C                                            
0001d8c1  macPibTbl                                                        
0001dacc  macPibDefaults                                                   
0001dbdb  macAssociatingSt                                                 
0001dc4d  macIdleSt                                                        
0001dcbf  macPollingSt                                                     
0001dd31  macScanningSt                                                    
0001dda3  Button_count                                                     
0001dda4  macRfDriverTable                                                 
0001de10  resourceDB                                                       
0001de78  macSecurityPibTbl                                                
0001df28  macMRFSKStdPhyTable                                              
0001e000  macCryptoDriverTable                                             
0001e040  macTimerRolloverValue                                            
0001e0c0  macCmdIncludeFHIe                                                
0001e12c  RF_cmdPropRxAdv_2gfsk50kbps154g                                  
0001e18c  NVSCC26XX_fxnTable                                               
0001e1b4  RF_cmdPropRadioDivSetup_2gfsk50kbps154g                          
0001e1dc  activityObject                                                   
0001e204  UART2_defaultParams                                              
0001e26c  RF_cmdPropTxAdv_2gfsk50kbps154g                                  
0001e324  RF_cmdPropCs_2gfsk50kbps154g                                     
0001e3e8  PWM_defaultParams                                                
0001e400  RF_cmdFs_2gfsk50kbps154g                                         
0001e418  macSendMsgBufSize                                                
0001e578  Button_defaultParams                                             
0001e58c  PowerCC26X2_config                                               
0001e5a0  TRNG_defaultParams                                               
0001e5b4  msacbackSizeTable                                                
0001e67b  GPIO_pinLowerBound                                               
0001e67c  AESCCM_defaultParams                                             
0001e69c  Button_config                                                    
0001e6ac  GPIO_config                                                      
0001e6bc  LED_config                                                       
0001e6dc  macIEEEPhyTable                                                  
0001e6ec  timerCC26XXHWAttrs                                               
0001e729  macCmdBufSize                                                    
0001e737  macTxFrameFailed                                                 
0001e745  macTxFrameSuccess                                                
0001e770  GPTimerCC26XX_config                                             
0001e77c  NVS_config                                                       
0001e788  RFCC26XX_hwAttrs                                                 
0001e7b8  gptimerCC26XXHWAttrs                                             
0001e7c4  macCbackEventTbl                                                 
0001e7d0  macSendMsgDataSize                                               
0001e820  macCmdLen                                                        
0001e84f  GPIO_pinUpperBound                                               
0001e850  AESCCM_config                                                    
0001e858  Jdllc_keySource                                                  
0001e860  LED_defaultParams                                                
0001e868  Timer_config                                                     
0001e870  UART2_config                                                     
0001e878  UDMACC26XX_config                                                
0001e8a0  macAuthTagLen                                                    
0001e8c0  ti_sysbios_knl_Idle_funcList                                     
0001e8c8  udmaCC26XXHWAttrs                                                
0001e90f  LED_count                                                        
0001e910  NVS_defaultParams                                                
0001e914  TimestampP_nativeFormat32                                        
0001e918  TimestampP_nativeFormat64                                        
0001e924  macKeySourceLen                                                  
0001e93c  ti_sysbios_family_arm_v8m_Hwi_swiTaskKeyAddress                  
0001e940  ti_sysbios_knl_Clock_tickPeriod                                  
0001e948  NVS_count                                                        
0001e949  Timer_count                                                      
0001e94a  UART2_count                                                      
0001e94b  aesccmCC26X4HWAttrs                                              
0001ec70  __TI_Handler_Table_Base                                          
0001ec7c  __TI_Handler_Table_Limit                                         
0001eca4  __TI_CINIT_Base                                                  
0001ecd4  __TI_CINIT_Limit                                                 
0001ecd4  __TI_CINIT_Warm                                                  
200002c0  uart2CC26X2Objects                                               
20000470  controlTaskStack                                                 
20001870  sensorTaskStack                                                  
20002070  tBuffer                                                          
20002a70  ti_sysbios_knl_Idle_taskStack                                    
20002c70  menuBuff                                                         
20002e18  taskTbl                                                          
20003080  ti_sysbios_family_arm_v8m_Hwi_dispatchTable                      
2000317c  enhancedAckBuf                                                   
20003278  gpioCallbackFunctions                                            
20003338  gpioUserArgs                                                     
200033f8  LEDObjects                                                       
200034b0  timerCC26XXObjects                                               
2000353c  FH_hnd                                                           
200035c4  macPib                                                           
200036b8  aesccmCC26X4Objects                                              
20003720  ti_sysbios_knl_ClockSupport_timerStruct                          
20003780  RF_cmdIEEERx                                                     
200037d8  controlTask                                                      
20003830  sensorTask                                                       
20003888  ti_sysbios_knl_Idle_taskStruct                                   
200038e0  macScan                                                          
20003a74  CryptoResourceCC26XX_accessSemaphore                             
20003ac4  CryptoResourceCC26XX_operationSemaphore                          
20003b14  cuiMultiMenuData                                                 
20003b60  gptimerCC26XXObjects                                             
20003bac  ButtonObjects                                                    
20003d48  macSecurityPib                                                   
20003dc4  macDeviceAction1                                                 
20003dfc  dcBucket                                                         
20003e30  macBeaconDevice                                                  
20003e64  RF_cmdPropRadioDivSetup                                          
20003e94  RF_cmdPropRxAdv                                                  
20003ec4  macMgmtAction1                                                   
20003ef4  macSrcExtAddrList                                                
20003f24  ti_sysbios_knl_Swi_readyQs                                       
20003f54  ti_sysbios_knl_Task_readyQs                                      
20003f84  NVOCMP_nvHandle                                                  
20003fe0  macDevice                                                        
2000400c  controlTaskParam                                                 
20004030  sensorTaskParam                                                  
20004094  RF_cmdIEEECsma                                                   
200040b4  RF_cmdPropTxAdv                                                  
200040d4  RF_cmdRadioSetup                                                 
200040f4  RF_params                                                        
20004114  macBeacon                                                        
20004134  udmaCC26XXObject                                                 
200041a8  BIOS_heapCallbackObject                                          
200041c4  BIOS_rtsGate                                                     
200041e0  CryptoResourceCC26XX_hwi                                         
200041fc  RF_cmdPropCs                                                     
20004218  RF_cmdPropCsSlotted                                              
20004234  control_task_InfoToHub_params                                    
20004250  macReset                                                         
2000426c  macSemHandle                                                     
20004288  macSrcShortAddrList                                              
200042a4  RF_cmdFsRx                                                       
200042bc  RF_cmdFsTx                                                       
200042d4  RF_cmdIEEETx                                                     
200042ec  macScanAction                                                    
2000432c  RF_cmdRxAckCmd                                                   
20004340  macAckDbg                                                        
20004354  macDeviceAction2                                                 
20004368  macMgmtAction2                                                   
2000437c  macStatistics                                                    
200043b0  macData                                                          
200043c0  macDataTxDelay                                                   
200043d0  macFrmFilter                                                     
200043e0  macRxOutputIeee                                                  
200043f0  control_Task_dev_info                                            
20004424  coexMetricsStruct                                                
20004430  macMain                                                          
2000443c  macRxOutputSubG                                                  
20004468  ApiMac_extAddr                                                   
20004470  coexOverrideUseCases                                             
20004478  macRxDataEntryQueue                                              
200044c4  AESCCM_handle                                                    
200044c8  HEAPMGR_SIZE                                                     
200044cc  PowerCC26XX_swiKey                                               
200044d0  PowerCC26XX_taskKey                                              
200044d4  dcCritical                                                       
200044d8  dcLimited                                                        
200044dc  dcPtr                                                            
200044e0  dcRegulated                                                      
200044e4  dcTimeUsed                                                       
200044e8  macAddrLsb                                                       
200044ec  macAddrMsb                                                       
200044f0  macCryptoDrvTblPtr                                               
200044f4  macPhyTxPower                                                    
200044f8  macPrevPeriodRatCount                                            
200044fc  macRfDrvTblPtr                                                   
20004500  macRxSymbol                                                      
20004504  macSymbolTimerRollover                                           
20004508  macSymbolTimerTrigger                                            
2000450c  macThread                                                        
20004510  macTimerActive                                                   
20004514  macTxTimestamp                                                   
20004518  pClockHandleEDScan                                               
2000451c  pMacRadioConfig                                                  
20004520  pMaxPower                                                        
20004524  pRfMode                                                          
20004528  pRfPowerTable                                                    
2000452c  rxRadioBufferPtr                                                 
20004530  sensorStatusLine                                                 
20004534  ssfCuiHndl                                                       
20004538  ti_sysbios_family_arm_v8m_cc26x4_Timer_funcHookCH1               
2000453c  ti_sysbios_family_arm_v8m_cc26x4_Timer_funcHookCH2               
20004540  ti_sysbios_knl_Task_defaultStackHeap                             
20004544  ti_sysbios_runtime_System_atexitHandlers                         
20004548  timerAlignedQ                                                    
2000454c  timerUnalignedQ                                                  
20004552  conv                                                             
20004554  macRxDataEntryOffset                                             
20004556  macTxCsmaBackoffDelay                                            
20004558  rxCmdHandle                                                      
2000455a  txCmdHandle                                                      
2000455e  AppTaskId                                                        
2000455f  NVOCMP_size                                                      
20004560  appTaskId                                                        
20004561  dcStatus                                                         
20004562  gAction                                                          
20004563  lastRxPriority                                                   
20004564  lastTxPriority                                                   
20004565  macAckTxActive                                                   
20004566  macMgmt                                                          
20004567  macPanCoordinator                                                
20004568  macPhyChannel                                                    
20004569  macPwr                                                           
2000456a  macRxActive                                                      
2000456b  macRxEnableFlags                                                 
2000456c  macRxFilter                                                      
2000456d  macRxOutgoingAckFlag                                             
2000456e  macSpecUsecsPerSymbol                                            
2000456f  macSrcResIndex                                                   
20004570  macSymbolTimerImpending                                          
20004571  macTaskId                                                        
20004572  macTxActive                                                      
20004573  macTxBe                                                          
20004574  macTxGpInterframeDelay                                           
20004575  macTxType                                                        
20004576  macUnitBackoffPeriod                                             
20004577  nvsCC26XXObjects                                                 
20004578  rxFhRsl                                                          
20004579  rxPromiscuousMode                                                
2000457a  rxSeqNum                                                         
2000457b  txAckReq                                                         
2000457c  txSeqn                                                           
20004600  PowerCC26X2_module                                               
20004778  gpioPinConfigs                                                   
20004838  macMRFSKGenPhyTable                                              
200048d8  fhObject                                                         
200049ac  ti_sysbios_knl_Clock_Module_state                                
20004a78  txPowerTable_868_pa13                                            
20004adc  Main_user1Cfg                                                    
20004c20  configureSubMenu                                                 
20004c60  ssfMainMenu                                                      
20004ca0  ti_sysbios_family_arm_v8m_Hwi_Module_state                       
20004cdc  ti_sysbios_knl_Task_Module_state                                 
20004d50  commissionSubMenu                                                
20004d84  macBeaconPayload                                                 
20004de8  Sensor_msgStats                                                  
20004e18  BIOS_Module_state                                                
20004e70  pOverrides_2gfsk50kbps154g                                       
20004e9c  appSubMenu                                                       
20004ec4  ti_sysbios_knl_Swi_Module_state                                  
20004f10  macActionSet                                                     
20004f38  lastRatChanA                                                     
20004f39  lastRatChanB                                                     
20004f3a  macRxCmdActive                                                   
20004f3b  macFsCmdActive                                                   
20004f3c  macRxPreempted                                                   
20004f3d  numRfCmd                                                         
20004f3e  numRxCmd                                                         
20004f3f  numRxPostCmd                                                     
20004f40  ieeeCoexEnabled                                                  
20004f44  lastPostCmd                                                      
20004f48  macSfdDetectCback                                                
20004f58  macBeaconMargin                                                  
20004fba  macSrcMatchIsAckAllPending                                       
20004fbb  macSrcMatchDefaultPendOn                                         
20004fd0  macStateTbl                                                      
20004fe4  macUser0Cfg                                                      
2000501c  RF_cmdNop                                                        
2000502c  RF_cmdNopFg                                                      
2000503c  RF_prop_2gfsk50kbps154g                                          
2000504c  _hposcCoeffs                                                     
2000506c  macCfg                                                           
2000508a  Jdllc_events                                                     
200050b0  taskCnt                                                          
200050b4  heapmgrMemFreeTotal                                              
200050b8  heapmgrMemFreeError                                              
200050bc  ti_sysbios_family_arm_v8m_cc26x4_Timer_Module_state              
200050c8  ti_sysbios_runtime_Error_ignore                                  
200050d4  ti_sysbios_runtime_System_Module_state                           
200050ea  collectorAddr_app                                                
20005110  RF_handle                                                        
20005114  macRadioAckIeeeFrame                                             
20005117  macRadioAckFrame                                                 
2000511c  macCsmaRtcTimerId                                                
2000512c  RFCC26XX_schedulerPolicy                                         
20005134  ti_sysbios_gates_GateMutexPri_Module_state                       
2000513c  ti_sysbios_heaps_HeapCallback_Module_state                       
20005144  ti_sysbios_knl_Mailbox_Module_state                              
2000514c  ti_sysbios_knl_Semaphore_Module_state                            
20005160  __aeabi_errno                                                    
20005164  _lock                                                            
20005168  _unlock                                                          
2000516c  appEvents                                                        
20005170  control_task_InfoToHub_handle                                    
20005174  cuiMultiMenu                                                     
20005178  devInfoConfirmationTimer                                         
2000517c  endToEndDelay                                                    
200051a4  macDataBeaconRequeue                                             
200051a8  macDataCheckSched                                                
200051ac  macDataCheckTxTime                                               
200051b0  macDataRequeueIndirect                                           
200051b4  macDataRxBeaconCritical                                          
200051b8  macDataSetSched                                                  
200051bc  macDataTxBeaconComplete                                          
200051c0  macDataTxIndirect                                                
200051d0  macTimerNewRollover                                              
200051d4  macTimerRollover                                                 
200051d8  minTxOffTime                                                     
200051e4  pMacCbackCheckPending                                            
200051e8  pMacCbackQueryRetransmit                                         
200051ec  pMacDataTx                                                       
200051f0  pMacEnhancedAck                                                  
20005208  ti_sysbios_runtime_Memory_defaultHeapInstance                    
2000520c  totalE2EDelaySum                                                 
20005210  Sensor_events                                                    
20005212  Ssf_resetCount                                                   
20005214  assoc_resp_no_ack_cnt                                            
2000521a  personal_addr                                                    
20005222  ApiMac_gpOffsetToms                                              
20005223  ApiMac_mtDataReqTxOptionGp                                       
20005226  Main_assertReason                                                
20005228  Ssf_resetReseason                                                
20005229  bInSwi                                                           
2000522c  csmPhy                                                           
2000522d  customMinTxOffEnabled                                            
2000522e  dcEnabled                                                        
2000522f  devInfoConfirmationFlag                                          
20005230  devInfoConfirmationMail                                          
20005233  initBroadcastMsg                                                 
2000523a  macRadioYielded                                                  
2000523b  macSrcMatchIsEnabled                                             
2000523c  macSrcMatchManualAddressTracking                                 
2000523d  macTxCmdActive                                                   
2000523e  macTxSlottedDelay                                                
2000523f  macTxSlottedDelayFactor                                          
20005242  numTx                                                            
20005244  parentFound                                                      
20005247  reqAccessAlloc                                                   
2000524d  ti_sysbios_knl_Idle_initDone                                     
2000524e  ti_sysbios_runtime_Startup_done                                  
20005400  ti_sysbios_family_arm_v8m_Hwi_ramVectors                         
200054fc  heapStart                                                        
2003b000  __stack                                                          
2003b000  heapEnd                                                          
20040000  __STACK_END                                                      
50000000  __ccfg                                                           
ffffffff  __TI_pprof_out_hndl                                              
ffffffff  __TI_prof_data_size                                              
ffffffff  __TI_prof_data_start                                             
ffffffff  __binit__                                                        
ffffffff  __start___llvm_prf_bits                                          
ffffffff  __start___llvm_prf_cnts                                          
ffffffff  __stop___llvm_prf_bits                                           
ffffffff  __stop___llvm_prf_cnts                                           
ffffffff  binit                                                            
UNDEFED   ITM_flush                                                        
UNDEFED   ITM_restore                                                      
UNDEFED   PWM_config                                                       
UNDEFED   PWM_count                                                        
UNDEFED   __mpu_init                                                       

[1299 symbols]
